Archive member included because of file (symbol)

..\..\..\libs\lib_vds.a(vds.o)
                              obj\Debug\\code\start\dec_mode.o (vds_open)
..\..\..\libs\lib_vds.a(jpeg_dec_ctl.o)
                              ..\..\..\libs\lib_vds.a(vds.o) (vds_jpeg_dec_open)
..\..\..\libs\lib_vds.a(jpeg_dec_unpkg.o)
                              ..\..\..\libs\lib_vds.a(vds.o) (jpeg_dec_unpkg_stop)
..\..\..\libs\lib_ves.a(ves.o)
                              obj\Debug\\code\start\main.o (ves_init)
..\..\..\libs\lib_ves.a(avi_pkg_ctrl.o)
                              ..\..\..\libs\lib_ves.a(ves.o) (avi_pkg_ctrl_open)
..\..\..\libs\lib_ves.a(jpeg_enc_ctrl.o)
                              ..\..\..\libs\lib_ves.a(ves.o) (jpeg_venc_open)
..\..\..\libs\lib_ves.a(jpeg_pkg_ctrl.o)
                              ..\..\..\libs\lib_ves.a(ves.o) (jpeg_frame_end)
..\..\..\libs\lib_jpeg_dec.a(jpeg_dec_if.o)
                              ..\..\..\libs\lib_vds.a(jpeg_dec_ctl.o) (get_jpeg0_dec_ops)
..\..\..\libs\lib_jpeg_dec.a(jpeg_dec_isr.o)
                              obj\Debug\\code\start\dec_mode.o (timer_fcnt)
..\..\..\libs\lib_jpeg_dec.a(jpeg_decode.o)
                              ..\..\..\libs\lib_jpeg_dec.a(jpeg_dec_if.o) (jpeg_decode_open)
..\..\..\libs\lib_jpeg_dec.a(jpeg_dec_head.o)
                              ..\..\..\libs\lib_jpeg_dec.a(jpeg_decode.o) (QT_TBL)
..\..\..\libs\lib_jpeg_enc.a(jpeg_enc_if.o)
                              ..\..\..\libs\lib_ves.a(ves.o) (get_jpeg0_enc_ops)
..\..\..\libs\lib_jpeg_enc.a(jpeg_encode.o)
                              ..\..\..\libs\lib_jpeg_enc.a(jpeg_enc_if.o) (jpeg_encode_close)
..\..\..\libs\lib_jpeg_enc.a(jpeg_encode_init.o)
                              ..\..\..\libs\lib_jpeg_enc.a(jpeg_encode.o) (qtfilehead)
..\..\..\libs\lib_jpeg_enc.a(jpeg_encode_isr.o)
                              ..\..\..\libs\lib_jpeg_enc.a(jpeg_enc_if.o) (jpeg_free_fb)
..\..\..\libs\lib_jpeg_enc.a(Build_dynamic_huffman.o)
                              ..\..\..\libs\lib_jpeg_enc.a(jpeg_encode_init.o) (huffman_init)
..\..\..\libs\lib_jpeg_enc.a(jpeg_abr.o)
                              ..\..\..\libs\lib_jpeg_enc.a(jpeg_encode_init.o) (jpeg_abr_init)
..\..\..\libs\lib_avi_unpkg.a(avi_unpkg_if.o)
                              ..\..\..\libs\lib_vds.a(jpeg_dec_unpkg.o) (get_avi_unpkg_ops)
..\..\..\libs\lib_avi_unpkg.a(avi_unpkg.o)
                              ..\..\..\libs\lib_avi_unpkg.a(avi_unpkg_if.o) (avi_unpkg_ctrl_open)
..\..\..\libs\lib_avi_unpkg.a(avi_unpkg_aud.o)
                              ..\..\..\libs\lib_avi_unpkg.a(avi_unpkg.o) (avi_unpkg_search_aframe)
..\..\..\libs\lib_avi_unpkg.a(avi_unpkg_dev.o)
                              ..\..\..\libs\lib_avi_unpkg.a(avi_unpkg.o) (avi_unpkg_fs_init)
..\..\..\libs\lib_avi_unpkg.a(avi_unpkg_head.o)
                              ..\..\..\libs\lib_avi_unpkg.a(avi_unpkg.o) (avi_unpkg_head)
..\..\..\libs\lib_avi_unpkg.a(avi_uppkg_vid.o)
                              ..\..\..\libs\lib_avi_unpkg.a(avi_unpkg.o) (avi_unpkg_jump_vframe)
..\..\..\libs\lib_avi_pkg.a(avi_pkg_if.o)
                              ..\..\..\libs\lib_ves.a(ves.o) (get_avi_pkg_ops)
..\..\..\libs\lib_avi_pkg.a(avi_pkg_dev.o)
                              ..\..\..\libs\lib_avi_pkg.a(avi_pkg_if.o) (avi_pkg_fs_init)
..\..\..\libs\lib_avi_pkg.a(avi_pkg.o)
                              ..\..\..\libs\lib_avi_pkg.a(avi_pkg_if.o) (avi_pkg_ctr_start)
..\..\..\libs\lib_avi_pkg.a(avi_pkg_head.o)
                              ..\..\..\libs\lib_avi_pkg.a(avi_pkg.o) (avihead_get_ptr)
..\..\..\libs\lib_avi_pkg.a(avi_pkg_idx.o)
                              ..\..\..\libs\lib_avi_pkg.a(avi_pkg.o) (avi_pkg_idx_skip_frame)
..\..\..\libs\lib_malloc.a(mem_heap.o)
                              ..\..\..\libs\lib_vds.a(jpeg_dec_unpkg.o) (malloc_stats)
..\..\..\libs\libsd1.a(mango_dev_sd1.o)
                              obj\Debug\\code\StorDev\dev_ctrl.o (dev_reg_sd1)
..\..\..\libs\libsd1.a(sd_host_init.o)
                              ..\..\..\libs\libsd1.a(mango_dev_sd1.o) (sd1_set_clk)
..\..\..\libs\libsd1.a(sd_host_read_end.o)
                              ..\..\..\libs\libsd1.a(mango_dev_sd1.o) (sd1_read_end)
..\..\..\libs\libsd1.a(sd_host_unmount.o)
                              ..\..\..\libs\libsd1.a(mango_dev_sd1.o) (sd1_unmount)
..\..\..\libs\libsd1.a(sd_host_write_end.o)
                              ..\..\..\libs\libsd1.a(mango_dev_sd1.o) (sd1_write_end)
..\..\..\libs\libsd1.a(sdmmc_init.o)
                              ..\..\..\libs\libsd1.a(mango_dev_sd1.o) (sd1_init)
..\..\..\libs\libsd1.a(suspend_sdmmc.o)
                              ..\..\..\libs\libsd1.a(mango_dev_sd1.o) (sd1_suspend)
..\..\..\libs\libsd1.a(sd_host_send_csd.o)
                              ..\..\..\libs\libsd1.a(mango_dev_sd1.o) (sd1_get_capacity)
..\..\..\libs\libsd1.a(sd_host_stop_trans.o)
                              ..\..\..\libs\libsd1.a(suspend_sdmmc.o) (sd1_host_stop_trans)
..\..\..\libs\libsd1.a(sd_host_hw.o)
                              ..\..\..\libs\libsd1.a(sdmmc_init.o) (handle(short, double, _, int, short, long double))
..\..\..\libs\libsd1.a(sd_wait_idle.o)
                              ..\..\..\libs\libsd1.a(sd_host_read_end.o) (sd1_wait_idle)
..\..\..\libs\libsd1.a(sdmmc_det.o)
                              ..\..\..\libs\libsd1.a(mango_dev_sd1.o) (sd1_is_online)
..\..\..\libs\libsd1.a(sd_host_reg.o)
                              ..\..\..\libs\libsd1.a(sd_host_hw.o) (SD1_8CLK_EN)
..\..\..\libs\libsd1.a(sd_send_command.o)
                              ..\..\..\libs\libsd1.a(sd_host_send_csd.o) (sd1_send_command)
..\..\..\libs\libsd1.a(sd_host_status.o)
                              ..\..\..\libs\libsd1.a(sd_host_read_end.o) (sd1_host_status)
..\..\..\libs\libsd1.a(sd_host_args.o)
                              ..\..\..\libs\libsd1.a(sd_host_init.o) (sd1_cmd_detect)
..\..\..\libs\libsd1.a(sd_host_mount.o)
                              ..\..\..\libs\libsd1.a(sdmmc_init.o) (sd1_mount)
..\..\..\libs\libsd1.a(sd_host_read.o)
                              ..\..\..\libs\libsd1.a(sd_host_read_end.o) (sd1_read)
..\..\..\libs\libsd1.a(sd_host_timeout.o)
                              ..\..\..\libs\libsd1.a(sd_host_stop_trans.o) (sd1_host_get_jiffies)
..\..\..\libs\libsd1.a(sd_host_write.o)
                              ..\..\..\libs\libsd1.a(sd_host_write_end.o) (sd1_write)
..\..\..\libs\libsd1.a(sd_init.o)
                              ..\..\..\libs\libsd1.a(sd_host_mount.o) (sd1_init_card)
..\..\..\libs\libsd1.a(sdmmc_host_set_bus_width.o)
                              ..\..\..\libs\libsd1.a(sdmmc_init.o) (sd1_set_bus_width)
..\..\..\libs\libsd1.a(sdmmc_host_set_hispeed.o)
                              ..\..\..\libs\libsd1.a(sdmmc_init.o) (sd1_set_hispeed)
..\..\..\libs\libsd1.a(mmc_host_send_rca.o)
                              ..\..\..\libs\libsd1.a(sd_init.o) (mmc1_host_send_rca)
..\..\..\libs\libsd1.a(mmc_host_set_bus_width.o)
                              ..\..\..\libs\libsd1.a(sdmmc_host_set_bus_width.o) (mmc1_host_set_bus_width)
..\..\..\libs\libsd1.a(mmc_host_set_hispeed.o)
                              ..\..\..\libs\libsd1.a(sdmmc_host_set_hispeed.o) (mmc1_host_set_hispeed)
..\..\..\libs\libsd1.a(sd_host_all_send_cid.o)
                              ..\..\..\libs\libsd1.a(sd_init.o) (sd1_host_all_send_cid)
..\..\..\libs\libsd1.a(sd_host_reset.o)
                              ..\..\..\libs\libsd1.a(sd_init.o) (sd1_host_reset)
..\..\..\libs\libsd1.a(sd_host_sd_status.o)
                              ..\..\..\libs\libsd1.a(sdmmc_host_set_bus_width.o) (sd1_host_sd_status)
..\..\..\libs\libsd1.a(sd_host_send_if_cond.o)
                              ..\..\..\libs\libsd1.a(sd_init.o) (sd1_host_send_if_cond)
..\..\..\libs\libsd1.a(sd_host_send_rca.o)
                              ..\..\..\libs\libsd1.a(sd_init.o) (sd1_host_send_rca)
..\..\..\libs\libsd1.a(sd_host_set_bus_width.o)
                              ..\..\..\libs\libsd1.a(sdmmc_host_set_bus_width.o) (sd1_host_set_bus_width)
..\..\..\libs\libsd1.a(sd_host_set_hispeed.o)
                              ..\..\..\libs\libsd1.a(sdmmc_host_set_hispeed.o) (sd1_host_set_hispeed)
..\..\..\libs\libsd1.a(sd_host_switch_func.o)
                              ..\..\..\libs\libsd1.a(sd_host_set_hispeed.o) (sd1_host_switch_func)
..\..\..\libs\libsd1.a(sd_select_card.o)
                              ..\..\..\libs\libsd1.a(sd_init.o) (sd1_select_card)
..\..\..\libs\libsd1.a(sd_send_scr.o)
                              ..\..\..\libs\libsd1.a(sdmmc_host_set_bus_width.o) (sd1_send_scr)
..\..\..\libs\libsd1.a(sd_chk_ctl.o)
                              ..\..\..\libs\libsd1.a(sdmmc_det.o) (sd1_chk_ctl)
..\..\..\libs\libsd1.a(sd_read_start.o)
                              ..\..\..\libs\libsd1.a(sd_host_read.o) (sd1_read_start)
..\..\..\libs\libsd1.a(sd_write_start.o)
                              ..\..\..\libs\libsd1.a(sd_host_write.o) (sd1_write_start)
..\..\..\libs\libsd1.a(sd_host_identification.o)
                              ..\..\..\libs\libsd1.a(sd_init.o) (sd1_host_identification)
..\..\..\libs\libsd1.a(mmc_host_send_op_cond.o)
                              ..\..\..\libs\libsd1.a(sd_host_identification.o) (mmc1_host_send_op_cond)
..\..\..\libs\libsd1.a(sd_host_app_cmd.o)
                              ..\..\..\libs\libsd1.a(sd_host_sd_status.o) (sd1_host_app_cmd)
..\..\..\libs\libsd1.a(sd_host_send_op_cond.o)
                              ..\..\..\libs\libsd1.a(sd_host_identification.o) (sd1_host_send_op_cond)
..\..\..\libs\lib_imc_disp.a(dsc.o)
                              obj\Debug\\code\disp_ctrl\ui_task.o (dsc_imb_open_tmp)
..\..\..\libs\lib_imb.a(imb_module.o)
                              obj\Debug\\code\disp_ctrl\ui_task.o (imb_osd_pal_cfg)
..\..\..\libs\lib_imb.a(cve_cfg.o)
                              ..\..\..\libs\lib_imb.a(imb_module.o) (cve_pll1_init)
..\..\..\libs\lib_imb.a(imb_isr.o)
                              ..\..\..\libs\lib_imb.a(imb_module.o) (imb0_suspend_fun)
..\..\..\libs\lib_imc.a(imc_if.o)
                              ..\..\..\libs\lib_imc_disp.a(dsc.o) (imc_open)
..\..\..\libs\lib_imc.a(imc_rep.o)
                              ..\..\..\libs\lib_imc.a(imc_if.o) (imc_rep_frame_init)
..\..\..\libs\lib_imc.a(imc.o)
                              ..\..\..\libs\lib_imc.a(imc_if.o) (imc_mount)
..\..\..\libs\lib_imc.a(imc_cut.o)
                              ..\..\..\libs\lib_imc.a(imc.o) (get_cut_frame_buffer)
..\..\..\libs\lib_imc.a(imc_isr.o)
                              ..\..\..\libs\lib_imc.a(imc.o) (handle__imc_isr)
..\..\..\libs\lib_imc.a(lane_dect.o)
                              ..\..\..\libs\lib_imc.a(imc_isr.o) (get_ldet_hdl)
..\..\..\libs\lib_vm.a(vm.o)  obj\Debug\\code\disp_ctrl\ui_task.o (vm_eraser)
..\..\..\libs\lib_font.a(font_other_language.o)
                              obj\Debug\\code\disp_ctrl\my_ui1.o (InitFont_ASCII)
..\..\..\libs\lib_font.a(font_out.o)
                              obj\Debug\\code\disp_ctrl\my_ui1.o (g_language_mode)
..\..\..\libs\lib_font.a(font_sjis.o)
                              ..\..\..\libs\lib_font.a(font_out.o) (InitFont_SJIS)
..\..\..\libs\lib_font.a(font_area_ctl.o)
                              ..\..\..\libs\lib_font.a(font_other_language.o) (font_get_width)
..\..\..\libs\lib_font.a(font_ascii.o)
                              ..\..\..\libs\lib_font.a(font_out.o) (TextOut_ANSI)
..\..\..\libs\lib_font.a(font_big5.o)
                              ..\..\..\libs\lib_font.a(font_out.o) (InitFont_BIG5)
..\..\..\libs\lib_font.a(font_gbk.o)
                              ..\..\..\libs\lib_font.a(font_out.o) (InitFont_GBK)
..\..\..\libs\lib_font.a(font_ksc.o)
                              ..\..\..\libs\lib_font.a(font_out.o) (InitFont_KSC)
..\..\..\libs\lib_uicon.a(dc_showres.o)
                              obj\Debug\\code\disp_ctrl\ui_task.o (dc_set_screen_scale)
..\..\..\libs\lib_uicon.a(ui_get_info.o)
                              obj\Debug\\code\disp_ctrl\my_ui1.o (ui_get_info)
..\..\..\libs\lib_uicon.a(ui_init.o)
                              obj\Debug\\code\disp_ctrl\ui_task.o (ui_init)
..\..\..\libs\lib_uicon.a(ui_layer.o)
                              obj\Debug\\code\disp_ctrl\ui_task.o (ui_layer)
..\..\..\libs\lib_uicon.a(ui_menu.o)
                              obj\Debug\\code\disp_ctrl\ui_task.o (get_counter)
..\..\..\libs\lib_uicon.a(ui_menub.o)
                              obj\Debug\\code\disp_ctrl\ui_task.o (ui_menu)
..\..\..\libs\lib_uicon.a(ui_number.o)
                              obj\Debug\\code\disp_ctrl\my_ui1.o (ui_number)
..\..\..\libs\lib_uicon.a(ui_pic.o)
                              obj\Debug\\code\disp_ctrl\my_ui1.o (ui_pic)
..\..\..\libs\lib_uicon.a(ui_sdfs.o)
                              ..\..\..\libs\lib_font.a(font_other_language.o) (ui_sd_fopen)
..\..\..\libs\lib_uicon.a(ui_text.o)
                              obj\Debug\\code\disp_ctrl\ui_task.o (my_putchar)
..\..\..\libs\lib_uicon.a(ui_time.o)
                              obj\Debug\\code\disp_ctrl\ui_task.o (ui_time)
..\..\..\libs\lib_uicon.a(ui_time1.o)
                              obj\Debug\\code\disp_ctrl\ui_task.o (ui_time1)
..\..\..\libs\lib_drv_lib.a(drv_manage.o)
                              obj\Debug\\code\StorDev\dev_ctrl.o (dev_register)
..\..\..\libs\lib_dsc_ram.a(dsc_ram.o)
                              ..\..\..\libs\lib_imb.a(imb_module.o) (dsc_ram_init)
..\..\..\libs\lib_vedio_ram.a(yuv_ram.o)
                              obj\Debug\\code\start\main.o (video_ram_init)
..\..\..\libs\lib_sdfile.a(sdfile.o)
                              obj\Debug\\code\Peripherals\user_isp_cfg.o (sd_fseek)
..\..\..\libs\lib_vfs.a(vfs.o)
                              obj\Debug\\code\start\car_fs_api.o (mkfs_drv)
..\..\..\libs\lib_vfs.a(vfs_init.o)
                              obj\Debug\\code\FileSelecter\FileSelecter.o (vfs_init)
..\..\..\libs\lib_vfs.a(GenfsInc.o)
                              ..\..\..\libs\lib_vfs.a(vfs_init.o) (genfs_mount_pattition)
..\..\..\libs\lib_vfs.a(ff.o)
                              ..\..\..\libs\lib_vfs.a(GenfsInc.o) (setFsHdl)
..\..\..\libs\lib_vfs.a(dev_Mount.o)
                              ..\..\..\libs\lib_vfs.a(vfs.o) (ld_word)
..\..\..\libs\lib_vfs.a(dev_cache_alloc.o)
                              ..\..\..\libs\lib_vfs.a(dev_Mount.o) (dev_CacheAlloc)
..\..\..\libs\lib_vfs.a(dev_cache_flush.o)
                              ..\..\..\libs\lib_vfs.a(dev_cache_alloc.o) (dev_CacheFlush)
..\..\..\libs\lib_vfs.a(dev_cache_read_only.o)
                              ..\..\..\libs\lib_vfs.a(dev_cache_alloc.o) (dev_CacheRDev)
..\..\..\libs\lib_vfs.a(dev_cache_write_dev.o)
                              ..\..\..\libs\lib_vfs.a(dev_cache_flush.o) (dev_CacheWDev)
..\..\..\libs\lib_vfs.a(fs_api.o)
                              ..\..\..\libs\lib_vfs.a(dev_Mount.o) (gFsErrFlag)
..\..\..\libs\lib_vfs.a(dev_Cache.o)
                              ..\..\..\libs\lib_vfs.a(dev_cache_alloc.o) (g_pFunEnterRW)
..\..\..\libs\libhwi.a(cache.o)
                              ..\..\..\libs\lib_uicon.a(dc_showres.o) (flush_dcache)
..\..\..\libs\libhwi.a(HWI.o)
                              obj\Debug\\code\start\main.o (hwi_init)
..\..\..\libs\libspi0flash.a(mango_dev_spi0flash.o)
                              obj\Debug\\code\StorDev\dev_ctrl.o (dev_reg_flash)
..\..\..\libs\libspi0flash.a(spi0flash.o)
                              ..\..\..\libs\libspi0flash.a(mango_dev_spi0flash.o) (spi0flash_read_id)
..\..\..\libs\libspi0.a(spi0.o)
                              ..\..\..\libs\libspi0flash.a(mango_dev_spi0flash.o) (spi0_remap_cs)
..\..\..\libs\lib_wfile_serve.a(wfile_serve.o)
                              obj\Debug\\code\start\enc_mode.o (wfsv_init)
..\..\..\libs\lib_audio.a(ladc.o)
                              ..\..\..\libs\lib_ves.a(ves.o) (ladc_stop)
..\..\..\libs\lib_audio.a(audio.o)
                              obj\Debug\\code\common\audio_api.o (audio_open)
..\..\..\libs\lib_audio.a(dac.o)
                              ..\..\..\libs\lib_audio.a(audio.o) (dac_open)
..\..\..\libs\lib_usb_slave.a(usb_slave_main.o)
                              obj\Debug\\code\start\usb_mode.o (dev_reg_usb0slv)
..\..\..\libs\lib_usb_slave.a(msd2video_ctrl.o)
                              ..\..\..\libs\lib_usb_slave.a(usb_slave_main.o) (jl_video_private_cmd)
..\..\..\libs\lib_usb_slave.a(msd_dev_update.o)
                              ..\..\..\libs\lib_usb_slave.a(usb_slave_main.o) (usb_set_update_dev)
..\..\..\libs\lib_usb_slave.a(msd_main.o)
                              ..\..\..\libs\lib_usb_slave.a(msd2video_ctrl.o) (msd_mcu_to_usb)
..\..\..\libs\lib_usb_slave.a(video_main.o)
                              ..\..\..\libs\lib_usb_slave.a(usb_slave_main.o) (usb_video_init)
..\..\..\libs\lib_usb_slave.a(audio_main.o)
                              ..\..\..\libs\lib_usb_slave.a(usb_slave_main.o) (usb_audio_arg_init)
..\..\..\libs\lib_usb_slave.a(core_descriptor.o)
                              ..\..\..\libs\lib_usb_slave.a(usb_slave_main.o) (pslv_str_desc)
..\..\..\libs\lib_usb_slave.a(usb_phy.o)
                              ..\..\..\libs\lib_usb_slave.a(usb_slave_main.o) (handle__HUSB_slv_ctrl_isr)
..\..\..\libs\lib_usb_slave.a(usb_setup.o)
                              ..\..\..\libs\lib_usb_slave.a(usb_phy.o) (Ep0_control_transfer)
..\..\..\libs\lib_usb_slave.a(msd_descriptor.o)
                              ..\..\..\libs\lib_usb_slave.a(core_descriptor.o) (sMassDescriptor)
..\..\..\libs\lib_usb_slave.a(video_descriptor.o)
                              ..\..\..\libs\lib_usb_slave.a(core_descriptor.o) (get_viode_cfg_len)
..\..\..\libs\lib_usb_slave.a(audio_descriptor.o)
                              ..\..\..\libs\lib_usb_slave.a(core_descriptor.o) (get_speaker_cfg_len)
..\..\..\libs\lib_usb_phy.a(usb_hal.o)
                              ..\..\..\libs\lib_usb_slave.a(usb_slave_main.o) (get_usb_controller)
..\..\..\libs\lib_isp.a(gamma.o)
                              ..\..\..\libs\lib_usb_slave.a(msd2video_ctrl.o) (gamma_70_70_265_plus_poly_40_65_192_200)
..\..\..\libs\lib_isp.a(isp0_dev.o)
                              ..\..\..\libs\lib_ves.a(ves.o) (isp0_mount)
..\..\..\libs\lib_isp.a(isp_com.o)
                              obj\Debug\\code\start\mode_switch.o (isp_not_update)
..\..\..\libs\lib_isp.a(isp_customize.o)
                              ..\..\..\libs\lib_isp.a(isp0_dev.o) (reset_isp_cunstomize)
..\..\..\libs\lib_isp.a(isp_tuning.o)
                              ..\..\..\libs\lib_isp.a(isp_com.o) (ispt_init)
..\..\..\libs\lib_isp.a(isp_tuning_drc.o)
                              ..\..\..\libs\lib_isp.a(isp_tuning.o) (ispt_drc_lut_update)
..\..\..\libs\lib_isp.a(lsc_coeff.o)
                              ..\..\..\libs\lib_usb_slave.a(msd2video_ctrl.o) (lsc_coeff_g)
..\..\..\libs\lib_isp.a(median_filter.o)
                              ..\..\..\libs\lib_isp.a(isp_tuning_drc.o) (medfilt_init)
..\..\..\libs\lib_isp.a(isp_if.o)
                              ..\..\..\libs\lib_ves.a(ves.o) (get_isp1_ops)
..\..\..\libs\lib_isp.a(average_filter.o)
                              ..\..\..\libs\lib_isp.a(isp_tuning_drc.o) (avgfilt_init)
..\..\..\libs\lib_isp.a(fixed_math.o)
                              ..\..\..\libs\lib_isp.a(isp_tuning_drc.o) (fixMul)
..\..\..\libs\lib_isp.a(isp1_dev.o)
                              ..\..\..\libs\lib_isp.a(isp_if.o) (isp1_mount)
..\..\..\libs\lib_cbuf.a(circular_buf.o)
                              obj\Debug\\code\common\audio_api.o (cbuf_read)
..\..\..\libs\lib_lane.a(lane_detect.o)
                              ..\..\..\libs\lib_imc.a(lane_dect.o) (lane_detection_one_frame)
..\..\..\libs\lib_lane.a(canny.o)
                              ..\..\..\libs\lib_lane.a(lane_detect.o) (canny_init)
..\..\..\libs\lib_lane.a(canny_edge.o)
                              ..\..\..\libs\lib_lane.a(canny.o) (canny_edge)
..\..\..\libs\lib_lane.a(hough.o)
                              ..\..\..\libs\lib_lane.a(lane_detect.o) (hough_init)
..\..\..\libs\lib_lane.a(LUT1024.o)
                              ..\..\..\libs\lib_lane.a(hough.o) (LUT_COS_1024)
..\..\..\libs\librtos.a(os_core.o)
                              obj\Debug\\code\start\main.o (OSInit)
..\..\..\libs\librtos.a(os_mutex.o)
                              obj\Debug\\code\Peripherals\uart.o (OSMutexCreate)
..\..\..\libs\librtos.a(os_sem.o)
                              obj\Debug\\code\common\audio_api.o (OSSemCreate)
..\..\..\libs\librtos.a(os_task.o)
                              ..\..\..\libs\librtos.a(os_core.o) (OSTaskCreate)
..\..\..\libs\librtos.a(os_time.o)
                              obj\Debug\\code\FileSelecter\FileSelecter.o (OSTimeDly)
..\..\..\libs\librtos.a(os_api.o)
                              obj\Debug\\code\start\main.o (os_start)
..\..\..\libs\librtos.a(os_cpu.o)
                              ..\..\..\libs\librtos.a(os_core.o) (OS_HighPrio)
..\..\..\libs\librtos.a(os_cpu_c.o)
                              obj\Debug\\code\start\main.o (OSInitTick)
..\..\..\libs\lib_irtc.a(irtc.o)
                              obj\Debug\\code\Peripherals\G_Sensor\parking_guard.o (write_RTC_reg)
..\..\..\libs\lib_fbuf.a(frame_buf.o)
                              ..\..\..\libs\lib_vds.a(jpeg_dec_unpkg.o) (fb_init)
..\..\..\libs\lib_sensor.a(iic.o)
                              obj\Debug\\code\Peripherals\G_Sensor\da380.o (iic_select)
..\..\..\libs\lib_sensor.a(isp_sensor_manage.o)
                              ..\..\..\libs\lib_ves.a(ves.o) (isp_sensor_check)
..\..\..\libs\lib_sensor.a(GC0308.o)
                              ..\..\..\libs\lib_sensor.a(isp_sensor_manage.o) (GC0308_set_output_size)
..\..\..\libs\lib_sensor.a(GC1004.o)
                              ..\..\..\libs\lib_sensor.a(isp_sensor_manage.o) (GC1004_set_ae_bf_type)
..\..\..\libs\lib_sensor.a(GC1004_tbl.o)
                              ..\..\..\libs\lib_sensor.a(GC1004.o) (GC1004_AE_lut_min_30fps)
..\..\..\libs\lib_sensor.a(H42.o)
                              ..\..\..\libs\lib_sensor.a(isp_sensor_manage.o) (H42_set_ae_bf_type)
..\..\..\libs\lib_sensor.a(NT99140.o)
                              ..\..\..\libs\lib_sensor.a(isp_sensor_manage.o) (NT99140_set_output_size)
..\..\..\libs\lib_sensor.a(NT99143.o)
                              ..\..\..\libs\lib_sensor.a(isp_sensor_manage.o) (NT99143_set_output_size)
..\..\..\libs\lib_sensor.a(NT99143_tbl.o)
                              ..\..\..\libs\lib_sensor.a(NT99143.o) (NT99143_AE_lut_50Hz)
..\..\..\libs\lib_sensor.a(OV9710.o)
                              ..\..\..\libs\lib_sensor.a(isp_sensor_manage.o) (OV9710_set_output_size)
..\..\..\libs\lib_sensor.a(SC1045.o)
                              ..\..\..\libs\lib_sensor.a(isp_sensor_manage.o) (SC1045_set_output_size)
..\..\..\libs\lib_sensor.a(SC1045_tbl.o)
                              ..\..\..\libs\lib_sensor.a(SC1045.o) (SC1045_AE_lut_50Hz_min_25fps)
..\..\..\libs\lib_sensor.a(gm7150.o)
                              ..\..\..\libs\lib_sensor.a(isp_sensor_manage.o) (rdGM7150Reg)
..\..\..\libs\lib_sensor.a(ps4100.o)
                              ..\..\..\libs\lib_sensor.a(isp_sensor_manage.o) (PS4100_set_output_size)
..\..\..\libs\lib_sensor.a(ps4100_tbl.o)
                              ..\..\..\libs\lib_sensor.a(ps4100.o) (PS4100_AE_lut_50Hz_min_25fps)
..\..\..\libs\lib_common.a(time.o)
                              ..\..\..\libs\lib_jpeg_enc.a(jpeg_encode_isr.o) (time_lapse)
..\..\..\libs\lib_common.a(Vsnprintf.o)
                              ..\..\..\libs\lib_common.a(time.o) (snprintf)
C:\JL\dv12\lib\libc.a(lib_a-isalnum.o)
                              ..\..\..\libs\lib_common.a(Vsnprintf.o) (isalnum)
C:\JL\dv12\lib\libc.a(lib_a-memcmp.o)
                              obj\Debug\\code\disp_ctrl\my_ui1.o (memcmp)
C:\JL\dv12\lib\libc.a(lib_a-memcpy.o)
                              obj\Debug\\code\Peripherals\G_Sensor\gravity_sensor_manage.o (memcpy)
C:\JL\dv12\lib\libc.a(lib_a-memmove.o)
                              ..\..\..\libs\lib_malloc.a(mem_heap.o) (memmove)
C:\JL\dv12\lib\libc.a(lib_a-memset.o)
                              obj\Debug\\code\FileSelecter\FileSelecter.o (memset)
C:\JL\dv12\lib\libc.a(lib_a-strcat.o)
                              obj\Debug\\code\upgrade\upgrade.o (strcat)
C:\JL\dv12\lib\libc.a(lib_a-strcmp.o)
                              obj\Debug\\code\Peripherals\G_Sensor\gravity_sensor_manage.o (strcmp)
C:\JL\dv12\lib\libc.a(lib_a-strcpy.o)
                              obj\Debug\\code\FileSelecter\FileSelecter.o (strcpy)
C:\JL\dv12\lib\libc.a(lib_a-strlen.o)
                              obj\Debug\\code\FileSelecter\FileSelecter.o (strlen)
C:\JL\dv12\lib\libc.a(lib_a-strncmp.o)
                              obj\Debug\\code\FileSelecter\FileSelecter.o (strncmp)
C:\JL\dv12\lib\libc.a(lib_a-strncpy.o)
                              ..\..\..\libs\lib_vfs.a(vfs.o) (strncpy)
C:\JL\dv12\lib\libc.a(lib_a-strnlen.o)
                              ..\..\..\libs\lib_common.a(Vsnprintf.o) (strnlen)
C:\JL\dv12\lib\libc.a(lib_a-ctype_.o)
                              C:\JL\dv12\lib\libc.a(lib_a-isalnum.o) (__ctype_ptr__)
C:\JL\dv12\lib\libgcc.a(_umodsi3.o)
                              obj\Debug\\code\Peripherals\timer.o (__umodsi3)
C:\JL\dv12\lib\libgcc.a(_modsi3.o)
                              obj\Debug\\code\infoNES\infoNES_SRC\src\InfoNES_Mapper.o (__modsi3)
C:\JL\dv12\lib\libgcc.a(_muldi3.o)
                              ..\..\..\libs\lib_isp.a(fixed_math.o) (__muldi3)
C:\JL\dv12\lib\libgcc.a(_umulsi3_highpart.o)
                              obj\Debug\\code\FileSelecter\FileSelecter.o (__umulsi3_highpart)
C:\JL\dv12\lib\libgcc.a(_lshrdi3.o)
                              ..\..\..\libs\lib_common.a(Vsnprintf.o) (__lshrdi3)
C:\JL\dv12\lib\libgcc.a(_divdi3.o)
                              ..\..\..\libs\lib_isp.a(fixed_math.o) (__divdi3)
C:\JL\dv12\lib\libgcc.a(divsf3.o)
                              obj\Debug\\code\start\dec_mode.o (__divsf3)
C:\JL\dv12\lib\libgcc.a(fixunssfsi.o)
                              obj\Debug\\code\start\dec_mode.o (__fixunssfsi)
C:\JL\dv12\lib\libgcc.a(floatunsisf.o)
                              obj\Debug\\code\start\dec_mode.o (__floatunsisf)
C:\JL\dv12\lib\libgcc.a(_clz.o)
                              C:\JL\dv12\lib\libgcc.a(_divdi3.o) (__clz_tab)
C:\JL\dv12\lib\libgcc.a(_clzsi2.o)
                              C:\JL\dv12\lib\libgcc.a(divsf3.o) (__clzsi2)

Allocating common symbols
Common symbol       size              file

current_index       0x4               obj\Debug\\code\FileSelecter\FileSelecter.o
Map67_IRQ_Cnt       0x1               obj\Debug\\code\infoNES\infoNES_SRC\src\InfoNES_Mapper.o
Map100_Chr7         0x1               obj\Debug\\code\infoNES\infoNES_SRC\src\InfoNES_Mapper.o
p_customize_lscG    0x4               ..\..\..\libs\lib_isp.a(isp_customize.o)
ApuC4d              0x1               obj\Debug\\code\infoNES\infoNES_SRC\src\InfoNES_pAPU.o
Map95_Chr4          0x4               obj\Debug\\code\infoNES\infoNES_SRC\src\InfoNES_Mapper.o
PalTable            0x40              obj\Debug\\code\infoNES\infoNES_SRC\src\InfoNES.o
ROM                 0x4               obj\Debug\\code\infoNES\infoNES_SRC\src\InfoNES.o
Map119_Chr23        0x1               obj\Debug\\code\infoNES\infoNES_SRC\src\InfoNES_Mapper.o
Map114_Prg0         0x4               obj\Debug\\code\infoNES\infoNES_SRC\src\InfoNES_Mapper.o
i_customize_blc_r   0x2               ..\..\..\libs\lib_isp.a(isp_customize.o)
Map248_WeSram       0x1               obj\Debug\\code\infoNES\infoNES_SRC\src\InfoNES_Mapper.o
Map90_Prg_Reg       0x4               obj\Debug\\code\infoNES\infoNES_SRC\src\InfoNES_Mapper.o
Map1_HI1            0x4               obj\Debug\\code\infoNES\infoNES_SRC\src\InfoNES_Mapper.o
i_customize_lscY    0x2               ..\..\..\libs\lib_isp.a(isp_customize.o)
PAD2_Bit            0x4               obj\Debug\\code\infoNES\infoNES_SRC\src\InfoNES.o
Map187_IRQ_Enable   0x1               obj\Debug\\code\infoNES\infoNES_SRC\src\InfoNES_Mapper.o
Map191_Prg0         0x1               obj\Debug\\code\infoNES\infoNES_SRC\src\InfoNES_Mapper.o
Map118_Prg0         0x4               obj\Debug\\code\infoNES\infoNES_SRC\src\InfoNES_Mapper.o
i_customize_satuUV  0x2               ..\..\..\libs\lib_isp.a(isp_customize.o)
pSTD_AC_UV_VALUES   0xa2              ..\..\..\libs\lib_jpeg_enc.a(Build_dynamic_huffman.o)
font_color          0x2               ..\..\..\libs\lib_uicon.a(ui_text.o)
Map23_IRQ_Cnt       0x1               obj\Debug\\code\infoNES\infoNES_SRC\src\InfoNES_Mapper.o
uvc_ctrl_arg        0x18              obj\Debug\\code\start\usb_mode.o
MapperSram          0x4               obj\Debug\\code\infoNES\infoNES_SRC\src\InfoNES.o
pro_file_format     0xd               obj\Debug\\code\FileSelecter\FileSelecter.o
IsGB2312            0x1               ..\..\..\libs\lib_font.a(font_gbk.o)
Map99_Coin          0x1               obj\Debug\\code\infoNES\infoNES_SRC\src\InfoNES_Mapper.o
Map109_Chrmode1     0x1               obj\Debug\\code\infoNES\infoNES_SRC\src\InfoNES_Mapper.o
Map112_IRQ_Cnt      0x1               obj\Debug\\code\infoNES\infoNES_SRC\src\InfoNES_Mapper.o
Map119_Reg          0x8               obj\Debug\\code\infoNES\infoNES_SRC\src\InfoNES_Mapper.o
g_dac_ctrl          0x7c              obj\Debug\\code\common\audio_api.o
Map32_Saved         0x1               obj\Debug\\code\infoNES\infoNES_SRC\src\InfoNES_Mapper.o
g_imc_info          0xb0              ..\..\..\libs\lib_imc.a(imc.o)
ApuSampleRate       0x4               obj\Debug\\code\infoNES\infoNES_SRC\src\InfoNES_pAPU.o
ApuC1b              0x1               obj\Debug\\code\infoNES\infoNES_SRC\src\InfoNES_pAPU.o
PPURAM              0x4000            obj\Debug\\code\infoNES\infoNES_SRC\src\InfoNES.o
name_fix_len        0x4               obj\Debug\\code\FileSelecter\FileSelecter.o
Map116_ExPrgSwitch  0x1               obj\Debug\\code\infoNES\infoNES_SRC\src\InfoNES_Mapper.o
Map18_Regs          0xb               obj\Debug\\code\infoNES\infoNES_SRC\src\InfoNES_Mapper.o
image0              0x4               obj\Debug\\code\disp_ctrl\ui_task.o
ispt_gamma_r        0x100             ..\..\..\libs\lib_isp.a(gamma.o)
IRQ_State           0x1               obj\Debug\\code\infoNES\infoNES_SRC\src\K6502.o
g_byTestTable       0x100             obj\Debug\\code\infoNES\infoNES_SRC\src\K6502.o
Map4_IRQ_Request    0x1               obj\Debug\\code\infoNES\infoNES_SRC\src\InfoNES_Mapper.o
ApuC3c              0x1               obj\Debug\\code\infoNES\infoNES_SRC\src\InfoNES_pAPU.o
Map115_Reg          0x8               obj\Debug\\code\infoNES\infoNES_SRC\src\InfoNES_Mapper.o
Map110_Reg0         0x1               obj\Debug\\code\infoNES\infoNES_SRC\src\InfoNES_Mapper.o
Delfile_Semp        0x4               obj\Debug\\code\FileSelecter\FileSelecter.o
SC1045_iic_fun      0x1c              ..\..\..\libs\lib_sensor.a(SC1045.o)
latch3              0x3               obj\Debug\\code\infoNES\infoNES_SRC\src\InfoNES_Mapper.o
Ydc_values_cnt      0x34              ..\..\..\libs\lib_jpeg_enc.a(Build_dynamic_huffman.o)
RAM                 0x2000            obj\Debug\\code\infoNES\infoNES_SRC\src\InfoNES.o
r_gma_tab_update_flag
                    0x1               ..\..\..\libs\lib_imb.a(imb_module.o)
Map183_IRQ_Enable   0x1               obj\Debug\\code\infoNES\infoNES_SRC\src\InfoNES_Mapper.o
Map69_Regs          0x1               obj\Debug\\code\infoNES\infoNES_SRC\src\InfoNES_Mapper.o
i_customize_blc_gr  0x2               ..\..\..\libs\lib_isp.a(isp_customize.o)
cur_event           0x4               obj\Debug\\code\infoNES\infoNES_SRC\src\InfoNES_pAPU.o
Map117_IRQ_Line     0x1               obj\Debug\\code\infoNES\infoNES_SRC\src\InfoNES_Mapper.o
PPU_Scr_H_Bit_Next  0x1               obj\Debug\\code\infoNES\infoNES_SRC\src\InfoNES.o
Map4_Prg0           0x4               obj\Debug\\code\infoNES\infoNES_SRC\src\InfoNES_Mapper.o
PPU_BG_Base         0x4               obj\Debug\\code\infoNES\infoNES_SRC\src\InfoNES.o
ApuC5CacheAddr      0x2               obj\Debug\\code\infoNES\infoNES_SRC\src\InfoNES_pAPU.o
g_imc_frame_buf     0x10              ..\..\..\libs\lib_imc.a(imc_cut.o)
Map100_IRQ_Enable   0x1               obj\Debug\\code\infoNES\infoNES_SRC\src\InfoNES_Mapper.o
Map115_Chr2         0x1               obj\Debug\\code\infoNES\infoNES_SRC\src\InfoNES_Mapper.o
adc_channel_value   0x6               obj\Debug\\code\key\adc_scan.o
Map42_IRQ_Cnt       0x1               obj\Debug\\code\infoNES\infoNES_SRC\src\InfoNES_Mapper.o
OSTCBPrioTbl        0x100             ..\..\..\libs\librtos.a(os_core.o)
ApuCyclesPerSample  0x4               obj\Debug\\code\infoNES\infoNES_SRC\src\InfoNES_pAPU.o
gc0308_iic_fun      0x1c              ..\..\..\libs\lib_sensor.a(GC0308.o)
Map115_Chr6         0x1               obj\Debug\\code\infoNES\infoNES_SRC\src\InfoNES_Mapper.o
Map44_Chr4          0x4               obj\Debug\\code\infoNES\infoNES_SRC\src\InfoNES_Mapper.o
Map135_Chr0h        0x1               obj\Debug\\code\infoNES\infoNES_SRC\src\InfoNES_Mapper.o
Map116_Prg0         0x1               obj\Debug\\code\infoNES\infoNES_SRC\src\InfoNES_Mapper.o
Map90_IRQ_Enable    0x1               obj\Debug\\code\infoNES\infoNES_SRC\src\InfoNES_Mapper.o
Map90_Value2        0x4               obj\Debug\\code\infoNES\infoNES_SRC\src\InfoNES_Mapper.o
i_customize_shpnLevel
                    0x4               ..\..\..\libs\lib_isp.a(isp_customize.o)
Map44_Rom_Bank      0x4               obj\Debug\\code\infoNES\infoNES_SRC\src\InfoNES_Mapper.o
Map115_ExPrgSwitch  0x1               obj\Debug\\code\infoNES\infoNES_SRC\src\InfoNES_Mapper.o
Map67_IRQ_Latch     0x1               obj\Debug\\code\infoNES\infoNES_SRC\src\InfoNES_Mapper.o
Map64_Chr           0x1               obj\Debug\\code\infoNES\infoNES_SRC\src\InfoNES_Mapper.o
Map135_Chr0l        0x1               obj\Debug\\code\infoNES\infoNES_SRC\src\InfoNES_Mapper.o
Map17_IRQ_Enable    0x1               obj\Debug\\code\infoNES\infoNES_SRC\src\InfoNES_Mapper.o
Map16_IRQ_Cnt       0x4               obj\Debug\\code\infoNES\infoNES_SRC\src\InfoNES_Mapper.o
Map48_IRQ_Enable    0x1               obj\Debug\\code\infoNES\infoNES_SRC\src\InfoNES_Mapper.o
g_double_dsc_status
                    0x1               obj\Debug\\code\start\main.o
Map116_IRQ_Counter  0x1               obj\Debug\\code\infoNES\infoNES_SRC\src\InfoNES_Mapper.o
Map47_IRQ_Cnt       0x1               obj\Debug\\code\infoNES\infoNES_SRC\src\InfoNES_Mapper.o
OSIdleCtr           0x4               ..\..\..\libs\librtos.a(os_core.o)
user_define         0x8               obj\Debug\\code\disp_ctrl\my_ui1.o
Map114_Regs         0x8               obj\Debug\\code\infoNES\infoNES_SRC\src\InfoNES_Mapper.o
Map74_Chr01         0x4               obj\Debug\\code\infoNES\infoNES_SRC\src\InfoNES_Mapper.o
idle_tcb            0x34              ..\..\..\libs\librtos.a(os_core.o)
g_osd_info          0x130             ..\..\..\libs\lib_imc.a(imc.o)
g_ROLTable          0x400             obj\Debug\\code\infoNES\infoNES_SRC\src\K6502.o
rtc_time            0x8               obj\Debug\\code\FileSelecter\FileSelecter.o
Map187_IRQ_Latch    0x1               obj\Debug\\code\infoNES\infoNES_SRC\src\InfoNES_Mapper.o
Map115_Prg1         0x1               obj\Debug\\code\infoNES\infoNES_SRC\src\InfoNES_Mapper.o
osdlayer            0xa0              ..\..\..\libs\lib_imb.a(imb_module.o)
Map115_IRQ_Latch    0x1               obj\Debug\\code\infoNES\infoNES_SRC\src\InfoNES_Mapper.o
Map245_Chr5         0x1               obj\Debug\\code\infoNES\infoNES_SRC\src\InfoNES_Mapper.o
g_str_sindex        0x2               ..\..\..\libs\lib_uicon.a(dc_showres.o)
i_customize_wb_g    0x2               ..\..\..\libs\lib_isp.a(isp_customize.o)
Map25_IRQ_Count     0x1               obj\Debug\\code\infoNES\infoNES_SRC\src\InfoNES_Mapper.o
Map109_Chr3         0x1               obj\Debug\\code\infoNES\infoNES_SRC\src\InfoNES_Mapper.o
ApuTriangleMagic    0x4               obj\Debug\\code\infoNES\infoNES_SRC\src\InfoNES_pAPU.o
msg_fifo            0x32              ..\..\..\libs\lib_uicon.a(ui_menu.o)
Map112_Chr01        0x4               obj\Debug\\code\infoNES\infoNES_SRC\src\InfoNES_Mapper.o
g_jpeg_dec_fd       0x140             ..\..\..\libs\lib_jpeg_dec.a(jpeg_decode.o)
Map187_Prg          0x4               obj\Debug\\code\infoNES\infoNES_SRC\src\InfoNES_Mapper.o
da380_iic_fun       0x1c              obj\Debug\\code\Peripherals\G_Sensor\da380.o
ROMBANK0            0x4               obj\Debug\\code\infoNES\infoNES_SRC\src\InfoNES.o
Map49_Chr7          0x4               obj\Debug\\code\infoNES\infoNES_SRC\src\InfoNES_Mapper.o
STD_AC_Y_HT         0x400             ..\..\..\libs\lib_jpeg_enc.a(Build_dynamic_huffman.o)
b_gma_tab           0x100             ..\..\..\libs\lib_imb.a(imb_module.o)
Map1_Last_Write_Addr
                    0x2               obj\Debug\\code\infoNES\infoNES_SRC\src\InfoNES_Mapper.o
Map183_Reg          0x8               obj\Debug\\code\infoNES\infoNES_SRC\src\InfoNES_Mapper.o
b_customize_drc     0x1               ..\..\..\libs\lib_isp.a(isp_customize.o)
Map21_IRQ_Cnt       0x1               obj\Debug\\code\infoNES\infoNES_SRC\src\InfoNES_Mapper.o
SP                  0x1               obj\Debug\\code\infoNES\infoNES_SRC\src\K6502.o
Map100_Prg3         0x1               obj\Debug\\code\infoNES\infoNES_SRC\src\InfoNES_Mapper.o
Map245_IRQ_Latch    0x1               obj\Debug\\code\infoNES\infoNES_SRC\src\InfoNES_Mapper.o
PPU_R0              0x1               obj\Debug\\code\infoNES\infoNES_SRC\src\InfoNES.o
ps4100_iic_fun      0x1c              ..\..\..\libs\lib_sensor.a(ps4100.o)
Map47_Chr5          0x4               obj\Debug\\code\infoNES\infoNES_SRC\src\InfoNES_Mapper.o
Map249_Spdata       0x1               obj\Debug\\code\infoNES\infoNES_SRC\src\InfoNES_Mapper.o
ROM_FourScr         0x1               obj\Debug\\code\infoNES\infoNES_SRC\src\InfoNES.o
Map49_IRQ_Cnt       0x1               obj\Debug\\code\infoNES\infoNES_SRC\src\InfoNES_Mapper.o
Map73_IRQ_Enable    0x1               obj\Debug\\code\infoNES\infoNES_SRC\src\InfoNES_Mapper.o
g_gma_tab           0x100             ..\..\..\libs\lib_imb.a(imb_module.o)
Map1_Cnt            0x4               obj\Debug\\code\infoNES\infoNES_SRC\src\InfoNES_Mapper.o
Map114_IRQ_Cnt      0x1               obj\Debug\\code\infoNES\infoNES_SRC\src\InfoNES_Mapper.o
Map116_Reg          0x8               obj\Debug\\code\infoNES\infoNES_SRC\src\InfoNES_Mapper.o
ispt_gamma_b        0x100             ..\..\..\libs\lib_isp.a(gamma.o)
SRAM                0x2000            obj\Debug\\code\infoNES\infoNES_SRC\src\InfoNES.o
ApuC1EnvPhase       0x4               obj\Debug\\code\infoNES\infoNES_SRC\src\InfoNES_pAPU.o
Map252_IRQ_Counter  0x1               obj\Debug\\code\infoNES\infoNES_SRC\src\InfoNES_Mapper.o
Map74_Chr4          0x4               obj\Debug\\code\infoNES\infoNES_SRC\src\InfoNES_Mapper.o
Map64_Cmd           0x1               obj\Debug\\code\infoNES\infoNES_SRC\src\InfoNES_Mapper.o
sc1045_pclk         0x4               ..\..\..\libs\lib_sensor.a(isp_sensor_manage.o)
VROM                0x4               obj\Debug\\code\infoNES\infoNES_SRC\src\InfoNES.o
current_path        0x200             obj\Debug\\code\FileSelecter\FileSelecter.o
g_language_mode     0x1               ..\..\..\libs\lib_font.a(font_out.o)
ispt_height         0x4               ..\..\..\libs\lib_isp.a(isp_tuning.o)
ApuC5CacheDmaLength
                    0x4               obj\Debug\\code\infoNES\infoNES_SRC\src\InfoNES_pAPU.o
Map46_Regs          0x4               obj\Debug\\code\infoNES\infoNES_SRC\src\InfoNES_Mapper.o
Map64_Prg           0x1               obj\Debug\\code\infoNES\infoNES_SRC\src\InfoNES_Mapper.o
Map249_IRQ_Latch    0x1               obj\Debug\\code\infoNES\infoNES_SRC\src\InfoNES_Mapper.o
Map117_IRQ_Enable2  0x1               obj\Debug\\code\infoNES\infoNES_SRC\src\InfoNES_Mapper.o
Map187_ExtEnable    0x1               obj\Debug\\code\infoNES\infoNES_SRC\src\InfoNES_Mapper.o
ApuCtrl             0x1               obj\Debug\\code\infoNES\infoNES_SRC\src\InfoNES_pAPU.o
Map230_RomSw        0x1               obj\Debug\\code\infoNES\infoNES_SRC\src\InfoNES_Mapper.o
Map74_IRQ_Present_Vbl
                    0x1               obj\Debug\\code\infoNES\infoNES_SRC\src\InfoNES_Mapper.o
Map26_IRQ_Cnt       0x1               obj\Debug\\code\infoNES\infoNES_SRC\src\InfoNES_Mapper.o
ApuC2EnvVol         0x1               obj\Debug\\code\infoNES\infoNES_SRC\src\InfoNES_pAPU.o
Map88_Regs          0x1               obj\Debug\\code\infoNES\infoNES_SRC\src\InfoNES_Mapper.o
ApuSamplesPerSync   0x4               obj\Debug\\code\infoNES\infoNES_SRC\src\InfoNES_pAPU.o
g_gma_tab_update_flag
                    0x1               ..\..\..\libs\lib_imb.a(imb_module.o)
Map65_IRQ_Enable    0x1               obj\Debug\\code\infoNES\infoNES_SRC\src\InfoNES_Mapper.o
Map74_IRQ_Latch     0x1               obj\Debug\\code\infoNES\infoNES_SRC\src\InfoNES_Mapper.o
Map248_Prg1         0x1               obj\Debug\\code\infoNES\infoNES_SRC\src\InfoNES_Mapper.o
MapperNo            0x1               obj\Debug\\code\infoNES\infoNES_SRC\src\InfoNES.o
ispt_gamma_g_preset
                    0x100             ..\..\..\libs\lib_isp.a(gamma.o)
gamma_polyfit       0x100             ..\..\..\libs\lib_isp.a(gamma.o)
ApuC1EnvVol         0x1               obj\Debug\\code\infoNES\infoNES_SRC\src\InfoNES_pAPU.o
p_customize_gamma   0x4               ..\..\..\libs\lib_isp.a(isp_customize.o)
Map1_HI2            0x4               obj\Debug\\code\infoNES\infoNES_SRC\src\InfoNES_Mapper.o
Map112_Chr6         0x4               obj\Debug\\code\infoNES\infoNES_SRC\src\InfoNES_Mapper.o
Map1_bank4          0x4               obj\Debug\\code\infoNES\infoNES_SRC\src\InfoNES_Mapper.o
Map100_Chr2         0x1               obj\Debug\\code\infoNES\infoNES_SRC\src\InfoNES_Mapper.o
Map115_ExChrSwitch  0x1               obj\Debug\\code\infoNES\infoNES_SRC\src\InfoNES_Mapper.o
Map119_WeSram       0x1               obj\Debug\\code\infoNES\infoNES_SRC\src\InfoNES_Mapper.o
WorkFrame           0x3c000           obj\Debug\\code\infoNES\infoNES_SRC\src\InfoNES.o
Map95_Chr5          0x4               obj\Debug\\code\infoNES\infoNES_SRC\src\InfoNES_Mapper.o
ApuC1SweepPhase     0x4               obj\Debug\\code\infoNES\infoNES_SRC\src\InfoNES_pAPU.o
Map118_Chr2         0x4               obj\Debug\\code\infoNES\infoNES_SRC\src\InfoNES_Mapper.o
p_customize_lscR    0x4               ..\..\..\libs\lib_isp.a(isp_customize.o)
PPU_Scr_H           0x1               obj\Debug\\code\infoNES\infoNES_SRC\src\InfoNES.o
FrameIRQ_Enable     0x1               obj\Debug\\code\infoNES\infoNES_SRC\src\InfoNES.o
Map248_Chr7         0x1               obj\Debug\\code\infoNES\infoNES_SRC\src\InfoNES_Mapper.o
ApuC2b              0x1               obj\Debug\\code\infoNES\infoNES_SRC\src\InfoNES_pAPU.o
g_text_width        0x2               ..\..\..\libs\lib_font.a(font_area_ctl.o)
ApuQuality          0x4               obj\Debug\\code\infoNES\infoNES_SRC\src\InfoNES_pAPU.o
PPU_Scr_H_Byte      0x1               obj\Debug\\code\infoNES\infoNES_SRC\src\InfoNES.o
DRAM                0x1               obj\Debug\\code\infoNES\infoNES_SRC\src\InfoNES_Mapper.o
Map105_Reg          0x4               obj\Debug\\code\infoNES\infoNES_SRC\src\InfoNES_Mapper.o
Map100_Chr6         0x1               obj\Debug\\code\infoNES\infoNES_SRC\src\InfoNES_Mapper.o
Map4_Chr5           0x4               obj\Debug\\code\infoNES\infoNES_SRC\src\InfoNES_Mapper.o
Map116_Chr3         0x1               obj\Debug\\code\infoNES\infoNES_SRC\src\InfoNES_Mapper.o
ApuC3CounterStarted
                    0x1               obj\Debug\\code\infoNES\infoNES_SRC\src\InfoNES_pAPU.o
g_wPassedClocks     0x2               obj\Debug\\code\infoNES\infoNES_SRC\src\K6502.o
Map90_Mirror_Type   0x1               obj\Debug\\code\infoNES\infoNES_SRC\src\InfoNES_Mapper.o
Map191_Chr2         0x1               obj\Debug\\code\infoNES\infoNES_SRC\src\InfoNES_Mapper.o
b_customize_shpnEnable
                    0x1               ..\..\..\libs\lib_isp.a(isp_customize.o)
Map4_Chr01          0x4               obj\Debug\\code\infoNES\infoNES_SRC\src\InfoNES_Mapper.o
pSTD_DC_Y_VALUES    0xc               ..\..\..\libs\lib_jpeg_enc.a(Build_dynamic_huffman.o)
Map232_Regs         0x2               obj\Debug\\code\infoNES\infoNES_SRC\src\InfoNES_Mapper.o
Map118_Chr6         0x4               obj\Debug\\code\infoNES\infoNES_SRC\src\InfoNES_Mapper.o
NMI_Wiring          0x1               obj\Debug\\code\infoNES\infoNES_SRC\src\K6502.o
Map191_Highbank     0x1               obj\Debug\\code\infoNES\infoNES_SRC\src\InfoNES_Mapper.o
Map73_IRQ_Cnt       0x4               obj\Debug\\code\infoNES\infoNES_SRC\src\InfoNES_Mapper.o
g_dbuf              0x7e900           obj\Debug\\code\start\main.o
Map51_Bank          0x4               obj\Debug\\code\infoNES\infoNES_SRC\src\InfoNES_Mapper.o
Map116_Chr7         0x1               obj\Debug\\code\infoNES\infoNES_SRC\src\InfoNES_Mapper.o
Map25_IRQ_Latch     0x1               obj\Debug\\code\infoNES\infoNES_SRC\src\InfoNES_Mapper.o
MapperPPU           0x4               obj\Debug\\code\infoNES\infoNES_SRC\src\InfoNES.o
Map119_Chr7         0x1               obj\Debug\\code\infoNES\infoNES_SRC\src\InfoNES_Mapper.o
Map18_IRQ_Cnt       0x2               obj\Debug\\code\infoNES\infoNES_SRC\src\InfoNES_Mapper.o
ispt_win_width      0x4               ..\..\..\libs\lib_isp.a(isp_tuning.o)
Map48_Regs          0x1               obj\Debug\\code\infoNES\infoNES_SRC\src\InfoNES_Mapper.o
Map83_Regs          0x3               obj\Debug\\code\infoNES\infoNES_SRC\src\InfoNES_Mapper.o
p_customize_lscB    0x4               ..\..\..\libs\lib_isp.a(isp_customize.o)
Map134_Prg          0x1               obj\Debug\\code\infoNES\infoNES_SRC\src\InfoNES_Mapper.o
gIsp0_para          0x4               ..\..\..\libs\lib_isp.a(isp_tuning.o)
Map16_Regs          0x3               obj\Debug\\code\infoNES\infoNES_SRC\src\InfoNES_Mapper.o
Map18_IRQ_Enable    0x1               obj\Debug\\code\infoNES\infoNES_SRC\src\InfoNES_Mapper.o
ApuC4c              0x1               obj\Debug\\code\infoNES\infoNES_SRC\src\InfoNES_pAPU.o
Map114_Chr4         0x4               obj\Debug\\code\infoNES\infoNES_SRC\src\InfoNES_Mapper.o
Map95_Regs          0x1               obj\Debug\\code\infoNES\infoNES_SRC\src\InfoNES_Mapper.o
i_customize_ev      0x4               ..\..\..\libs\lib_isp.a(isp_customize.o)
customize_gamma_tbl
                    0x100             ..\..\..\libs\lib_isp.a(isp_customize.o)
Map116_IRQ_Latch    0x1               obj\Debug\\code\infoNES\infoNES_SRC\src\InfoNES_Mapper.o
sys_status          0x6               obj\Debug\\code\start\mode_switch.o
sd1_port_out        0x4               ..\..\..\libs\libsd1.a(sdmmc_init.o)
H42_iic_fun         0x1c              ..\..\..\libs\lib_sensor.a(H42.o)
Map90_Prg_Bank_6000
                    0x1               obj\Debug\\code\infoNES\infoNES_SRC\src\InfoNES_Mapper.o
image               0x48              ..\..\..\libs\lib_imb.a(imb_module.o)
Map134_Chr          0x1               obj\Debug\\code\infoNES\infoNES_SRC\src\InfoNES_Mapper.o
Map65_IRQ_Latch     0x4               obj\Debug\\code\infoNES\infoNES_SRC\src\InfoNES_Mapper.o
Map109_Chrmode0     0x1               obj\Debug\\code\infoNES\infoNES_SRC\src\InfoNES_Mapper.o
Map114_IRQ_Latch    0x1               obj\Debug\\code\infoNES\infoNES_SRC\src\InfoNES_Mapper.o
MapperHSync         0x4               obj\Debug\\code\infoNES\infoNES_SRC\src\InfoNES.o
Map187_ExtMode      0x1               obj\Debug\\code\infoNES\infoNES_SRC\src\InfoNES_Mapper.o
currentDrv          0x1               obj\Debug\\code\FileSelecter\FileSelecter.o
sd1_cmd_detect      0x8               ..\..\..\libs\libsd1.a(sd_host_args.o)
p_customize_ccm3x4  0x4               ..\..\..\libs\lib_isp.a(isp_customize.o)
index_begin         0x4               obj\Debug\\code\FileSelecter\FileSelecter.o
ApuC1a              0x1               obj\Debug\\code\infoNES\infoNES_SRC\src\InfoNES_pAPU.o
Map252_IRQ_Occur    0x1               obj\Debug\\code\infoNES\infoNES_SRC\src\InfoNES_Mapper.o
Map40_Line_To_IRQ   0x4               obj\Debug\\code\infoNES\infoNES_SRC\src\InfoNES_Mapper.o
PPU_SP_Base         0x4               obj\Debug\\code\infoNES\infoNES_SRC\src\InfoNES.o
b_customize_wb      0x1               ..\..\..\libs\lib_isp.a(isp_customize.o)
i_customize_blc_gb  0x2               ..\..\..\libs\lib_isp.a(isp_customize.o)
Map134_Cmd          0x1               obj\Debug\\code\infoNES\infoNES_SRC\src\InfoNES_Mapper.o
ov9710_iic_fun      0x1c              ..\..\..\libs\lib_sensor.a(OV9710.o)
Map47_Chr4          0x4               obj\Debug\\code\infoNES\infoNES_SRC\src\InfoNES_Mapper.o
Map100_IRQ_Latch    0x1               obj\Debug\\code\infoNES\infoNES_SRC\src\InfoNES_Mapper.o
latch4              0x3               obj\Debug\\code\infoNES\infoNES_SRC\src\InfoNES_Mapper.o
pdev                0x4               ..\..\..\libs\lib_imb.a(imb_module.o)
Map1_Latch          0x1               obj\Debug\\code\infoNES\infoNES_SRC\src\InfoNES_Mapper.o
Map49_Chr23         0x4               obj\Debug\\code\infoNES\infoNES_SRC\src\InfoNES_Mapper.o
Map187_IRQ_Counter  0x1               obj\Debug\\code\infoNES\infoNES_SRC\src\InfoNES_Mapper.o
Map248_IRQ_Request  0x1               obj\Debug\\code\infoNES\infoNES_SRC\src\InfoNES_Mapper.o
isp0_sem            0x10              ..\..\..\libs\lib_isp.a(isp0_dev.o)
PPU_Scr_V_Bit_Next  0x1               obj\Debug\\code\infoNES\infoNES_SRC\src\InfoNES.o
Map189_IRQ_Enable   0x1               obj\Debug\\code\infoNES\infoNES_SRC\src\InfoNES_Mapper.o
Map110_Reg1         0x1               obj\Debug\\code\infoNES\infoNES_SRC\src\InfoNES_Mapper.o
Map83_Chr_Bank      0x4               obj\Debug\\code\infoNES\infoNES_SRC\src\InfoNES_Mapper.o
Map18_IRQ_Latch     0x2               obj\Debug\\code\infoNES\infoNES_SRC\src\InfoNES_Mapper.o
Map249_IRQ_Counter  0x1               obj\Debug\\code\infoNES\infoNES_SRC\src\InfoNES_Mapper.o
ROM_Trainer         0x1               obj\Debug\\code\infoNES\infoNES_SRC\src\InfoNES.o
ApuC3b              0x1               obj\Debug\\code\infoNES\infoNES_SRC\src\InfoNES_pAPU.o
disp0_info          0x1c              obj\Debug\\code\start\main.o
ApuC5DmaLength      0x4               obj\Debug\\code\infoNES\infoNES_SRC\src\InfoNES_pAPU.o
APU_Reg             0x18              obj\Debug\\code\infoNES\infoNES_SRC\src\InfoNES.o
ApuC5Looping        0x1               obj\Debug\\code\infoNES\infoNES_SRC\src\InfoNES_pAPU.o
tabfile             0x10              ..\..\..\libs\lib_font.a(font_out.o)
Map95_Prg0          0x4               obj\Debug\\code\infoNES\infoNES_SRC\src\InfoNES_Mapper.o
Map95_Chr23         0x4               obj\Debug\\code\infoNES\infoNES_SRC\src\InfoNES_Mapper.o
NT99140_iic_fun     0x1c              ..\..\..\libs\lib_sensor.a(NT99140.o)
PPU_Scr_H_Byte_Next
                    0x1               obj\Debug\\code\infoNES\infoNES_SRC\src\InfoNES.o
Map248_IRQ_Latch    0x1               obj\Debug\\code\infoNES\infoNES_SRC\src\InfoNES_Mapper.o
Map50_IRQ_Enable    0x1               obj\Debug\\code\infoNES\infoNES_SRC\src\InfoNES_Mapper.o
jpg_dec_nouse_buf   0x200             ..\..\..\libs\lib_jpeg_dec.a(jpeg_decode.o)
pro_file_format1    0xd               obj\Debug\\code\FileSelecter\FileSelecter.o
Map115_Chr1         0x1               obj\Debug\\code\infoNES\infoNES_SRC\src\InfoNES_Mapper.o
g_imc_target_frame  0x10              ..\..\..\libs\lib_imc.a(imc_cut.o)
Map182_IRQ_Enable   0x1               obj\Debug\\code\infoNES\infoNES_SRC\src\InfoNES_Mapper.o
PPU_Scr_H_Bit       0x1               obj\Debug\\code\infoNES\infoNES_SRC\src\InfoNES.o
Map51_Mode          0x4               obj\Debug\\code\infoNES\infoNES_SRC\src\InfoNES_Mapper.o
Map65_IRQ_Cnt       0x4               obj\Debug\\code\infoNES\infoNES_SRC\src\InfoNES_Mapper.o
Map44_IRQ_Enable    0x1               obj\Debug\\code\infoNES\infoNES_SRC\src\InfoNES_Mapper.o
ApuNoiseMagic       0x4               obj\Debug\\code\infoNES\infoNES_SRC\src\InfoNES_pAPU.o
i_customize_mdLevel
                    0x4               ..\..\..\libs\lib_isp.a(isp_customize.o)
ApuC5Address        0x2               obj\Debug\\code\infoNES\infoNES_SRC\src\InfoNES_pAPU.o
Map115_Chr5         0x1               obj\Debug\\code\infoNES\infoNES_SRC\src\InfoNES_Mapper.o
Map252_IRQ_Enable   0x1               obj\Debug\\code\infoNES\infoNES_SRC\src\InfoNES_Mapper.o
ApuC1Skip           0x4               obj\Debug\\code\infoNES\infoNES_SRC\src\InfoNES_pAPU.o
MapperInit          0x4               obj\Debug\\code\infoNES\infoNES_SRC\src\InfoNES.o
PAD1_Latch          0x4               obj\Debug\\code\infoNES\infoNES_SRC\src\InfoNES.o
Map83_IRQ_Enabled   0x1               obj\Debug\\code\infoNES\infoNES_SRC\src\InfoNES_Mapper.o
system_time         0x8               obj\Debug\\code\disp_ctrl\ui_task.o
b_customize_lsc     0x1               ..\..\..\libs\lib_isp.a(isp_customize.o)
g_need_format       0x4               obj\Debug\\code\FileSelecter\FileSelecter.o
Map116_Prg3         0x1               obj\Debug\\code\infoNES\infoNES_SRC\src\InfoNES_Mapper.o
Map187_Chr          0x20              obj\Debug\\code\infoNES\infoNES_SRC\src\InfoNES_Mapper.o
file_no_num         0x4               obj\Debug\\code\FileSelecter\FileSelecter.o
Map49_Prg1          0x4               obj\Debug\\code\infoNES\infoNES_SRC\src\InfoNES_Mapper.o
PC                  0x2               obj\Debug\\code\infoNES\infoNES_SRC\src\K6502.o
ROMBANK1            0x4               obj\Debug\\code\infoNES\infoNES_SRC\src\InfoNES.o
Map245_Chr6         0x1               obj\Debug\\code\infoNES\infoNES_SRC\src\InfoNES_Mapper.o
r_gma_tab           0x100             ..\..\..\libs\lib_imb.a(imb_module.o)
Map115_Prg0         0x1               obj\Debug\\code\infoNES\infoNES_SRC\src\InfoNES_Mapper.o
Map245_IRQ_Request  0x1               obj\Debug\\code\infoNES\infoNES_SRC\src\InfoNES_Mapper.o
Map90_Prg_Bank_E000
                    0x1               obj\Debug\\code\infoNES\infoNES_SRC\src\InfoNES_Mapper.o
Map4_Chr23          0x4               obj\Debug\\code\infoNES\infoNES_SRC\src\InfoNES_Mapper.o
Map109_Chr2         0x1               obj\Debug\\code\infoNES\infoNES_SRC\src\InfoNES_Mapper.o
Map49_Chr6          0x4               obj\Debug\\code\infoNES\infoNES_SRC\src\InfoNES_Mapper.o
Map49_Chr01         0x4               obj\Debug\\code\infoNES\infoNES_SRC\src\InfoNES_Mapper.o
PPUBANK             0x40              obj\Debug\\code\infoNES\infoNES_SRC\src\InfoNES.o
g_ladc_var          0x80              ..\..\..\libs\lib_audio.a(ladc.o)
Map44_Chr7          0x4               obj\Debug\\code\infoNES\infoNES_SRC\src\InfoNES_Mapper.o
PPU_Temp            0x2               obj\Debug\\code\infoNES\infoNES_SRC\src\InfoNES.o
Map100_Prg2         0x1               obj\Debug\\code\infoNES\infoNES_SRC\src\InfoNES_Mapper.o
g_dsc1_hdl          0x4               obj\Debug\\code\start\main.o
screen_y_scale      0x1               ..\..\..\libs\lib_uicon.a(dc_showres.o)
PPU_R3              0x1               obj\Debug\\code\infoNES\infoNES_SRC\src\InfoNES.o
Map4_IRQ_Cnt        0x1               obj\Debug\\code\infoNES\infoNES_SRC\src\InfoNES_Mapper.o
screen_x_scale      0x1               ..\..\..\libs\lib_uicon.a(dc_showres.o)
ApuC2EnvPhase       0x4               obj\Debug\\code\infoNES\infoNES_SRC\src\InfoNES_pAPU.o
callback_drv_onoff  0x4               obj\Debug\\code\FileSelecter\FileSelecter.o
Map248_IRQ_Counter  0x1               obj\Debug\\code\infoNES\infoNES_SRC\src\InfoNES_Mapper.o
Map105_IRQ_Enable   0x1               obj\Debug\\code\infoNES\infoNES_SRC\src\InfoNES_Mapper.o
vfs_fs_adapter      0x8               obj\Debug\\code\FileSelecter\FileSelecter.o
Map26_IRQ_Enable    0x1               obj\Debug\\code\infoNES\infoNES_SRC\src\InfoNES_Mapper.o
delay_cnt           0x4               obj\Debug\\code\common\common.o
NMI_State           0x1               obj\Debug\\code\infoNES\infoNES_SRC\src\K6502.o
ispt_width          0x4               ..\..\..\libs\lib_isp.a(isp_tuning.o)
PPU_SP_Height       0x2               obj\Debug\\code\infoNES\infoNES_SRC\src\InfoNES.o
PAD1_Bit            0x4               obj\Debug\\code\infoNES\infoNES_SRC\src\InfoNES.o
Map95_Chr01         0x4               obj\Debug\\code\infoNES\infoNES_SRC\src\InfoNES_Mapper.o
Map115_IRQ_Enable   0x1               obj\Debug\\code\infoNES\infoNES_SRC\src\InfoNES_Mapper.o
ApuC4Index          0x4               obj\Debug\\code\infoNES\infoNES_SRC\src\InfoNES_pAPU.o
Map74_Chr5          0x4               obj\Debug\\code\infoNES\infoNES_SRC\src\InfoNES_Mapper.o
dsc1_small_ptr      0x4               obj\Debug\\code\start\main.o
MapperWrite         0x4               obj\Debug\\code\infoNES\infoNES_SRC\src\InfoNES.o
p_isp1_sen_con      0x4               ..\..\..\libs\lib_isp.a(isp1_dev.o)
PPU_R7              0x1               obj\Debug\\code\infoNES\infoNES_SRC\src\InfoNES.o
Map1_Size           0x4               obj\Debug\\code\infoNES\infoNES_SRC\src\InfoNES_Mapper.o
i_customize_ev2     0x4               ..\..\..\libs\lib_isp.a(isp_customize.o)
PPU_Scr_H_Next      0x1               obj\Debug\\code\infoNES\infoNES_SRC\src\InfoNES.o
ApuC5CurByte        0x1               obj\Debug\\code\infoNES\infoNES_SRC\src\InfoNES_pAPU.o
Map119_IRQ_Latch    0x1               obj\Debug\\code\infoNES\infoNES_SRC\src\InfoNES_Mapper.o
Map42_IRQ_Enable    0x1               obj\Debug\\code\infoNES\infoNES_SRC\src\InfoNES_Mapper.o
Map1_bank1          0x4               obj\Debug\\code\infoNES\infoNES_SRC\src\InfoNES_Mapper.o
entertime           0x2               obj\Debug\\code\infoNES\infoNES_SRC\src\InfoNES_pAPU.o
Map25_VBank         0x10              obj\Debug\\code\infoNES\infoNES_SRC\src\InfoNES_Mapper.o
Map160_IRQ_Cnt      0x1               obj\Debug\\code\infoNES\infoNES_SRC\src\InfoNES_Mapper.o
Map112_IRQ_Latch    0x1               obj\Debug\\code\infoNES\infoNES_SRC\src\InfoNES_Mapper.o
Map23_IRQ_Enable    0x1               obj\Debug\\code\infoNES\infoNES_SRC\src\InfoNES_Mapper.o
Map100_Reg          0x8               obj\Debug\\code\infoNES\infoNES_SRC\src\InfoNES_Mapper.o
ApuC1d              0x1               obj\Debug\\code\infoNES\infoNES_SRC\src\InfoNES_pAPU.o
OSTime              0x4               ..\..\..\libs\librtos.a(os_core.o)
Map105_IRQ_Counter  0x4               obj\Debug\\code\infoNES\infoNES_SRC\src\InfoNES_Mapper.o
current_video_dir   0xd               obj\Debug\\code\FileSelecter\FileSelecter.o
Map21_Regs          0xa               obj\Debug\\code\infoNES\infoNES_SRC\src\InfoNES_Mapper.o
ApuC4Fdc            0x4               obj\Debug\\code\infoNES\infoNES_SRC\src\InfoNES_pAPU.o
gc1004_iic_fun      0x1c              ..\..\..\libs\lib_sensor.a(GC1004.o)
Map117_IRQ_Enable1  0x1               obj\Debug\\code\infoNES\infoNES_SRC\src\InfoNES_Mapper.o
Map245_IRQ_Enable   0x1               obj\Debug\\code\infoNES\infoNES_SRC\src\InfoNES_Mapper.o
index_end           0x4               obj\Debug\\code\FileSelecter\FileSelecter.o
i_customize_evMode  0x4               ..\..\..\libs\lib_isp.a(isp_customize.o)
SRAMBANK            0x4               obj\Debug\\code\infoNES\infoNES_SRC\src\InfoNES.o
ChrBufUpdate        0x1               obj\Debug\\code\infoNES\infoNES_SRC\src\InfoNES.o
ispt_gamma_b_preset
                    0x100             ..\..\..\libs\lib_isp.a(gamma.o)
Map115_Prg1L        0x1               obj\Debug\\code\infoNES\infoNES_SRC\src\InfoNES_Mapper.o
Map251_Breg         0x4               obj\Debug\\code\infoNES\infoNES_SRC\src\InfoNES_Mapper.o
dsc1_half_ptr       0x4               obj\Debug\\code\start\main.o
Map4_Rom_Bank       0x4               obj\Debug\\code\infoNES\infoNES_SRC\src\InfoNES_Mapper.o
Map112_Chr5         0x4               obj\Debug\\code\infoNES\infoNES_SRC\src\InfoNES_Mapper.o
Map248_Prg0         0x1               obj\Debug\\code\infoNES\infoNES_SRC\src\InfoNES_Mapper.o
ascfont             0x4               ..\..\..\libs\lib_font.a(font_out.o)
Map135_Chrch        0x1               obj\Debug\\code\infoNES\infoNES_SRC\src\InfoNES_Mapper.o
stk8312_iic_fun     0x1c              obj\Debug\\code\Peripherals\G_Sensor\stk8312.o
NesHeader           0x10              obj\Debug\\code\infoNES\infoNES_SRC\src\InfoNES.o
menu_var            0x10              ..\..\..\libs\lib_uicon.a(ui_menu.o)
ApuC2a              0x1               obj\Debug\\code\infoNES\infoNES_SRC\src\InfoNES_pAPU.o
cur_video_name      0x80              obj\Debug\\code\FileSelecter\FileSelecter.o
ApuEventQueue       0x1f40            obj\Debug\\code\infoNES\infoNES_SRC\src\InfoNES_pAPU.o
Map245_Prg1         0x1               obj\Debug\\code\infoNES\infoNES_SRC\src\InfoNES_Mapper.o
byVramWriteEnable   0x1               obj\Debug\\code\infoNES\infoNES_SRC\src\InfoNES.o
Map74_IRQ_Cnt       0x1               obj\Debug\\code\infoNES\infoNES_SRC\src\InfoNES_Mapper.o
Map188_Dummy        0x2000            obj\Debug\\code\infoNES\infoNES_SRC\src\InfoNES_Mapper.o
PPU_Scr_V_Next      0x1               obj\Debug\\code\infoNES\infoNES_SRC\src\InfoNES.o
MapperApu           0x4               obj\Debug\\code\infoNES\infoNES_SRC\src\InfoNES.o
Map248_Chr6         0x1               obj\Debug\\code\infoNES\infoNES_SRC\src\InfoNES_Mapper.o
font_putchar        0x4               ..\..\..\libs\lib_font.a(font_out.o)
Map100_Chr1         0x1               obj\Debug\\code\infoNES\infoNES_SRC\src\InfoNES_Mapper.o
sd1_det_func        0x4               ..\..\..\libs\libsd1.a(mango_dev_sd1.o)
i_customize_nrLevel
                    0x4               ..\..\..\libs\lib_isp.a(isp_customize.o)
Map49_Regs          0x3               obj\Debug\\code\infoNES\infoNES_SRC\src\InfoNES_Mapper.o
Map4_IRQ_Latch      0x1               obj\Debug\\code\infoNES\infoNES_SRC\src\InfoNES_Mapper.o
Map100_Chr5         0x1               obj\Debug\\code\infoNES\infoNES_SRC\src\InfoNES_Mapper.o
Map116_Chr2         0x1               obj\Debug\\code\infoNES\infoNES_SRC\src\InfoNES_Mapper.o
Map118_Chr3         0x4               obj\Debug\\code\infoNES\infoNES_SRC\src\InfoNES_Mapper.o
Map4_Regs           0x8               obj\Debug\\code\infoNES\infoNES_SRC\src\InfoNES_Mapper.o
Map248_Chr23        0x1               obj\Debug\\code\infoNES\infoNES_SRC\src\InfoNES_Mapper.o
Map119_Chr6         0x1               obj\Debug\\code\infoNES\infoNES_SRC\src\InfoNES_Mapper.o
Map191_Chr1         0x1               obj\Debug\\code\infoNES\infoNES_SRC\src\InfoNES_Mapper.o
SPRRAM              0x100             obj\Debug\\code\infoNES\infoNES_SRC\src\InfoNES.o
Map160_Refresh_Type
                    0x1               obj\Debug\\code\infoNES\infoNES_SRC\src\InfoNES_Mapper.o
UVac_values_cnt     0x28c             ..\..\..\libs\lib_jpeg_enc.a(Build_dynamic_huffman.o)
Map112_Chr23        0x4               obj\Debug\\code\infoNES\infoNES_SRC\src\InfoNES_Mapper.o
Map245_Chr01        0x1               obj\Debug\\code\infoNES\infoNES_SRC\src\InfoNES_Mapper.o
Map74_Prg0          0x4               obj\Debug\\code\infoNES\infoNES_SRC\src\InfoNES_Mapper.o
Map4_Chr4           0x4               obj\Debug\\code\infoNES\infoNES_SRC\src\InfoNES_Mapper.o
Map118_Chr7         0x4               obj\Debug\\code\infoNES\infoNES_SRC\src\InfoNES_Mapper.o
rec_file_format1    0xd               obj\Debug\\code\FileSelecter\FileSelecter.o
ApuC4b              0x1               obj\Debug\\code\infoNES\infoNES_SRC\src\InfoNES_pAPU.o
ApuC4Skip           0x4               obj\Debug\\code\infoNES\infoNES_SRC\src\InfoNES_pAPU.o
Map116_Chr6         0x1               obj\Debug\\code\infoNES\infoNES_SRC\src\InfoNES_Mapper.o
text_flags          0x1               ..\..\..\libs\lib_uicon.a(ui_time1.o)
mask                0x10              ..\..\..\libs\lib_imb.a(imb_module.o)
i_customize_shpnThreshold
                    0x1               ..\..\..\libs\lib_isp.a(isp_customize.o)
Map114_Chr5         0x4               obj\Debug\\code\infoNES\infoNES_SRC\src\InfoNES_Mapper.o
ApuC5DpcmValue      0x1               obj\Debug\\code\infoNES\infoNES_SRC\src\InfoNES_pAPU.o
jpeg_dec_fend       0x1               ..\..\..\libs\lib_jpeg_dec.a(jpeg_dec_isr.o)
Map234_Reg          0x2               obj\Debug\\code\infoNES\infoNES_SRC\src\InfoNES_Mapper.o
Map112_Prg1         0x4               obj\Debug\\code\infoNES\infoNES_SRC\src\InfoNES_Mapper.o
LCD_MODE            0x2               obj\Debug\\code\disp_ctrl\lcd.o
g_imc_rep           0xc               ..\..\..\libs\lib_imc.a(imc_rep.o)
Map90_Prg_Bank_Size
                    0x1               obj\Debug\\code\infoNES\infoNES_SRC\src\InfoNES_Mapper.o
Map119_IRQ_Counter  0x1               obj\Debug\\code\infoNES\infoNES_SRC\src\InfoNES_Mapper.o
PPU_Latch_Flag      0x1               obj\Debug\\code\infoNES\infoNES_SRC\src\InfoNES.o
Map115_Prg0L        0x1               obj\Debug\\code\infoNES\infoNES_SRC\src\InfoNES_Mapper.o
Map24_IRQ_State     0x1               obj\Debug\\code\infoNES\infoNES_SRC\src\InfoNES_Mapper.o
wave_buffers        0xe5b             obj\Debug\\code\infoNES\infoNES_SRC\src\InfoNES_pAPU.o
Map187_ChrMode      0x1               obj\Debug\\code\infoNES\infoNES_SRC\src\InfoNES_Mapper.o
Map248_Reg          0x8               obj\Debug\\code\infoNES\infoNES_SRC\src\InfoNES_Mapper.o
Map119_Prg1         0x1               obj\Debug\\code\infoNES\infoNES_SRC\src\InfoNES_Mapper.o
Map41_Regs          0x2               obj\Debug\\code\infoNES\infoNES_SRC\src\InfoNES_Mapper.o
ApuC2Freq           0x4               obj\Debug\\code\infoNES\infoNES_SRC\src\InfoNES_pAPU.o
OSRunning           0x1               ..\..\..\libs\librtos.a(os_core.o)
Map1_256K_base      0x4               obj\Debug\\code\infoNES\infoNES_SRC\src\InfoNES_Mapper.o
LCDBuff             0x400             obj\Debug\\code\tft_panel\ILI9325.o
OSTCBHighRdy        0x4               ..\..\..\libs\librtos.a(os_core.o)
Map118_IRQ_Cnt      0x1               obj\Debug\\code\infoNES\infoNES_SRC\src\InfoNES_Mapper.o
video_index_begin   0x4               obj\Debug\\code\FileSelecter\pb_fctrl.o
pSTD_DC_UV_VALUES   0xc               ..\..\..\libs\lib_jpeg_enc.a(Build_dynamic_huffman.o)
Map243_Regs         0x4               obj\Debug\\code\infoNES\infoNES_SRC\src\InfoNES_Mapper.o
Map116_Prg0L        0x1               obj\Debug\\code\infoNES\infoNES_SRC\src\InfoNES_Mapper.o
today_path          0x9               obj\Debug\\code\FileSelecter\FileSelecter.o
Map95_Chr6          0x4               obj\Debug\\code\infoNES\infoNES_SRC\src\InfoNES_Mapper.o
Map57_Reg           0x1               obj\Debug\\code\infoNES\infoNES_SRC\src\InfoNES_Mapper.o
gm7150_iic_fun      0x1c              ..\..\..\libs\lib_sensor.a(gm7150.o)
Map43_IRQ_Enable    0x1               obj\Debug\\code\infoNES\infoNES_SRC\src\InfoNES_Mapper.o
Map119_IRQ_Enable   0x1               obj\Debug\\code\infoNES\infoNES_SRC\src\InfoNES_Mapper.o
img_tmp             0x4               ..\..\..\libs\lib_imb.a(imb_module.o)
ispt_win_height     0x4               ..\..\..\libs\lib_isp.a(isp_tuning.o)
PAD_System          0x4               obj\Debug\\code\infoNES\infoNES_SRC\src\InfoNES.o
ApuC3a              0x1               obj\Debug\\code\infoNES\infoNES_SRC\src\InfoNES_pAPU.o
Map49_Chr5          0x4               obj\Debug\\code\infoNES\infoNES_SRC\src\InfoNES_Mapper.o
latch1              0x3               obj\Debug\\code\infoNES\infoNES_SRC\src\InfoNES_Mapper.o
ApuC1Freq           0x4               obj\Debug\\code\infoNES\infoNES_SRC\src\InfoNES_pAPU.o
X                   0x1               obj\Debug\\code\infoNES\infoNES_SRC\src\K6502.o
Map187_IRQ_Occur    0x1               obj\Debug\\code\infoNES\infoNES_SRC\src\InfoNES_Mapper.o
PPU_NameTableBank   0x1               obj\Debug\\code\infoNES\infoNES_SRC\src\InfoNES.o
ApuC3WriteLatency   0x1               obj\Debug\\code\infoNES\infoNES_SRC\src\InfoNES_pAPU.o
Map43_IRQ_Cnt       0x4               obj\Debug\\code\infoNES\infoNES_SRC\src\InfoNES_Mapper.o
Map67_IRQ_Enable    0x1               obj\Debug\\code\infoNES\infoNES_SRC\src\InfoNES_Mapper.o
g_amplify           0x1               ..\..\..\libs\lib_font.a(font_area_ctl.o)
Map105_Write_Count  0x1               obj\Debug\\code\infoNES\infoNES_SRC\src\InfoNES_Mapper.o
dsc1_all_ptr        0x4               obj\Debug\\code\start\main.o
g_ldet_info         0x24              obj\Debug\\code\start\main.o
ApuCycleRate        0x4               obj\Debug\\code\infoNES\infoNES_SRC\src\InfoNES_pAPU.o
Map115_Chr0         0x1               obj\Debug\\code\infoNES\infoNES_SRC\src\InfoNES_Mapper.o
g_RORTable          0x400             obj\Debug\\code\infoNES\infoNES_SRC\src\K6502.o
Map118_IRQ_Latch    0x1               obj\Debug\\code\infoNES\infoNES_SRC\src\InfoNES_Mapper.o
Map33_Regs          0x8               obj\Debug\\code\infoNES\infoNES_SRC\src\InfoNES_Mapper.o
Map95_Prg1          0x4               obj\Debug\\code\infoNES\infoNES_SRC\src\InfoNES_Mapper.o
Map245_WeSram       0x1               obj\Debug\\code\infoNES\infoNES_SRC\src\InfoNES_Mapper.o
STD_DC_Y_HT         0x30              ..\..\..\libs\lib_jpeg_enc.a(Build_dynamic_huffman.o)
pixBuf              0x64              ..\..\..\libs\lib_font.a(font_gbk.o)
Map189_IRQ_Latch    0x1               obj\Debug\\code\infoNES\infoNES_SRC\src\InfoNES_Mapper.o
gravity_sen_dev_cur
                    0x1               obj\Debug\\code\Peripherals\G_Sensor\gravity_sensor_manage.o
Map115_Chr4         0x1               obj\Debug\\code\infoNES\infoNES_SRC\src\InfoNES_Mapper.o
Map1_Regs           0x4               obj\Debug\\code\infoNES\infoNES_SRC\src\InfoNES_Mapper.o
Map44_Prg1          0x4               obj\Debug\\code\infoNES\infoNES_SRC\src\InfoNES_Mapper.o
Map160_IRQ_Enable   0x1               obj\Debug\\code\infoNES\infoNES_SRC\src\InfoNES_Mapper.o
e_customize_wb      0x4               ..\..\..\libs\lib_isp.a(isp_customize.o)
Map90_Mirror_Mode   0x1               obj\Debug\\code\infoNES\infoNES_SRC\src\InfoNES_Mapper.o
STD_AC_UV_HT        0x400             ..\..\..\libs\lib_jpeg_enc.a(Build_dynamic_huffman.o)
ROM_Mirroring       0x1               obj\Debug\\code\infoNES\infoNES_SRC\src\InfoNES.o
Map249_Reg          0x8               obj\Debug\\code\infoNES\infoNES_SRC\src\InfoNES_Mapper.o
b_customize_blc     0x1               ..\..\..\libs\lib_isp.a(isp_customize.o)
Map49_Prg0          0x4               obj\Debug\\code\infoNES\infoNES_SRC\src\InfoNES_Mapper.o
font                0x4               ..\..\..\libs\lib_font.a(font_out.o)
Map112_IRQ_Enable   0x1               obj\Debug\\code\infoNES\infoNES_SRC\src\InfoNES_Mapper.o
Map112_Regs         0x8               obj\Debug\\code\infoNES\infoNES_SRC\src\InfoNES_Mapper.o
Map116_Prg2         0x1               obj\Debug\\code\infoNES\infoNES_SRC\src\InfoNES_Mapper.o
Map245_Chr23        0x1               obj\Debug\\code\infoNES\infoNES_SRC\src\InfoNES_Mapper.o
Map74_IRQ_Request   0x1               obj\Debug\\code\infoNES\infoNES_SRC\src\InfoNES_Mapper.o
ChrBuf              0x8000            obj\Debug\\code\infoNES\infoNES_SRC\src\InfoNES.o
b_gma_tab_update_flag
                    0x1               ..\..\..\libs\lib_imb.a(imb_module.o)
Map249_IRQ_Request  0x1               obj\Debug\\code\infoNES\infoNES_SRC\src\InfoNES_Mapper.o
Map33_IRQ_Enable    0x1               obj\Debug\\code\infoNES\infoNES_SRC\src\InfoNES_Mapper.o
ApuC2d              0x1               obj\Debug\\code\infoNES\infoNES_SRC\src\InfoNES_pAPU.o
ApuC5Enable         0x1               obj\Debug\\code\infoNES\infoNES_SRC\src\InfoNES_pAPU.o
fontinfo            0x3c              ..\..\..\libs\lib_font.a(font_gbk.o)
dyh_ctrl_sem        0x10              ..\..\..\libs\lib_jpeg_enc.a(Build_dynamic_huffman.o)
Map245_IRQ_Counter  0x1               obj\Debug\\code\infoNES\infoNES_SRC\src\InfoNES_Mapper.o
ApuC3Atl            0x1               obj\Debug\\code\infoNES\infoNES_SRC\src\InfoNES_pAPU.o
video_path          0x7d              obj\Debug\\code\FileSelecter\FileSelecter.o
ROMBANK2            0x4               obj\Debug\\code\infoNES\infoNES_SRC\src\InfoNES.o
Map1_swap           0x4               obj\Debug\\code\infoNES\infoNES_SRC\src\InfoNES_Mapper.o
Map109_Chr1         0x1               obj\Debug\\code\infoNES\infoNES_SRC\src\InfoNES_Mapper.o
Map118_Regs         0x8               obj\Debug\\code\infoNES\infoNES_SRC\src\InfoNES_Mapper.o
g_dsc0_hdl          0x4               obj\Debug\\code\start\main.o
PPU_R2              0x1               obj\Debug\\code\infoNES\infoNES_SRC\src\InfoNES.o
Map47_Chr7          0x4               obj\Debug\\code\infoNES\infoNES_SRC\src\InfoNES_Mapper.o
text_pos            0x4               ..\..\..\libs\lib_uicon.a(ui_text.o)
Map74_IRQ_Present   0x1               obj\Debug\\code\infoNES\infoNES_SRC\src\InfoNES_Mapper.o
Map115_Prg3         0x1               obj\Debug\\code\infoNES\infoNES_SRC\src\InfoNES_Mapper.o
Map100_Prg1         0x1               obj\Debug\\code\infoNES\infoNES_SRC\src\InfoNES_Mapper.o
sys_info            0x1c              obj\Debug\\code\disp_ctrl\my_ui1.o
Map135_Chr1h        0x1               obj\Debug\\code\infoNES\infoNES_SRC\src\InfoNES_Mapper.o
Map47_IRQ_Enable    0x1               obj\Debug\\code\infoNES\infoNES_SRC\src\InfoNES_Mapper.o
FrameSkip           0x2               obj\Debug\\code\infoNES\infoNES_SRC\src\InfoNES.o
Map135_Chr1l        0x1               obj\Debug\\code\infoNES\infoNES_SRC\src\InfoNES_Mapper.o
Map44_Chr6          0x4               obj\Debug\\code\infoNES\infoNES_SRC\src\InfoNES_Mapper.o
Map33_IRQ_Cnt       0x1               obj\Debug\\code\infoNES\infoNES_SRC\src\InfoNES_Mapper.o
Map245_Chr7         0x1               obj\Debug\\code\infoNES\infoNES_SRC\src\InfoNES_Mapper.o
Map90_IRQ_Latch     0x1               obj\Debug\\code\infoNES\infoNES_SRC\src\InfoNES_Mapper.o
Map74_Chr6          0x4               obj\Debug\\code\infoNES\infoNES_SRC\src\InfoNES_Mapper.o
Map47_Prg0          0x4               obj\Debug\\code\infoNES\infoNES_SRC\src\InfoNES_Mapper.o
PPU_Scr_V           0x1               obj\Debug\\code\infoNES\infoNES_SRC\src\InfoNES.o
Map47_Regs          0x8               obj\Debug\\code\infoNES\infoNES_SRC\src\InfoNES_Mapper.o
Map82_Regs          0x1               obj\Debug\\code\infoNES\infoNES_SRC\src\InfoNES_Mapper.o
Map17_IRQ_Latch     0x4               obj\Debug\\code\infoNES\infoNES_SRC\src\InfoNES_Mapper.o
ves_mux             0x10              ..\..\..\libs\lib_ves.a(ves.o)
Map116_IRQ_Enable   0x1               obj\Debug\\code\infoNES\infoNES_SRC\src\InfoNES_Mapper.o
pb_fctrl            0x28              obj\Debug\\code\FileSelecter\pb_fctrl.o
Map75_Regs          0x2               obj\Debug\\code\infoNES\infoNES_SRC\src\InfoNES_Mapper.o
pic_file_format     0xd               obj\Debug\\code\FileSelecter\FileSelecter.o
Map33_Switch        0x1               obj\Debug\\code\infoNES\infoNES_SRC\src\InfoNES_Mapper.o
i_customize_satuY   0x2               ..\..\..\libs\lib_isp.a(isp_customize.o)
Map47_Chr01         0x4               obj\Debug\\code\infoNES\infoNES_SRC\src\InfoNES_Mapper.o
Map49_IRQ_Enable    0x1               obj\Debug\\code\infoNES\infoNES_SRC\src\InfoNES_Mapper.o
PPU_Scr_V_Byte_Next
                    0x1               obj\Debug\\code\infoNES\infoNES_SRC\src\InfoNES.o
ApuC1c              0x1               obj\Debug\\code\infoNES\infoNES_SRC\src\InfoNES_pAPU.o
MapperReadApu       0x4               obj\Debug\\code\infoNES\infoNES_SRC\src\InfoNES.o
Map16_IRQ_Enable    0x1               obj\Debug\\code\infoNES\infoNES_SRC\src\InfoNES_Mapper.o
Map24_IRQ_Latch     0x1               obj\Debug\\code\infoNES\infoNES_SRC\src\InfoNES_Mapper.o
Map1_bank2          0x4               obj\Debug\\code\infoNES\infoNES_SRC\src\InfoNES_Mapper.o
Map187_Bank         0x8               obj\Debug\\code\infoNES\infoNES_SRC\src\InfoNES_Mapper.o
Map252_IRQ_Latch    0x1               obj\Debug\\code\infoNES\infoNES_SRC\src\InfoNES_Mapper.o
Map74_Rom_Bank      0x4               obj\Debug\\code\infoNES\infoNES_SRC\src\InfoNES_Mapper.o
pSTD_AC_Y_VALUES    0xa2              ..\..\..\libs\lib_jpeg_enc.a(Build_dynamic_huffman.o)
isp0_reg            0x4aa             ..\..\..\libs\lib_isp.a(isp0_dev.o)
Map185_Dummy_Chr_Rom
                    0x400             obj\Debug\\code\infoNES\infoNES_SRC\src\InfoNES_Mapper.o
Map248_IRQ_Enable   0x1               obj\Debug\\code\infoNES\infoNES_SRC\src\InfoNES_Mapper.o
Map248_Chr5         0x1               obj\Debug\\code\infoNES\infoNES_SRC\src\InfoNES_Mapper.o
Map90_Chr_High_Reg  0x8               obj\Debug\\code\infoNES\infoNES_SRC\src\InfoNES_Mapper.o
Map4_IRQ_Present    0x1               obj\Debug\\code\infoNES\infoNES_SRC\src\InfoNES_Mapper.o
uart_clk_src        0x4               obj\Debug\\code\start\main.o
Map191_Chr0         0x1               obj\Debug\\code\infoNES\infoNES_SRC\src\InfoNES_Mapper.o
Map112_Chr4         0x4               obj\Debug\\code\infoNES\infoNES_SRC\src\InfoNES_Mapper.o
Map105_Init_State   0x1               obj\Debug\\code\infoNES\infoNES_SRC\src\InfoNES_Mapper.o
g_pFunEnterRW       0x4               ..\..\..\libs\lib_vfs.a(dev_Cache.o)
Map17_IRQ_Cnt       0x4               obj\Debug\\code\infoNES\infoNES_SRC\src\InfoNES_Mapper.o
g_pFunLeaveRW       0x4               ..\..\..\libs\lib_vfs.a(dev_Cache.o)
MapperRenderScreen  0x4               obj\Debug\\code\infoNES\infoNES_SRC\src\InfoNES.o
devHandle           0x4               obj\Debug\\code\FileSelecter\FileSelecter.o
Map189_IRQ_Cnt      0x1               obj\Debug\\code\infoNES\infoNES_SRC\src\InfoNES_Mapper.o
Map182_Regs         0x1               obj\Debug\\code\infoNES\infoNES_SRC\src\InfoNES_Mapper.o
Map21_IRQ_Enable    0x1               obj\Debug\\code\infoNES\infoNES_SRC\src\InfoNES_Mapper.o
video_index_end     0x4               obj\Debug\\code\FileSelecter\pb_fctrl.o
Map245_Prg0         0x1               obj\Debug\\code\infoNES\infoNES_SRC\src\InfoNES_Mapper.o
g_jpg_fd            0x170             ..\..\..\libs\lib_jpeg_enc.a(jpeg_encode_init.o)
Map100_Chr0         0x1               obj\Debug\\code\infoNES\infoNES_SRC\src\InfoNES_Mapper.o
Map24_IRQ_Count     0x1               obj\Debug\\code\infoNES\infoNES_SRC\src\InfoNES_Mapper.o
Map100_Chr4         0x1               obj\Debug\\code\infoNES\infoNES_SRC\src\InfoNES_Mapper.o
Map118_Chr0         0x4               obj\Debug\\code\infoNES\infoNES_SRC\src\InfoNES_Mapper.o
Map116_Chr1         0x1               obj\Debug\\code\infoNES\infoNES_SRC\src\InfoNES_Mapper.o
g_text_heigth       0x2               ..\..\..\libs\lib_font.a(font_area_ctl.o)
ApuC4EnvPhase       0x4               obj\Debug\\code\infoNES\infoNES_SRC\src\InfoNES_pAPU.o
Map119_Chr5         0x1               obj\Debug\\code\infoNES\infoNES_SRC\src\InfoNES_Mapper.o
FrameCnt            0x2               obj\Debug\\code\infoNES\infoNES_SRC\src\InfoNES.o
ApuC2Wave           0x4               obj\Debug\\code\infoNES\infoNES_SRC\src\InfoNES_pAPU.o
Map105_Bits         0x1               obj\Debug\\code\infoNES\infoNES_SRC\src\InfoNES_Mapper.o
g_LSRTable          0x200             obj\Debug\\code\infoNES\infoNES_SRC\src\K6502.o
Map118_Chr4         0x4               obj\Debug\\code\infoNES\infoNES_SRC\src\InfoNES_Mapper.o
Map74_IRQ_Enable    0x1               obj\Debug\\code\infoNES\infoNES_SRC\src\InfoNES_Mapper.o
Map49_IRQ_Latch     0x1               obj\Debug\\code\infoNES\infoNES_SRC\src\InfoNES_Mapper.o
Map74_Prg1          0x4               obj\Debug\\code\infoNES\infoNES_SRC\src\InfoNES_Mapper.o
g_av_in             0x10              obj\Debug\\code\start\enc_mode.o
A                   0x1               obj\Debug\\code\infoNES\infoNES_SRC\src\K6502.o
Map4_Chr7           0x4               obj\Debug\\code\infoNES\infoNES_SRC\src\InfoNES_Mapper.o
Map23_Regs          0x9               obj\Debug\\code\infoNES\infoNES_SRC\src\InfoNES_Mapper.o
Map44_Chr23         0x4               obj\Debug\\code\infoNES\infoNES_SRC\src\InfoNES_Mapper.o
Map4_IRQ_Present_Vbl
                    0x1               obj\Debug\\code\infoNES\infoNES_SRC\src\InfoNES_Mapper.o
Map116_Chr5         0x1               obj\Debug\\code\infoNES\infoNES_SRC\src\InfoNES_Mapper.o
i_customize_lscX    0x2               ..\..\..\libs\lib_isp.a(isp_customize.o)
dec_ctrl            0x1c              obj\Debug\\code\start\dec_mode.o
sd1_host_var        0x40              ..\..\..\libs\libsd1.a(sd_host_status.o)
Map191_Prg1         0x1               obj\Debug\\code\infoNES\infoNES_SRC\src\InfoNES_Mapper.o
Map118_Prg1         0x4               obj\Debug\\code\infoNES\infoNES_SRC\src\InfoNES_Mapper.o
Map114_Prg1         0x4               obj\Debug\\code\infoNES\infoNES_SRC\src\InfoNES_Mapper.o
Map112_Prg0         0x4               obj\Debug\\code\infoNES\infoNES_SRC\src\InfoNES_Mapper.o
Map114_Chr6         0x4               obj\Debug\\code\infoNES\infoNES_SRC\src\InfoNES_Mapper.o
first_video_dir_index
                    0x4               obj\Debug\\code\FileSelecter\FileSelecter.o
i_customize_wb_r    0x2               ..\..\..\libs\lib_isp.a(isp_customize.o)
NT99143_iic_fun     0x1c              ..\..\..\libs\lib_sensor.a(NT99143.o)
OSRdyTbl            0x4               ..\..\..\libs\librtos.a(os_core.o)
Map116_ExChrSwitch  0x1               obj\Debug\\code\infoNES\infoNES_SRC\src\InfoNES_Mapper.o
ApuCtrlNew          0x1               obj\Debug\\code\infoNES\infoNES_SRC\src\InfoNES_pAPU.o
ROM_SRAM            0x1               obj\Debug\\code\infoNES\infoNES_SRC\src\InfoNES.o
ApuC2Index          0x4               obj\Debug\\code\infoNES\infoNES_SRC\src\InfoNES_pAPU.o
Map90_Nam_Low_Reg   0x4               obj\Debug\\code\infoNES\infoNES_SRC\src\InfoNES_Mapper.o
current_index1      0x4               obj\Debug\\code\FileSelecter\FileSelecter.o
Yac_values_cnt      0x28c             ..\..\..\libs\lib_jpeg_enc.a(Build_dynamic_huffman.o)
g_isp_buf           0x10              ..\..\..\libs\lib_imc.a(imc.o)
Map189_Regs         0x1               obj\Debug\\code\infoNES\infoNES_SRC\src\InfoNES_Mapper.o
OSIntNesting        0x1               ..\..\..\libs\librtos.a(os_core.o)
image1              0x4               obj\Debug\\code\disp_ctrl\ui_task.o
Map119_Prg0         0x1               obj\Debug\\code\infoNES\infoNES_SRC\src\InfoNES_Mapper.o
Map44_IRQ_Latch     0x1               obj\Debug\\code\infoNES\infoNES_SRC\src\InfoNES_Mapper.o
usb_ctrl            0x14              obj\Debug\\code\start\usb_mode.o
Map68_Regs          0x4               obj\Debug\\code\infoNES\infoNES_SRC\src\InfoNES_Mapper.o
isp_buf_mng         0xc               ..\..\..\libs\lib_imc.a(imc.o)
ApuC3Skip           0x4               obj\Debug\\code\infoNES\infoNES_SRC\src\InfoNES_pAPU.o
flash_size          0x4               obj\Debug\\code\start\main.o
vfs_driver_info     0x64              obj\Debug\\code\FileSelecter\FileSelecter.o
Map252_IRQ_Clock    0x4               obj\Debug\\code\infoNES\infoNES_SRC\src\InfoNES_Mapper.o
PPU_UpDown_Clip     0x1               obj\Debug\\code\infoNES\infoNES_SRC\src\InfoNES.o
b_customize_satu    0x1               ..\..\..\libs\lib_isp.a(isp_customize.o)
mode_ctrl           0x8               obj\Debug\\code\start\mode_switch.o
Map115_IRQ_Counter  0x1               obj\Debug\\code\infoNES\infoNES_SRC\src\InfoNES_Mapper.o
g_ASLTable          0x200             obj\Debug\\code\infoNES\infoNES_SRC\src\K6502.o
Map83_IRQ_Cnt       0x4               obj\Debug\\code\infoNES\infoNES_SRC\src\InfoNES_Mapper.o
Map48_IRQ_Cnt       0x1               obj\Debug\\code\infoNES\infoNES_SRC\src\InfoNES_Mapper.o
Map95_Chr7          0x4               obj\Debug\\code\infoNES\infoNES_SRC\src\InfoNES_Mapper.o
gamma_curve2d       0x100             ..\..\..\libs\lib_isp.a(gamma.o)
now_video_dir_index
                    0x4               obj\Debug\\code\FileSelecter\FileSelecter.o
Map23_IRQ_Latch     0x1               obj\Debug\\code\infoNES\infoNES_SRC\src\InfoNES_Mapper.o
Map118_IRQ_Enable   0x1               obj\Debug\\code\infoNES\infoNES_SRC\src\InfoNES_Mapper.o
vfs_file_handle     0x4               obj\Debug\\code\FileSelecter\FileSelecter.o
UVdc_values_cnt     0x34              ..\..\..\libs\lib_jpeg_enc.a(Build_dynamic_huffman.o)
latch2              0x3               obj\Debug\\code\infoNES\infoNES_SRC\src\InfoNES_Mapper.o
root_dir1           0xd               obj\Debug\\code\FileSelecter\FileSelecter.o
ApuC3d              0x1               obj\Debug\\code\infoNES\infoNES_SRC\src\InfoNES_pAPU.o
Map44_Chr01         0x4               obj\Debug\\code\infoNES\infoNES_SRC\src\InfoNES_Mapper.o
Map69_IRQ_Cnt       0x4               obj\Debug\\code\infoNES\infoNES_SRC\src\InfoNES_Mapper.o
Y                   0x1               obj\Debug\\code\infoNES\infoNES_SRC\src\K6502.o
ApuC1Atl            0x1               obj\Debug\\code\infoNES\infoNES_SRC\src\InfoNES_pAPU.o
Map16_IRQ_Latch     0x4               obj\Debug\\code\infoNES\infoNES_SRC\src\InfoNES_Mapper.o
FrameStep           0x2               obj\Debug\\code\infoNES\infoNES_SRC\src\InfoNES.o
Map245_Reg          0x8               obj\Debug\\code\infoNES\infoNES_SRC\src\InfoNES_Mapper.o
Map44_Regs          0x8               obj\Debug\\code\infoNES\infoNES_SRC\src\InfoNES_Mapper.o
Map4_IRQ_Enable     0x1               obj\Debug\\code\infoNES\infoNES_SRC\src\InfoNES_Mapper.o
PPU_ScanTable       0x107             obj\Debug\\code\infoNES\infoNES_SRC\src\InfoNES.o
Map4_Prg1           0x4               obj\Debug\\code\infoNES\infoNES_SRC\src\InfoNES_Mapper.o
IRQ_Wiring          0x1               obj\Debug\\code\infoNES\infoNES_SRC\src\K6502.o
Map49_Chr4          0x4               obj\Debug\\code\infoNES\infoNES_SRC\src\InfoNES_Mapper.o
ApuC1Index          0x4               obj\Debug\\code\infoNES\infoNES_SRC\src\InfoNES_pAPU.o
rec_file_format     0xd               obj\Debug\\code\FileSelecter\FileSelecter.o
Map74_Chr23         0x4               obj\Debug\\code\infoNES\infoNES_SRC\src\InfoNES_Mapper.o
Map115_Chr3         0x1               obj\Debug\\code\infoNES\infoNES_SRC\src\InfoNES_Mapper.o
Map252_Reg          0x9               obj\Debug\\code\infoNES\infoNES_SRC\src\InfoNES_Mapper.o
vfs_device_info     0x98              obj\Debug\\code\FileSelecter\FileSelecter.o
Map251_Reg          0xb               obj\Debug\\code\infoNES\infoNES_SRC\src\InfoNES_Mapper.o
ROMBANK3            0x4               obj\Debug\\code\infoNES\infoNES_SRC\src\InfoNES.o
Map90_Value1        0x4               obj\Debug\\code\infoNES\infoNES_SRC\src\InfoNES_Mapper.o
Map44_IRQ_Cnt       0x1               obj\Debug\\code\infoNES\infoNES_SRC\src\InfoNES_Mapper.o
Map191_Reg          0x8               obj\Debug\\code\infoNES\infoNES_SRC\src\InfoNES_Mapper.o
Map44_Prg0          0x4               obj\Debug\\code\infoNES\infoNES_SRC\src\InfoNES_Mapper.o
Map115_Chr7         0x1               obj\Debug\\code\infoNES\infoNES_SRC\src\InfoNES_Mapper.o
OSTCBCur            0x4               ..\..\..\libs\librtos.a(os_core.o)
i_customize_shpnAmount
                    0x2               ..\..\..\libs\lib_isp.a(isp_customize.o)
not_open_dsc_flag   0x1               obj\Debug\\code\disp_ctrl\ui_task.o
OSLockNesting       0x1               ..\..\..\libs\librtos.a(os_core.o)
Map25_Bank_Selector
                    0x1               obj\Debug\\code\infoNES\infoNES_SRC\src\InfoNES_Mapper.o
Map187_LastWrite    0x1               obj\Debug\\code\infoNES\infoNES_SRC\src\InfoNES_Mapper.o
Map119_Chr01        0x1               obj\Debug\\code\infoNES\infoNES_SRC\src\InfoNES_Mapper.o
ApuC4a              0x1               obj\Debug\\code\infoNES\infoNES_SRC\src\InfoNES_pAPU.o
Map76_Reg           0x1               obj\Debug\\code\infoNES\infoNES_SRC\src\InfoNES_Mapper.o
PPU_Scanline        0x2               obj\Debug\\code\infoNES\infoNES_SRC\src\InfoNES.o
Map40_IRQ_Enable    0x1               obj\Debug\\code\infoNES\infoNES_SRC\src\InfoNES_Mapper.o
Map116_Prg1         0x1               obj\Debug\\code\infoNES\infoNES_SRC\src\InfoNES_Mapper.o
Map135_Cmd          0x1               obj\Debug\\code\infoNES\infoNES_SRC\src\InfoNES_Mapper.o
ApuC3Index          0x4               obj\Debug\\code\infoNES\infoNES_SRC\src\InfoNES_pAPU.o
ApuC2Skip           0x4               obj\Debug\\code\infoNES\infoNES_SRC\src\InfoNES_pAPU.o
resfile             0x10              ..\..\..\libs\lib_uicon.a(ui_init.o)
root_dir            0xd               obj\Debug\\code\FileSelecter\FileSelecter.o
gravity_dev_con     0x24              obj\Debug\\code\Peripherals\G_Sensor\gravity_sensor_manage.o
ispt_gamma_g        0x100             ..\..\..\libs\lib_isp.a(gamma.o)
Map26_IRQ_Latch     0x1               obj\Debug\\code\infoNES\infoNES_SRC\src\InfoNES_Mapper.o
ispt_gamma_r_preset
                    0x100             ..\..\..\libs\lib_isp.a(gamma.o)
Map115_Prg2         0x1               obj\Debug\\code\infoNES\infoNES_SRC\src\InfoNES_Mapper.o
Map109_Chr0         0x1               obj\Debug\\code\infoNES\infoNES_SRC\src\InfoNES_Mapper.o
Map74_Regs          0x8               obj\Debug\\code\infoNES\infoNES_SRC\src\InfoNES_Mapper.o
MapperVSync         0x4               obj\Debug\\code\infoNES\infoNES_SRC\src\InfoNES.o
Map100_IRQ_Cnt      0x1               obj\Debug\\code\infoNES\infoNES_SRC\src\InfoNES_Mapper.o
Map90_Chr_Bank_Size
                    0x1               obj\Debug\\code\infoNES\infoNES_SRC\src\InfoNES_Mapper.o
ascfontinfo         0x3c              ..\..\..\libs\lib_font.a(font_gbk.o)
ApuC3Llc            0x4               obj\Debug\\code\infoNES\infoNES_SRC\src\InfoNES_pAPU.o
Map245_Chr4         0x1               obj\Debug\\code\infoNES\infoNES_SRC\src\InfoNES_Mapper.o
i_customize_wb_b    0x2               ..\..\..\libs\lib_isp.a(isp_customize.o)
styfile             0x10              ..\..\..\libs\lib_uicon.a(ui_init.o)
Map114_IRQ_Enable   0x1               obj\Debug\\code\infoNES\infoNES_SRC\src\InfoNES_Mapper.o
Map160_IRQ_Latch    0x1               obj\Debug\\code\infoNES\infoNES_SRC\src\InfoNES_Mapper.o
SC1045_MAX_EV_LEVEL
                    0x4               ..\..\..\libs\lib_sensor.a(isp_sensor_manage.o)
uac_ctl_arg         0x10              obj\Debug\\code\start\usb_mode.o
Map47_Chr6          0x4               obj\Debug\\code\infoNES\infoNES_SRC\src\InfoNES_Mapper.o
Map182_IRQ_Cnt      0x1               obj\Debug\\code\infoNES\infoNES_SRC\src\InfoNES_Mapper.o
PPU_R1              0x1               obj\Debug\\code\infoNES\infoNES_SRC\src\InfoNES.o
gFsErrFlag          0x1               ..\..\..\libs\lib_vfs.a(fs_api.o)
PPU_Increment       0x2               obj\Debug\\code\infoNES\infoNES_SRC\src\InfoNES.o
Map47_Prg1          0x4               obj\Debug\\code\infoNES\infoNES_SRC\src\InfoNES_Mapper.o
ApuC1Wave           0x4               obj\Debug\\code\infoNES\infoNES_SRC\src\InfoNES_pAPU.o
Map44_Chr5          0x4               obj\Debug\\code\infoNES\infoNES_SRC\src\InfoNES_Mapper.o
ApuC5Freq           0x4               obj\Debug\\code\infoNES\infoNES_SRC\src\InfoNES_pAPU.o
Map114_Chr23        0x4               obj\Debug\\code\infoNES\infoNES_SRC\src\InfoNES_Mapper.o
Map74_Chr7          0x4               obj\Debug\\code\infoNES\infoNES_SRC\src\InfoNES_Mapper.o
Map236_Bank         0x1               obj\Debug\\code\infoNES\infoNES_SRC\src\InfoNES_Mapper.o
ApuC4Atl            0x1               obj\Debug\\code\infoNES\infoNES_SRC\src\InfoNES_pAPU.o
Map109_Reg          0x1               obj\Debug\\code\infoNES\infoNES_SRC\src\InfoNES_Mapper.o
ApuC4EnvVol         0x1               obj\Debug\\code\infoNES\infoNES_SRC\src\InfoNES_pAPU.o
Map90_Nam_High_Reg  0x4               obj\Debug\\code\infoNES\infoNES_SRC\src\InfoNES_Mapper.o
Map90_IRQ_Cnt       0x1               obj\Debug\\code\infoNES\infoNES_SRC\src\InfoNES_Mapper.o
ApuC2SweepPhase     0x4               obj\Debug\\code\infoNES\infoNES_SRC\src\InfoNES_pAPU.o
Map100_Prg0         0x1               obj\Debug\\code\infoNES\infoNES_SRC\src\InfoNES_Mapper.o
PPU_Scr_V_Byte      0x1               obj\Debug\\code\infoNES\infoNES_SRC\src\InfoNES.o
Map116_Prg1L        0x1               obj\Debug\\code\infoNES\infoNES_SRC\src\InfoNES_Mapper.o
enc_ctrl            0x24              obj\Debug\\code\start\enc_mode.o
Map1_bank3          0x4               obj\Debug\\code\infoNES\infoNES_SRC\src\InfoNES_Mapper.o
Map21_IRQ_Latch     0x1               obj\Debug\\code\infoNES\infoNES_SRC\src\InfoNES_Mapper.o
PPU_Addr            0x2               obj\Debug\\code\infoNES\infoNES_SRC\src\InfoNES.o
STD_DC_UV_HT        0x30              ..\..\..\libs\lib_jpeg_enc.a(Build_dynamic_huffman.o)
Map255_Reg          0x4               obj\Debug\\code\infoNES\infoNES_SRC\src\InfoNES_Mapper.o
Map248_Chr4         0x1               obj\Debug\\code\infoNES\infoNES_SRC\src\InfoNES_Mapper.o
Map47_IRQ_Latch     0x1               obj\Debug\\code\infoNES\infoNES_SRC\src\InfoNES_Mapper.o
SpriteJustHit       0x4               obj\Debug\\code\infoNES\infoNES_SRC\src\InfoNES.o
ApuC5Reg            0x4               obj\Debug\\code\infoNES\infoNES_SRC\src\InfoNES_pAPU.o
Map69_IRQ_Enable    0x1               obj\Debug\\code\infoNES\infoNES_SRC\src\InfoNES_Mapper.o
Map90_Chr_Low_Reg   0x8               obj\Debug\\code\infoNES\infoNES_SRC\src\InfoNES_Mapper.o
g_imc_cut_frame     0x114             ..\..\..\libs\lib_imc.a(imc_cut.o)
ApuC5Phaseacc       0x4               obj\Debug\\code\infoNES\infoNES_SRC\src\InfoNES_pAPU.o
disp1_info          0x1c              obj\Debug\\code\start\main.o
ApuC2Atl            0x1               obj\Debug\\code\infoNES\infoNES_SRC\src\InfoNES_pAPU.o
Map248_Chr01        0x1               obj\Debug\\code\infoNES\infoNES_SRC\src\InfoNES_Mapper.o
reset_flag          0x4               obj\Debug\\code\start\main.o
Map96_Reg           0x2               obj\Debug\\code\infoNES\infoNES_SRC\src\InfoNES_Mapper.o
Map47_Chr23         0x4               obj\Debug\\code\infoNES\infoNES_SRC\src\InfoNES_Mapper.o
g_sdfile_head_offset
                    0x4               obj\Debug\\code\start\main.o
Map183_IRQ_Counter  0x4               obj\Debug\\code\infoNES\infoNES_SRC\src\InfoNES_Mapper.o
ApuC4Sr             0x4               obj\Debug\\code\infoNES\infoNES_SRC\src\InfoNES_pAPU.o
Map112_Chr7         0x4               obj\Debug\\code\infoNES\infoNES_SRC\src\InfoNES_Mapper.o
i_customize_blc_b   0x2               ..\..\..\libs\lib_isp.a(isp_customize.o)
Map236_Mode         0x1               obj\Debug\\code\infoNES\infoNES_SRC\src\InfoNES_Mapper.o
Map100_Chr3         0x1               obj\Debug\\code\infoNES\infoNES_SRC\src\InfoNES_Mapper.o
Map118_Chr1         0x4               obj\Debug\\code\infoNES\infoNES_SRC\src\InfoNES_Mapper.o
Map249_IRQ_Enable   0x1               obj\Debug\\code\infoNES\infoNES_SRC\src\InfoNES_Mapper.o
Map47_Rom_Bank      0x4               obj\Debug\\code\infoNES\infoNES_SRC\src\InfoNES_Mapper.o
bdisk_ready         0x4               obj\Debug\\code\FileSelecter\FileSelecter.o
Map116_Chr0         0x1               obj\Debug\\code\infoNES\infoNES_SRC\src\InfoNES_Mapper.o
Map25_IRQ_State     0x1               obj\Debug\\code\infoNES\infoNES_SRC\src\InfoNES_Mapper.o
Map191_Chr3         0x1               obj\Debug\\code\infoNES\infoNES_SRC\src\InfoNES_Mapper.o
ApuPulseMagic       0x4               obj\Debug\\code\infoNES\infoNES_SRC\src\InfoNES_pAPU.o
ApuC2c              0x1               obj\Debug\\code\infoNES\infoNES_SRC\src\InfoNES_pAPU.o
Map226_Reg          0x2               obj\Debug\\code\infoNES\infoNES_SRC\src\InfoNES_Mapper.o
Map114_Chr01        0x4               obj\Debug\\code\infoNES\infoNES_SRC\src\InfoNES_Mapper.o
Map4_Chr6           0x4               obj\Debug\\code\infoNES\infoNES_SRC\src\InfoNES_Mapper.o
Map116_Chr4         0x1               obj\Debug\\code\infoNES\infoNES_SRC\src\InfoNES_Mapper.o
PAD2_Latch          0x4               obj\Debug\\code\infoNES\infoNES_SRC\src\InfoNES.o
Map118_Chr5         0x4               obj\Debug\\code\infoNES\infoNES_SRC\src\InfoNES_Mapper.o
Map114_Chr7         0x4               obj\Debug\\code\infoNES\infoNES_SRC\src\InfoNES_Mapper.o
PPU_Scr_V_Bit       0x1               obj\Debug\\code\infoNES\infoNES_SRC\src\InfoNES.o
Map119_Chr4         0x1               obj\Debug\\code\infoNES\infoNES_SRC\src\InfoNES_Mapper.o
F                   0x1               obj\Debug\\code\infoNES\infoNES_SRC\src\K6502.o

Memory Configuration

Name             Origin             Length             Attributes
sdram            0x02000000         0x00800000         xrw
video_ram        0x01fa0000         0x00018000         xrw
ram0             0x01f00000         0x00013f80         xrw
*default*        0x00000000         0xffffffff

Linker script and memory map

LOAD obj\Debug\\code\FileSelecter\FileSelecter.o
LOAD obj\Debug\\code\FileSelecter\pb_fctrl.o
LOAD obj\Debug\\code\Peripherals\G_Sensor\GMA301.o
LOAD obj\Debug\\code\Peripherals\G_Sensor\da380.o
LOAD obj\Debug\\code\Peripherals\G_Sensor\gravity_sensor_api.o
LOAD obj\Debug\\code\Peripherals\G_Sensor\gravity_sensor_manage.o
LOAD obj\Debug\\code\Peripherals\G_Sensor\i2c.o
LOAD obj\Debug\\code\Peripherals\G_Sensor\parking_guard.o
LOAD obj\Debug\\code\Peripherals\G_Sensor\stk8312.o
LOAD obj\Debug\\code\Peripherals\clock.o
LOAD obj\Debug\\code\Peripherals\timer.o
LOAD obj\Debug\\code\Peripherals\uart.o
LOAD obj\Debug\\code\Peripherals\user_isp_cfg.o
LOAD obj\Debug\\code\Peripherals\wdt.o
LOAD obj\Debug\\code\StorDev\dev_ctrl.o
LOAD obj\Debug\\code\common\audio_api.o
LOAD obj\Debug\\code\common\common.o
LOAD obj\Debug\\code\common\fcvt.o
LOAD obj\Debug\\code\common\printf-stdarg.o
LOAD obj\Debug\\code\common\vm_api.o
LOAD obj\Debug\\code\disp_ctrl\lcd.o
LOAD obj\Debug\\code\disp_ctrl\my_ui1.o
LOAD obj\Debug\\code\disp_ctrl\ui_task.o
LOAD obj\Debug\\code\infoNES\NES_GAME\ddl.o
LOAD obj\Debug\\code\infoNES\NES_GAME\fj.o
LOAD obj\Debug\\code\infoNES\NES_GAME\gef.o
LOAD obj\Debug\\code\infoNES\infoNES_PORT\nes_port.o
LOAD obj\Debug\\code\infoNES\infoNES_SRC\src\InfoNES.o
LOAD obj\Debug\\code\infoNES\infoNES_SRC\src\InfoNES_Mapper.o
LOAD obj\Debug\\code\infoNES\infoNES_SRC\src\InfoNES_pAPU.o
LOAD obj\Debug\\code\infoNES\infoNES_SRC\src\K6502.o
LOAD obj\Debug\\code\infoNES\infoNES_System\InfoNES_System.o
LOAD obj\Debug\\code\key\adc_scan.o
LOAD obj\Debug\\code\key\key_drv_ad.o
LOAD obj\Debug\\code\key\key_drv_manager.o
LOAD obj\Debug\\code\key\powercheck.o
LOAD obj\Debug\\code\start\car_fs_api.o
LOAD obj\Debug\\code\start\dec_mode.o
LOAD obj\Debug\\code\start\enc_mode.o
LOAD obj\Debug\\code\start\main.o
LOAD obj\Debug\\code\start\mode_switch.o
LOAD obj\Debug\\code\start\pwr_onoff.o
LOAD obj\Debug\\code\start\reg.o
LOAD obj\Debug\\code\start\startup.o
LOAD obj\Debug\\code\start\usb_mode.o
LOAD obj\Debug\\code\tft_panel\ILI8960.o
LOAD obj\Debug\\code\tft_panel\ILI8961.o
LOAD obj\Debug\\code\tft_panel\ILI9163.o
LOAD obj\Debug\\code\tft_panel\ILI9325.o
LOAD obj\Debug\\code\tft_panel\LCD_RM68116.o
LOAD obj\Debug\\code\tft_panel\LQ026B3UX01.o
LOAD obj\Debug\\code\tft_panel\SSD1963.o
LOAD obj\Debug\\code\tft_panel\ST7735S.o
LOAD obj\Debug\\code\tft_panel\T15P00.o
LOAD obj\Debug\\code\tft_panel\avout.o
LOAD obj\Debug\\code\tft_panel\disp_43inch.o
LOAD obj\Debug\\code\tft_panel\disp_8inch.o
LOAD obj\Debug\\code\tft_panel\disp_JC4301.o
LOAD obj\Debug\\code\tft_panel\pap.o
LOAD obj\Debug\\code\upgrade\upgrade.o
                0x02000000                . = ORIGIN (sdram)

.sdram_data     0x02000000   0x1076b4
                0x02000000                _text_rodata_begin = .
 *startup.o(.text)
 .text          0x02000000       0xfc obj\Debug\\code\start\startup.o
 *(.text)
 .text          0x020000fc     0x13c4 obj\Debug\\code\FileSelecter\FileSelecter.o
                0x020000fc                is_sd_online
                0x0200011c                is_phy_sd_online
                0x0200012c                wait_sd_ok
                0x02000168                Load_vfs
                0x02000194                set_file_format_path
                0x02000308                video_name_to_index
                0x02000424                femu_callback
                0x02000564                init_record_dir
                0x020006c8                file_size
                0x02000700                create_video_file_mov
                0x0200088c                create_video_file_avi
                0x02000a18                create_pic_file_data_camera
                0x02000b80                create_pic_file_analog_camera
                0x02000ce8                video_dir_2index
                0x02000d64                femu_vdir_callback
                0x02000e9c                delete_video_photo_file
                0x02000f68                check_file_begin_end
                0x02000fc0                check_smallest_fnum
                0x02001018                get_no_enought_space_status
                0x02001028                clear_no_enought_space_status
                0x02001038                freeSpace
                0x02001214                file_sel_msg_ctrl
 .text          0x020014c0      0xd04 obj\Debug\\code\FileSelecter\pb_fctrl.o
                0x020014c0                enc_femu_cb_for_B
                0x0200159c                enc_femu_cb_for_A
                0x02001678                dec_femu_cb_for_B
                0x020017c8                dec_femu_cb_for_A
                0x02001918                check_all_files
                0x02001a00                get_folader_status
                0x02001a2c                dec_video_index_to_name
                0x02001adc                select_file
                0x02001e30                dec_file_pro
                0x02001e40                dec_only_profile
                0x02001e5c                get_pro_fnum
                0x02001e6c                dec_del_file
                0x02001fdc                protect_current_file
                0x020020b8                lock_current_file
                0x02002114                unlock_current_file
                0x02002174                unlock_all_file
 .text          0x020021c4      0x6a4 obj\Debug\\code\Peripherals\G_Sensor\GMA301.o
                0x020021c4                gma301_sensor_command
                0x020021d8                gma301_sensor_get_data
                0x020021e8                ReadXYZ
                0x0200245c                gma301_init
                0x020024e4                gma301_id_check
                0x02002548                gma301_check
                0x02002570                gma301_work_mode
                0x020025c8                gma301_resolution_range
                0x02002688                gma301_gravity_sensity
                0x02002808                usb_charging_status
                0x0200285c                gma301_pin_int_interrupt
 .text          0x02002868      0x488 obj\Debug\\code\Peripherals\G_Sensor\da380.o
                0x02002868                da380_iic_set
                0x0200287c                da380_sensor_command
                0x020028f4                da380_sensor_get_data
                0x0200297c                da380_int_map1
                0x02002994                da380_resolution_range
                0x020029c0                da380_work_mode
                0x020029f0                da380_init
                0x02002af4                da380_gravity_sensity
                0x02002bb8                get_da380_int_state
                0x02002bd8                da380_pin_int_interrupt
                0x02002c48                da380_id_check
                0x02002cac                da380_check
 .text          0x02002cf0      0x128 obj\Debug\\code\Peripherals\G_Sensor\gravity_sensor_api.o
                0x02002cf0                write_command_to_gravity_sensor
                0x02002d6c                read_data_from_gravity_sensor
                0x02002e00                gravity_sensor_command
                0x02002e0c                gravity_sensor_get_data
 .text          0x02002e18      0x378 obj\Debug\\code\Peripherals\G_Sensor\gravity_sensor_manage.o
                0x02002e18                g_sensor_int_flag_check
                0x02002e50                g_sensor_timer_unreg
                0x02002e7c                gravity0_sensor_check
                0x02002f04                gravity0_dev_init
                0x02002f50                gravity_api
                0x02003024                gravity_dev_check
                0x02003030                g_sensor_int_scan
                0x02003040                iic_app_task
                0x020030b0                g_sensor_low_power_mode
                0x0200315c                get_cur_gsensor_version
 .text          0x02003190      0x3f8 obj\Debug\\code\Peripherals\G_Sensor\i2c.o
                0x02003190                init_i2c_io
                0x020031a8                start_I2c
                0x02003218                stop_I2c
                0x02003288                wait_Ack
                0x02003350                Ack
                0x020033c0                no_Ack
                0x02003430                write_byte_to_slave
                0x020034f0                read_byte_from_slave
 .text          0x02003588       0x68 obj\Debug\\code\Peripherals\G_Sensor\parking_guard.o
                0x02003588                gsensor_pr2Pnd_api
 .text          0x020035f0      0x494 obj\Debug\\code\Peripherals\G_Sensor\stk8312.o
                0x020035f0                stk8312_iic_set
                0x02003604                stk8312_sensor_command
                0x0200367c                stk8312_sensor_get_data
                0x02003704                stk8312_set_enable
                0x0200373c                stk8312_init
                0x020037ac                Polling_xyz_data
                0x0200381c                stk8312_resolution_range
                0x0200384c                stk8312_work_mode
                0x02003870                stk8312_gravity_sensity
                0x020038ec                get_stk8312_int_state
                0x02003930                stk8312_pin_int_interrupt
                0x020039e4                stk8312_id_check
                0x02003a34                stk8312_check
 .text          0x02003a84      0xdf8 obj\Debug\\code\Peripherals\clock.o
                0x02003e04                pll_init
                0x02003e7c                check_pll_is_en
                0x02003ebc                pll_96m_sel
                0x02003ee8                get_sys_clk_info
                0x02003f10                get_pll_clk
                0x02004068                pll_apc_div
                0x020040c4                pll_apc_sel
                0x02004124                get_sys_clk
                0x02004134                get_apb_clk
                0x02004174                init_clk_info
                0x0200421c                apb_clk_div
                0x02004270                sys_clk_init
                0x02004678                sys_clk_div
                0x02004684                pll_clk_div
                0x0200475c                PH13_clk_out
                0x020047b8                PH14_clk_out
                0x02004814                PH15_clk_out
 .text          0x0200487c      0x2f4 obj\Debug\\code\Peripherals\timer.o
                0x0200487c                timer2_isr
                0x020048a8                handle__timer2_isr
                0x020048cc                timer1_isr
                0x0200494c                handle__timer1_isr
                0x02004970                OSGetTime
                0x02004998                get_os_time
                0x020049c0                timer_get_sec
                0x020049fc                timer_get_ms
                0x02004a3c                timer1_init
                0x02004aa4                timer2_init
                0x02004b00                timer_reg
                0x02004b58                timer_unreg
 .text          0x02004b70      0x12c obj\Debug\\code\Peripherals\uart.o
                0x02004b70                init_uart_mutex
                0x02004bac                printf_enter_mutex
                0x02004bb8                printf_exit_mutex
                0x02004bc4                uart_init
                0x02004bd0                putbyte
                0x02004bdc                putchar
                0x02004be8                getchar
                0x02004bf4                put_u4hex
                0x02004c00                put_u32hex
                0x02004c0c                put_u16hex
                0x02004c18                put_u32hex0
                0x02004c24                put_u8hex0
                0x02004c30                put_u8hex
                0x02004c3c                put_buf
                0x02004c48                perror
                0x02004c54                put_buf_without_mutex
                0x02004c60                printf_buf
                0x02004c6c                printf_buf_without_mutex
                0x02004c78                puts
                0x02004c84                puts_without_mutex
                0x02004c90                puts_without_lock
 .text          0x02004c9c      0x36c obj\Debug\\code\Peripherals\user_isp_cfg.o
                0x02004d08                reset_isp_cfg
                0x02004d64                user_isp_cfg
 .text          0x02005008       0x8c obj\Debug\\code\Peripherals\wdt.o
                0x02005008                wdt_ctf_ctrl
                0x02005070                wdt_clear_ctrl
 .text          0x02005094      0x20c obj\Debug\\code\StorDev\dev_ctrl.o
                0x02005094                dev_get_sd1_hdl
                0x020050a4                app_sd_io_dect
                0x020050c0                app_sd_reg
                0x02005140                app_flash_reg
                0x0200519c                dev_reg_ctrl
                0x020051f8                dev_get_flash_hdl
                0x02005208                dev_ctrl_sys_init
                0x02005220                init_spi_info
 .text          0x020052a0      0x7f8 obj\Debug\\code\common\audio_api.o
                0x020052a0                dac_api_init
                0x020053a8                dac_api_open
                0x020053f4                dac_api_close
                0x0200540c                dac_api_reset_dec
                0x0200542c                dac_api_set_play
                0x02005440                dac_api_clr_fb
                0x02005478                dac_api_fffr_clr_fb
                0x020054e4                dac_api_smsc_write
                0x0200556c                dac_app_task
                0x020055d8                dac_api_smsc_read
                0x02005610                dac_api_func
                0x0200587c                dac_api_play_stone2
                0x02005888                dac_api_play_stone
                0x02005948                dac_api_play_ctone
                0x02005a08                dac_api_ptone_len
                0x02005a14                dac_api_play_ptone
                0x02005a2c                dac_api_stop_ptone
                0x02005a3c                dac_api_enable_ptone
                0x02005a50                dac_api_ktone_len
                0x02005a5c                dac_api_play_ktone
                0x02005a74                dac_api_stop_ktone
                0x02005a84                dac_api_enable_ktone
 .text          0x02005a98      0x188 obj\Debug\\code\common\common.o
                0x02005a98                delay
                0x02005aa4                delay_2ms
                0x02005ab8                my_memcpy
                0x02005afc                my_strcpy
                0x02005b30                my_memset
                0x02005b40                my_memzero
                0x02005b54                my_memcmp
                0x02005b74                CRC16
                0x02005b9c                com_ASCII_ToUpper
                0x02005bc8                com_ASCII_StrCmp
                0x02005c08                com_ASCII_StrLen
 .text          0x02005c20        0x0 obj\Debug\\code\common\fcvt.o
 .text          0x02005c20      0x52c obj\Debug\\code\common\printf-stdarg.o
                0x02006070                printf_without_lock
                0x02006090                printf_without_mutex
                0x020060b0                printf
                0x020060f0                sprintf
                0x02006110                vprintf
 .text          0x0200614c       0xe8 obj\Debug\\code\common\vm_api.o
                0x0200614c                vm_api_init
                0x0200616c                vm_api_write
                0x020061d0                vm_api_read
 .text          0x02006234      0x284 obj\Debug\\code\disp_ctrl\lcd.o
                0x02006234                avout_det_io
                0x0200626c                avout_det_scan
                0x0200632c                avout_det_io_init
                0x02006344                avout_det_reg
                0x02006370                lcd_init
                0x020063b0                lcd_size_init
                0x020063c8                lcd_get_size
                0x020063e8                lcd_get_bottom_color
                0x020063f4                lcd_brightness_control
                0x02006428                lcd_pwm_init
 .text          0x020064b8     0x3040 obj\Debug\\code\disp_ctrl\my_ui1.o
                0x020064b8                cb_normal_setting
                0x020064c4                cb_perfer_setting
                0x020064d0                cb_safety_assist_setting
                0x020064dc                cb_play_setting
                0x020064e8                cb_delallfile
                0x02006614                cb_delfile
                0x0200674c                cb_mic_mute
                0x020067c0                cb_language_set
                0x0200683c                cb_reso_ratio
                0x020068b4                cb_loop_video
                0x0200690c                cb_while_balance
                0x02006984                cb_sennor_exposure
                0x020069f0                cb_color_effect
                0x02006a48                cb_moving_detect
                0x02006abc                cb_parking_guard
                0x02006b20                cb_date_label
                0x02006b8c                cb_gravity_reaction
                0x02006c0c                cb_key_voice
                0x02006c70                cb_wdr_function
                0x02006cf4                cb_auto_power
                0x02006d4c                cb_light_freq
                0x02006dbc                cb_TV_mode
                0x02006e14                cb_screen_protect
                0x02006e6c                cb_photo_reso_ratio
                0x02006f04                cb_photo_date_label
                0x02006f70                save_sysinfo
                0x02006f88                disp_msgbox
                0x020070b4                cb_unlock_all_file
                0x02007120                cb_unlockfile
                0x020071ac                cb_lockfile
                0x02007240                cb_formatting
                0x02007324                day_to_month
                0x020073dc                cb_photo_setting
                0x02007b30                cb_setting
                0x02008550                cb_system_setting
                0x02008d98                dc_SetLanguage
                0x02008dac                cb_flashlight_mode
                0x02008e10                reset_ui_process
                0x02008f94                sys_info_reset
                0x02008ff8                cb_restore_factory_settings
                0x020090dc                get_vedio_reso_ratio
                0x020090ec                set_vedio_reso_ratio
                0x020090f8                get_vedio_date_label
                0x02009108                set_vedio_date_label
                0x02009114                get_loop_video_time
                0x02009124                set_loop_video_time
                0x02009130                get_cycle_time
                0x02009144                get_parking_guard
                0x02009158                set_parking_guard
                0x02009164                get_gravity_sensor
                0x02009188                set_gravity_sensor
                0x02009194                get_flashlight_mode
                0x020091a4                set_flashlight_mode
                0x020091c8                get_TV_mode
                0x020091d8                set_TV_mode
                0x020091e4                get_photo_reso_ratio
                0x020091f4                set_photo_reso_ratio
                0x02009200                get_photo_date_label
                0x02009210                set_photo_date_label
                0x0200921c                draw_confirm_dialog
 .text          0x020094f8     0x38b8 obj\Debug\\code\disp_ctrl\ui_task.o
                0x020094f8                updata_timer
                0x0200952c                get_sdnote_status
                0x0200953c                reset_sdnote_status
                0x0200954c                display_note
                0x02009660                clear_display_noto
                0x020096e4                clear_SD_note
                0x02009760                clear_rec_cnt
                0x02009770                get_rec_cnt
                0x02009780                updata_parking_guard_pic
                0x020097c8                updata_movingdet_pic
                0x0200980c                updata_flashlight_mode_pic
                0x0200987c                updata_mic_pic
                0x020098cc                photomode_icon_switch
                0x02009924                vediomode_icon_switch
                0x02009930                updata_formate_pic
                0x020099b0                updata_mode_pic
                0x020099f4                disp_closelogo
                0x02009a28                disp_startlogo
                0x02009a5c                up_data_uipic
                0x02009aa8                fileNum2Str
                0x02009bc4                updata_curfile_num
                0x02009cfc                play_screen
                0x02009d88                disp_file_info
                0x0200a02c                clear_file_info
                0x0200a094                disp_sys_time
                0x0200a148                update_battery_pic
                0x0200a330                get_remain_time_rec
                0x0200a3f0                main_frame
                0x0200a638                num_of_last_photo
                0x0200a644                num_of_photo_cutdown
                0x0200a650                reset_num_of_photo
                0x0200a65c                disp_REC_cnt
                0x0200a708                disp_usb_option
                0x0200a874                video_running_led
                0x0200a88c                video_running_led_off
                0x0200a8a4                get_loop_video_status
                0x0200a8b4                disp_unlock_all_file
                0x0200a8e4                usb_out_stop_enc
                0x0200a9c8                flash_light_ctrl
                0x0200aa3c                ui_close_imb
                0x0200aa94                ui_close_imb1
                0x0200aac8                layer_init
                0x0200ac58                config_disp
                0x0200ae38                ui_open_imb
                0x0200ae6c                disp_vm_init
                0x0200af74                updata_menu_cfg
                0x0200b000                moving_process
                0x0200b07c                get_menu_statu
                0x0200b08c                screen_protect_control
                0x0200b100                screen_on
                0x0200b13c                ui_updata_timer_unreg
                0x0200b150                ui_disp_task
 .text          0x0200cdb0        0x0 obj\Debug\\code\infoNES\NES_GAME\ddl.o
 .text          0x0200cdb0        0x0 obj\Debug\\code\infoNES\NES_GAME\fj.o
 .text          0x0200cdb0        0x0 obj\Debug\\code\infoNES\NES_GAME\gef.o
 .text          0x0200cdb0       0x54 obj\Debug\\code\infoNES\infoNES_PORT\nes_port.o
                0x0200cdb0                ReadFile
 .text          0x0200ce04     0x1148 obj\Debug\\code\infoNES\infoNES_SRC\src\InfoNES.o
                0x0200ce04                InfoNES_Init
                0x0200ce60                InfoNES_Fin
                0x0200ce7c                InfoNES_Mirroring
                0x0200cec0                InfoNES_SetupPPU
                0x0200d090                InfoNES_Reset
                0x0200d21c                InfoNES_Load
                0x0200d25c                InfoNES_DrawLine
                0x0200d99c                InfoNES_GetSprHitY
                0x0200da8c                InfoNES_SetupChr
                0x0200dbb0                InfoNES_HSync
                0x0200ddb0                InfoNES_Cycle
                0x0200df10                InfoNES_Main
 .text          0x0200df4c    0x1f89c obj\Debug\\code\infoNES\infoNES_SRC\src\InfoNES_Mapper.o
                0x0200df4c                Map0_Write
                0x0200df58                Map0_Sram
                0x0200df64                Map0_Apu
                0x0200df70                Map0_ReadApu
                0x0200df7c                Map0_VSync
                0x0200df88                Map0_HSync
                0x0200df94                Map0_PPU
                0x0200dfa0                Map0_RenderScreen
                0x0200dfac                Map2_Write
                0x0200dffc                Map4_HSync
                0x0200e0cc                Map16_HSync
                0x0200e110                Map17_HSync
                0x0200e158                Map18_HSync
                0x0200e198                Map21_HSync
                0x0200e1f0                Map24_HSync
                0x0200e230                Map25_HSync
                0x0200e26c                Map26_HSync
                0x0200e2b4                Map34_Write
                0x0200e32c                Map40_Write
                0x0200e3b0                Map40_HSync
                0x0200e3dc                Map42_HSync
                0x0200e42c                Map43_ReadApu
                0x0200e460                Map43_Apu
                0x0200e4fc                Map43_Write
                0x0200e52c                Map43_HSync
                0x0200e56c                Map44_HSync
                0x0200e5cc                Map47_HSync
                0x0200e62c                Map48_HSync
                0x0200e688                Map49_HSync
                0x0200e6e8                Map50_Apu
                0x0200e760                Map50_HSync
                0x0200e78c                Map65_HSync
                0x0200e7d0                Map67_HSync
                0x0200e834                Map69_HSync
                0x0200e870                Map73_Write
                0x0200e964                Map73_HSync
                0x0200e9a0                Map74_HSync
                0x0200ea70                Map83_ReadApu
                0x0200ea94                Map83_Apu
                0x0200eab0                Map83_HSync
                0x0200eaf0                Map90_Apu
                0x0200eb1c                Map90_ReadApu
                0x0200eb44                Map90_HSync
                0x0200ebb0                Map93_Sram
                0x0200ec10                Map94_Write
                0x0200ec74                Map99_ReadApu
                0x0200ec90                Map100_HSync
                0x0200ecf0                Map105_HSync
                0x0200ed48                Map108_Write
                0x0200ed84                Map112_HSync
                0x0200ede4                Map114_HSync
                0x0200ee44                Map115_HSync
                0x0200eea4                Map116_HSync
                0x0200ef04                Map117_HSync
                0x0200ef48                Map118_HSync
                0x0200efa8                Map119_HSync
                0x0200f008                Map180_Write
                0x0200f060                Map182_HSync
                0x0200f0b8                Map183_HSync
                0x0200f0f4                Map187_ReadApu
                0x0200f114                Map187_HSync
                0x0200f188                Map188_Write
                0x0200f27c                Map189_Apu
                0x0200f318                Map189_HSync
                0x0200f378                Map194_Write
                0x0200f3b4                Map232_Write
                0x0200f488                Map241_Write
                0x0200f51c                Map242_Write
                0x0200f5b0                Map244_Write
                0x0200f6e8                Map245_HSync
                0x0200f788                Map248_Sram
                0x0200f810                Map248_Apu
                0x0200f81c                Map248_HSync
                0x0200f87c                Map249_Apu
                0x0200f8a4                Map249_HSync
                0x0200f944                Map252_HSync
                0x0200f9ac                Map255_Apu
                0x0200f9d0                Map255_ReadApu
                0x0200f9f8                Map255_Write
                0x0200fbe8                Map245_Write
                0x0200fde0                Map236_Write
                0x0200fff0                Map235_Write
                0x020101f4                Map233_Write
                0x020102f0                Map231_Write
                0x020103cc                Map230_Write
                0x02010510                Map227_Write
                0x020106dc                Map226_Write
                0x02010854                Map105_Write
                0x02010b24                Map97_Write
                0x02010ba8                Map71_Write
                0x02010c50                Map61_Write
                0x02010d78                Map42_Write
                0x02010e08                Map41_Sram
                0x02010ec8                Map15_Write
                0x0201102c                Map7_Write
                0x020110bc                Map252_Write
                0x02011604                Map249_Write
                0x02011bfc                Map246_Sram
                0x02011dd4                Map243_Apu
                0x02011f98                Map240_Apu
                0x020120d4                Map229_Write
                0x02012284                Map228_Write
                0x02012464                Map225_Write
                0x0201264c                Map222_Write
                0x020128d0                Map201_Write
                0x020129f8                Map200_Write
                0x02012b20                Map193_Sram
                0x02012cd0                Map189_Write
                0x02012ec4                Map185_Write
                0x02012f40                Map183_Write
                0x02013580                Map182_Write
                0x02013774                Map181_Apu
                0x020138a8                Map160_HSync
                0x02013dd8                Map160_Write
                0x02014130                Map151_Write
                0x020142e4                Map140_Apu
                0x02014424                Map140_Sram
                0x02014430                Map134_Apu
                0x020145ec                Map133_Apu
                0x0201471c                Map122_Sram
                0x020147d4                Map117_Write
                0x02014ab4                Map113_Write
                0x02014bec                Map113_Apu
                0x02014d3c                Map110_Apu
                0x02014f00                Map107_Write
                0x02015030                Map101_Write
                0x020150c4                Map99_Apu
                0x020151e4                Map92_Write
                0x02015308                Map91_Sram
                0x020154e0                Map89_Write
                0x02015614                Map88_Write
                0x02015810                Map87_Sram
                0x020158b4                Map86_Sram
                0x020159cc                Map83_Write
                0x020160e4                Map82_Sram
                0x020163ec                Map80_Sram
                0x02016638                Map79_Apu
                0x02016730                Map78_Write
                0x0201682c                Map77_Write
                0x020168e8                Map76_Write
                0x02016a60                Map75_Write
                0x02016ca4                Map72_Write
                0x02016d90                Map70_Write
                0x02016e7c                Map69_Write
                0x02017020                Map67_Write
                0x02017234                Map66_Write
                0x02017330                Map65_Write
                0x0201764c                Map64_Write
                0x02017a10                Map62_Write
                0x02017b88                Map60_Write
                0x02017d10                Map58_Write
                0x02017e98                Map57_Write
                0x02018124                Map48_Write
                0x020183d8                Map41_Write
                0x02018484                Map34_Sram
                0x020185cc                Map33_Write
                0x020188bc                Map32_Write
                0x020189ec                Map26_Write
                0x02018d2c                Map24_Write
                0x02019068                Map23_Write
                0x020196ac                Map22_Write
                0x0201999c                Map21_Write
                0x02019f84                Map18_Write
                0x0201a5f0                Map17_Apu
                0x0201a980                Map16_Write
                0x0201ac28                Map13_Write
                0x0201acf8                Map11_Write
                0x0201ae1c                Map10_PPU
                0x0201af1c                Map10_Write
                0x0201b108                Map9_PPU
                0x0201b208                Map9_Write
                0x0201b3e4                Map8_Write
                0x0201b4b4                Map3_Write
                0x0201b540                Map255_Init
                0x0201b6b0                Map252_Init
                0x0201b84c                Map251_Init
                0x0201b99c                Map249_Init
                0x0201bb4c                Map246_Init
                0x0201bc60                Map245_Init
                0x0201be24                Map244_Init
                0x0201bf2c                Map243_Init
                0x0201c090                Map242_Init
                0x0201c198                Map241_Init
                0x0201c2e4                Map240_Init
                0x0201c438                Map236_Init
                0x0201c564                Map235_Init
                0x0201c680                Map234_Init
                0x0201c798                Map233_Init
                0x0201c8a0                Map232_Init
                0x0201c9c8                Map231_Init
                0x0201cb14                Map230_Init
                0x0201cc88                Map229_Init
                0x0201cdd4                Map228_Init
                0x0201cf20                Map227_Init
                0x0201d01c                Map226_Init
                0x0201d134                Map225_Init
                0x0201d280                Map222_Init
                0x0201d3e0                Map202_Init
                0x0201d544                Map201_Init
                0x0201d684                Map200_Init
                0x0201d7c4                Map194_Init
                0x0201d8e4                Map193_Init
                0x0201da44                Map189_Init
                0x0201dbb8                Map188_Init
                0x0201dd08                Map185_Init
                0x0201de24                Map183_Init
                0x0201dfc4                Map182_Init
                0x0201e138                Map181_Init
                0x0201e284                Map180_Init
                0x0201e3d0                Map160_Init
                0x0201e510                Map151_Init
                0x0201e664                Map140_Init
                0x0201e7b0                Map134_Init
                0x0201e8fc                Map133_Init
                0x0201ea48                Map122_Init
                0x0201eb50                Map117_Init
                0x0201ecc4                Map113_Init
                0x0201ee10                Map110_Init
                0x0201ef74                Map108_Init
                0x0201f0ac                Map107_Init
                0x0201f200                Map105_Init
                0x0201f358                Map101_Init
                0x0201f49c                Map99_Init
                0x0201f654                Map97_Init
                0x0201f7b4                Map94_Init
                0x0201f8c8                Map93_Init
                0x0201fa1c                Map92_Init
                0x0201fb70                Map91_Init
                0x0201fcd0                Map90_Init
                0x0201febc                Map89_Init
                0x02020010                Map88_Init
                0x02020164                Map87_Init
                0x020202b0                Map86_Init
                0x020203fc                Map83_Init
                0x020205c8                Map82_Init
                0x02020728                Map80_Init
                0x0202087c                Map79_Init
                0x020209c8                Map78_Init
                0x02020b1c                Map77_Init
                0x02020c2c                Map76_Init
                0x02020d80                Map75_Init
                0x02020ee4                Map73_Init
                0x02021010                Map72_Init
                0x02021164                Map71_Init
                0x02021278                Map70_Init
                0x0202138c                Map69_Init
                0x020214f8                Map68_Init
                0x02021624                Map67_Init
                0x020217c8                Map66_Init
                0x0202190c                Map65_Init
                0x02021a60                Map64_Init
                0x02021bcc                Map62_Init
                0x02021d18                Map61_Init
                0x02021e2c                Map60_Init
                0x02021f78                Map58_Init
                0x020220b8                Map57_Init
                0x02022204                Map50_Init
                0x0202237c                Map49_Init
                0x02022548                Map48_Init
                0x020226bc                Map43_Init
                0x02022828                Map42_Init
                0x0202298c                Map41_Init
                0x02022ad8                Map40_Init
                0x02022c4c                Map34_Init
                0x02022da0                Map33_Init
                0x02022f40                Map32_Init
                0x020230a0                Map26_Init
                0x02023208                Map25_Init
                0x02023330                Map24_Init
                0x02023444                Map23_Init
                0x020235f0                Map22_Init
                0x02023744                Map21_Init
                0x020238b0                Map18_Init
                0x020239f8                Map17_Init
                0x02023b6c                Map16_Init
                0x02023cac                Map15_Init
                0x02023db4                Map13_Init
                0x02023f04                Map11_Init
                0x0202405c                Map10_Init
                0x020241d8                Map9_Init
                0x02024360                Map8_Init
                0x020244ac                Map7_Init
                0x020245b4                Map3_Init
                0x02024728                Map2_Init
                0x0202483c                Map0_Init
                0x020249e8                Map1_set_ROM_banks
                0x02024aa4                Map1_Write
                0x02024f34                Map1_Init
                0x02025108                Map4_Set_CPU_Banks
                0x020251e0                Map4_Set_PPU_Banks
                0x020253a0                Map4_Write
                0x020255f8                Map4_Init
                0x020257bc                Map23_HSync
                0x02025814                Map25_Sync_Vrom
                0x02025884                Map25_Write
                0x02025aa8                Map33_HSync
                0x02025b00                Map44_Set_CPU_Banks
                0x02025be4                Map44_Set_PPU_Banks
                0x02025d80                Map44_Write
                0x02025f94                Map44_Init
                0x02026144                Map46_Set_ROM_Banks
                0x0202627c                Map46_Write
                0x020262a4                Map46_Sram
                0x020262c4                Map46_Init
                0x020263bc                Map47_Set_CPU_Banks
                0x020264a0                Map47_Set_PPU_Banks
                0x0202663c                Map47_Write
                0x02026804                Map47_Sram
                0x02026840                Map47_Init
                0x020269f0                Map49_Set_CPU_Banks
                0x02026b04                Map49_Set_PPU_Banks
                0x02026c98                Map49_Write
                0x02026e30                Map49_Sram
                0x02026e68                Map51_Set_CPU_Banks
                0x02027074                Map51_Sram
                0x020270a4                Map51_Write
                0x020270e8                Map51_Init
                0x02027204                Map68_SyncMirror
                0x020272d0                Map68_Write
                0x020274c4                Map74_Set_CPU_Banks
                0x0202759c                Map74_Set_PPU_Banks
                0x0202775c                Map74_Write
                0x020279b4                Map74_Init
                0x02027b84                Map90_Sync_Mirror
                0x02027c8c                Map90_Sync_Chr_Banks
                0x02027f10                Map90_Sync_Prg_Banks
                0x020281d8                Map90_Write
                0x0202837c                Map95_Set_CPU_Banks
                0x02028454                Map95_Set_PPU_Banks
                0x020285c4                Map95_Write
                0x02028724                Map95_Init
                0x02028890                Map96_Set_Banks
                0x0202891c                Map96_PPU
                0x0202894c                Map96_Write
                0x020289f0                Map96_Init
                0x02028b24                Map100_Set_CPU_Banks
                0x02028bc4                Map100_Set_PPU_Banks
                0x02028cb0                Map100_Write
                0x02028fa0                Map100_Init
                0x02029198                Map109_Set_PPU_Banks
                0x02029288                Map109_Apu
                0x020293bc                Map109_Init
                0x0202951c                Map112_Set_CPU_Banks
                0x020295f4                Map112_Set_PPU_Banks
                0x02029764                Map112_Write
                0x02029980                Map112_Init
                0x02029b28                Map114_Set_CPU_Banks
                0x02029c00                Map114_Set_PPU_Banks
                0x02029d70                Map114_Write
                0x02029f70                Map114_Sram
                0x0202a068                Map114_Init
                0x0202a210                Map115_Set_CPU_Banks
                0x0202a388                Map115_Set_PPU_Banks
                0x0202a550                Map115_Sram
                0x0202a590                Map115_Write
                0x0202a754                Map115_Init
                0x0202a964                Map116_Set_CPU_Banks
                0x0202aa28                Map116_Set_PPU_Banks
                0x0202abf0                Map116_Write
                0x0202ada0                Map116_Init
                0x0202afb0                Map118_Set_CPU_Banks
                0x0202b088                Map118_Set_PPU_Banks
                0x0202b21c                Map118_Write
                0x0202b414                Map118_Init
                0x0202b5e0                Map119_Set_CPU_Banks
                0x0202b6b8                Map119_Set_PPU_Banks
                0x0202bb7c                Map119_Write
                0x0202bd90                Map119_Init
                0x0202bf20                Map135_Set_PPU_Banks
                0x0202c018                Map135_Apu
                0x0202c198                Map135_Init
                0x0202c2f0                Map187_Set_CPU_Banks
                0x0202c38c                Map187_Apu
                0x0202c430                Map187_Init
                0x0202c59c                Map187_Set_PPU_Banks
                0x0202c660                Map187_Write
                0x0202c8e0                Map191_Set_CPU_Banks
                0x0202c970                Map191_Set_PPU_Banks
                0x0202ca64                Map191_Apu
                0x0202cb24                Map191_Init
                0x0202cc6c                Map202_WriteSub
                0x0202cdcc                Map202_Write
                0x0202cdd8                Map202_Apu
                0x0202cde4                Map234_Set_Banks
                0x0202cf64                Map234_Write
                0x0202cfc4                Map248_Set_CPU_Banks
                0x0202d09c                Map248_Set_PPU_Banks
                0x0202d214                Map248_Write
                0x0202d354                Map248_Init
                0x0202d4ec                Map251_Set_Banks
                0x0202d724                Map251_Sram
                0x0202d778                Map251_Write
 .text          0x0202d7e8     0x1de0 obj\Debug\\code\infoNES\infoNES_SRC\src\InfoNES_pAPU.o
                0x0202d7e8                ApuWriteC1a
                0x0202d82c                ApuWriteC1b
                0x0202d870                ApuWriteC1c
                0x0202d8b4                ApuWriteC1d
                0x0202d8f8                ApuWriteC2a
                0x0202d93c                ApuWriteC2b
                0x0202d980                ApuWriteC2c
                0x0202d9c4                ApuWriteC2d
                0x0202da08                ApuWriteC3a
                0x0202da4c                ApuWriteC3b
                0x0202da90                ApuWriteC3c
                0x0202dad4                ApuWriteC3d
                0x0202db18                ApuWriteC4a
                0x0202db5c                ApuWriteC4b
                0x0202dba0                ApuWriteC4c
                0x0202dbe4                ApuWriteC4d
                0x0202dc28                ApuWriteC5a
                0x0202dc6c                ApuWriteC5b
                0x0202dcb0                ApuWriteC5c
                0x0202dcf4                ApuWriteC5d
                0x0202dd38                ApuWriteControl
                0x0202dd7c                ApuWriteWave1
                0x0202df3c                ApuRenderingWave1
                0x0202e0e0                ApuWriteWave2
                0x0202e2a0                ApuRenderingWave2
                0x0202e448                ApuWriteWave3
                0x0202e63c                ApuRenderingWave3
                0x0202e7bc                ApuWriteWave4
                0x0202e9a0                ApuRenderingWave4
                0x0202eb04                ApuWriteWave5
                0x0202ed18                ApuRenderingWave5
                0x0202f1a8                InfoNES_pAPUVsync
                0x0202f25c                InfoNES_pAPUInit
                0x0202f5bc                InfoNES_pAPUDone
 .text          0x0202f5c8     0x38c8 obj\Debug\\code\infoNES\infoNES_SRC\src\K6502.o
                0x0202ffc8                K6502_Init
                0x020301b4                K6502_Reset
                0x02030240                K6502_Set_Int_Wiring
                0x02030258                K6502_Step
 .text          0x02032e90      0x390 obj\Debug\\code\infoNES\infoNES_System\InfoNES_System.o
                0x02032e90                make_zoom_tab
                0x02032f04                InfoNES_Menu
                0x02032f18                InfoNES_ReadRom
                0x02032ff0                InfoNES_ReleaseRom
                0x02033038                lcd_fb_display_px
                0x02033054                InfoNES_LoadFrame
                0x020330c8                InfoNES_PadState
                0x020330d4                InfoNES_MemoryCopy
                0x020330f0                InfoNES_MemorySet
                0x0203310c                InfoNES_DebugPrint
                0x02033118                InfoNES_SoundInit
                0x02033124                InfoNES_SoundOpen
                0x0203313c                InfoNES_SoundClose
                0x02033150                InfoNES_SoundOutput
                0x0203315c                InfoNES_Wait
                0x02033168                InfoNES_MessageBox
                0x02033174                infones_task
 .text          0x02033220       0xcc obj\Debug\\code\key\adc_scan.o
                0x02033220                adc_scan_process
                0x02033288                adc_scan_init
 .text          0x020332ec       0x98 obj\Debug\\code\key\key_drv_ad.o
                0x020332ec                ad_key0_init
                0x02033314                ad_key0_get_value
                0x02033348                ad_key0_pressed_to_msg
 .text          0x02033384      0x2e8 obj\Debug\\code\key\key_drv_manager.o
                0x02033384                key_scan_process
                0x02033610                key_disable
                0x02033624                get_keystatus
                0x02033634                key_drv_init
 .text          0x0203366c       0xd8 obj\Debug\\code\key\powercheck.o
                0x0203366c                get_power_value
                0x02033694                power_scan
                0x0203371c                pwr_check_init
                0x02033734                get_power_level
 .text          0x02033744      0x5d4 obj\Debug\\code\start\car_fs_api.o
                0x02033744                fs_mutex_init
                0x0203377c                fs_wait_data_ok
                0x020337b8                fs_data_ok
                0x020337f0                file_io_init
                0x020338a4                mute_f_rename
                0x020338dc                mute_f_chdir
                0x02033910                mute_f_mkdir
                0x02033948                mute_f_delete
                0x0203397c                mute_f_emu
                0x020339b8                mute_f_get_free_space
                0x020339ec                mute_f_mkfs_drv
                0x02033a20                mutex_f_Open
                0x02033a78                mutex_f_Write
                0x02033ab4                mutex_f_Read
                0x02033af0                mutex_f_Seek
                0x02033b2c                mutex_f_Tell
                0x02033b60                mutex_f_Close
                0x02033b90                read_file
                0x02033c78                mutex_f_Size
                0x02033cb0                mutex_f_size
                0x02033ce4                mutex_f_get_file_attr
 .text          0x02033d18     0x186c obj\Debug\\code\start\dec_mode.o
                0x02033d18                kick_startframe
                0x02033d70                test_putf
                0x02033dd0                ff_fr_tctrl
                0x02033e54                dec_app_task
                0x0203530c                get_current_decPic_inf
                0x0203532c                get_current_decfile_inf
                0x02035394                get_current_frame
                0x020353c8                get_fieltotal_time
                0x02035490                get_flie_current_palytime
                0x02035560                set_del_allfile_mark
                0x02035574                get_del_allfile_mark
 .text          0x02035584     0x2c5c obj\Debug\\code\start\enc_mode.o
                0x02035584                enc_usb_charge
                0x02035600                av_in_insert
                0x02035710                motion_det_func
                0x020358dc                enc_skip_frame
                0x02035944                disp_note_m154_power_off
                0x02035a0c                malloc_hook
                0x02035a18                free_hook
                0x02035a24                en0_set_time_lapse_photography
                0x02035a5c                get_usb_charg_status
                0x02035a6c                set_usb_charg_status
                0x02035a7c                clear_usb_charg_status
                0x02035a8c                usb_charg_off_stop_video
                0x02035aa4                usb_off_stop_video_cnt
                0x02035b8c                get_disp_note_m154_status
                0x02035b9c                set_disp_note_m154_status
                0x02035bac                clear_disp_note_m154_status
                0x02035bbc                disp_note_m154_timer_reg
                0x02035bd4                timetosavefile
                0x02035be0                mic_mute_fun
                0x02035bf8                disable_voice
                0x02035c1c                enc_app_task
                0x02038128                motion_det_if
                0x0203813c                get_parking_status
                0x0203814c                av_in_check_init
                0x02038190                set_video_osd_en
                0x020381b8                set_pic_osd_en
 .text          0x020381e0      0xd20 obj\Debug\\code\start\main.o
                0x020381e0                exception_isr
                0x02038274                set_audio_clk
                0x0203829c                set_special_flag
                0x020382ac                start_stop_malloc
                0x020382cc                pic_malloc
                0x020382ec                lvd_cfg
                0x02038328                disp_buf_init
                0x020383b0                get_power_ctrl_flag
                0x020383c0                first_power_crtl
                0x0203849c                lvd_reset_ctrl
                0x02038580                start_task
                0x02038d58                lcd_test
                0x02038d64                main
 .text          0x02038f00      0xf20 obj\Debug\\code\start\mode_switch.o
                0x02038f00                check_imc_isr
                0x0203900c                unlock_all_file_ctrl
                0x020390f8                mode_sched
                0x02039d74                sw_key_msg
                0x02039dc8                get_current_mode
                0x02039dd8                init_sys_status
                0x02039e04                start_run
 .text          0x02039e20      0xc98 obj\Debug\\code\start\pwr_onoff.o
                0x02039e20                sofware_reset
                0x02039e6c                power_onoff_init
                0x02039ee8                power_get_status
                0x02039ef8                power_on
                0x02039f20                set_pr_io
                0x02039f2c                auto_power_off_ctrl
                0x0203a04c                cfg_pdflag
                0x0203a08c                power_off
                0x0203a6d8                pwr_key_check
                0x0203a798                read_pdflag
                0x0203a7b4                check_firsttime_power
                0x0203a8c4                check_firsttime_power_tmp
                0x0203a9e4                clear_wakeu_pend
 .text          0x0203aab8       0x9c obj\Debug\\code\start\reg.o
                0x0203aab8                ISR_PUSH_REG
                0x0203aafe                ISR_POP_REG
                0x0203ab4c                __udivsi3
                0x0203ab50                __divsi3
 .text          0x0203ab54      0xb74 obj\Debug\\code\start\usb_mode.o
                0x0203abe4                usb_audio_volume_del
                0x0203acf0                set_usb_camera_open
                0x0203ad00                usb_camera_is_open
                0x0203ad10                uvc_arg_init
                0x0203ad44                uac_arg_init
                0x0203ad70                usb_fun_ctrl
                0x0203aeac                usb_slave_msg_ctrl
                0x0203b084                USB_CHARGE_INIT
                0x0203b0c4                USB_IS_INSERT
                0x0203b0e0                usb_charge_detect_init
                0x0203b0ec                usb_is_chargeing
                0x0203b108                usb_charge_detect
                0x0203b2dc                app_usb_reg
                0x0203b330                usb_app_task
 .text          0x0203b6c8        0x0 obj\Debug\\code\tft_panel\ILI8960.o
 .text          0x0203b6c8        0x0 obj\Debug\\code\tft_panel\ILI8961.o
 .text          0x0203b6c8        0x0 obj\Debug\\code\tft_panel\ILI9163.o
 .text          0x0203b6c8      0x948 obj\Debug\\code\tft_panel\ILI9325.o
                0x0203b6c8                tft_reset
                0x0203b71c                tft_SetForRW
                0x0203b76c                Trans_Com_16
                0x0203b7bc                Trans_Dat_16
                0x0203b80c                tft_wrReg
                0x0203b86c                tft_rdReg
                0x0203b8d0                tft_WriteByDMA
                0x0203b904                tft_SetPos
                0x0203b934                tft_SetRange
                0x0203b9b8                tft_ClearArea
                0x0203ba70                tft_ReadOnePixel
                0x0203bac8                tft_ReadMultiPixel
                0x0203bbc0                tft_drv_init
                0x0203bd2c                tft_ClearScreen
                0x0203bda0                tft_SetColor
                0x0203bdb0                tft_init_9325
                0x0203be24                imb_disp_init
 .text          0x0203c010        0x0 obj\Debug\\code\tft_panel\LCD_RM68116.o
 .text          0x0203c010        0x0 obj\Debug\\code\tft_panel\LQ026B3UX01.o
 .text          0x0203c010        0x0 obj\Debug\\code\tft_panel\SSD1963.o
 .text          0x0203c010        0x0 obj\Debug\\code\tft_panel\ST7735S.o
 .text          0x0203c010        0x0 obj\Debug\\code\tft_panel\T15P00.o
 .text          0x0203c010       0xc8 obj\Debug\\code\tft_panel\avout.o
                0x0203c010                avout_init
 .text          0x0203c0d8        0x0 obj\Debug\\code\tft_panel\disp_43inch.o
 .text          0x0203c0d8        0x0 obj\Debug\\code\tft_panel\disp_8inch.o
 .text          0x0203c0d8        0x0 obj\Debug\\code\tft_panel\disp_JC4301.o
 .text          0x0203c0d8      0x1ec obj\Debug\\code\tft_panel\pap.o
                0x0203c0d8                pap_init
                0x0203c108                pap_write16
                0x0203c16c                pap_write
                0x0203c1a4                pap_read
                0x0203c244                pap_dma_read
                0x0203c288                pap_dma_write
 .text          0x0203c2c4      0x808 obj\Debug\\code\upgrade\upgrade.o
                0x0203c2c4                get_upgrade_filename
                0x0203c2d8                set_upgrade_filename
                0x0203c2f4                femu_ext_callback
                0x0203c370                scan_upgrade_file_ext
                0x0203c384                get_upgrade_mode
                0x0203c3c0                check_cmd_zone
                0x0203c470                get_flash_upgrade_addr
                0x0203c554                CRC16_noinit
                0x0203c578                check_upgrade_file_info
                0x0203c8dc                upgrade_set_info
                0x0203c950                upgrade_check
 .text          0x0203cacc      0x96c ..\..\..\libs\lib_vds.a(vds.o)
                0x0203cae4                vds_init
                0x0203caf0                vds_open
                0x0203cb1c                vds_close
                0x0203cb68                vds_ioctrl
 .text          0x0203d438      0x4f8 ..\..\..\libs\lib_vds.a(jpeg_dec_ctl.o)
                0x0203d438                jpeg_dec_task
                0x0203d5ec                jpg_dec_deal_wait_data
                0x0203d620                vds_jpeg_dec_open
                0x0203d7b8                jpg_dec_fbegin
                0x0203d814                vds_jpeg_dec_stop
                0x0203d868                vds_jpeg_dec_abort_stop
                0x0203d888                vds_jpeg_dec_close
 .text          0x0203d930      0xa54 ..\..\..\libs\lib_vds.a(jpeg_dec_unpkg.o)
                0x0203db90                jpeg_dec_unpkg_stop
                0x0203dc6c                jpeg_dec_unpkg_abort_stop
                0x0203dd10                jpeg_dec_unpkg_close
                0x0203de0c                unpkg_set_avi_file
                0x0203df00                jpeg_dec_yuv_out
                0x0203dffc                jpeg_dec_read_pic
                0x0203e0ec                jpg_dec_set_begin_flag
                0x0203e0fc                jpg_dec_wait_fend
                0x0203e12c                jpg_dec_frame_end
                0x0203e13c                jpgdec_init_data_notify
                0x0203e168                jpeg_dec_unpkg_open
                0x0203e328                jpgdec_wait_data_ok
                0x0203e358                jpgdec_notify_data_ok
 .text          0x0203e384     0x11ac ..\..\..\libs\lib_ves.a(ves.o)
                0x0203e384                jpg_jumpf
                0x0203e3a4                jpg_isstop
                0x0203e454                ves_get_ptr
                0x0203e4ac                ves_init
                0x0203e520                ves_open
                0x0203e55c                ves_imc_enc_init
                0x0203e754                ves_avin_init
                0x0203e79c                ves_dsensor_init
                0x0203e7dc                ves_ioctrl
                0x0203f2c8                ves_stop_imc_enc0
                0x0203f300                ves_start_imc_enc0
                0x0203f328                ves_is_enc0_isr
                0x0203f368                ves_is_dsc0_isr
                0x0203f39c                ves_isp0_isr
                0x0203f3d4                ves_skip_fr
                0x0203f448                ves_usb_ioctrl
                0x0203f4f0                ves_close
 .text          0x0203f530      0x640 ..\..\..\libs\lib_ves.a(avi_pkg_ctrl.o)
                0x0203f6c8                avi_pkg_ctrl_open
                0x0203f87c                avi_pkg_vid_func
                0x0203f8a0                avi_pkg_vid_func_end
                0x0203f8c0                avi_pkg_aud_func
                0x0203f928                avi_pkg_aud_func_end
                0x0203f948                avi_pkg_creat_task
                0x0203faf4                avi_pkg_stop
                0x0203fb60                avi_pkg_clr_buf
 .text          0x0203fb70      0x24c ..\..\..\libs\lib_ves.a(jpeg_enc_ctrl.o)
                0x0203fb70                jpeg_venc_open
                0x0203fd20                jpeg_venc_ioctrl
 .text          0x0203fdbc      0x30c ..\..\..\libs\lib_ves.a(jpeg_pkg_ctrl.o)
                0x0203fdbc                jpeg_frame_end
                0x0203fdd8                jpg_fs_write
                0x0203fde0                jpg_fs_read
                0x0203fde8                jpg_fs_seek
                0x0203fdf8                jpg_fs_tell
                0x0203fe00                jpg_fs_close
                0x0203fe08                jpeg_output
                0x0203fed8                jpg_bits_free
                0x0203ff14                jpeg_mutex_init
                0x0203ff40                jpeg_wait_data_ok
                0x0203ff70                jpeg_data_ok
                0x0203ff9c                jpg_pkg_tack_photo
                0x02040018                jpg_pkg_ctrl_open
 .text          0x020400c8       0x9c ..\..\..\libs\lib_jpeg_dec.a(jpeg_dec_if.o)
                0x02040144                get_jpeg0_dec_ops
                0x02040154                get_jpeg1_dec_ops
 .text          0x02040164      0x330 ..\..\..\libs\lib_jpeg_dec.a(jpeg_dec_isr.o)
                0x02040164                handle__jpeg0_dec_isr
                0x02040188                handle__jpeg1_dec_isr
                0x020401ac                jpeg_dec_isr
                0x020403c0                jpeg1_dec_isr
                0x020403ec                jpeg0_dec_isr
                0x02040410                jpg_dec_is_fend
                0x02040438                jpg_dec_fnum
                0x02040444                jpg_dec_set_fnum
                0x02040450                jpg_dec_sem_init
                0x02040460                jpg_dec_wait_data_ok
                0x02040488                jpg_dec_data_ok
 .text          0x02040494      0x8f0 ..\..\..\libs\lib_jpeg_dec.a(jpeg_decode.o)
                0x0204049c                jpeg_decode_open
                0x02040538                jpeg_dec_head
                0x02040674                jpeg_dec_start
                0x02040a8c                jpeg_dec_stop
                0x02040af8                jpeg_dec_abort_stop
                0x02040b38                jpeg_dec_close
                0x02040b84                jpeg_YCbCr2RGB
 .text          0x02040d84      0x61c ..\..\..\libs\lib_jpeg_dec.a(jpeg_dec_head.o)
                0x02040d84                jpeg_fun_C0
                0x02040e20                jpeg_fun_DB
                0x02040ebc                jpeg_fun_DD
                0x02040f0c                jpeg_fun_DA
                0x02040f94                jpeg_fun_C4
                0x020410b4                jpeg_dec_find_restart
                0x020410f0                jpeg_loadData
                0x020410fc                jpeg_dec_get_restart
                0x02041180                jpeg_dec_reset_restart
                0x020411fc                jpeg_FindKeyByte
                0x0204123c                jpg_read_one_pic
                0x02041294                JPG_ReadFileHead
 .text          0x020413a0      0x334 ..\..\..\libs\lib_jpeg_enc.a(jpeg_enc_if.o)
                0x020413a0                jpg_timer_isr
                0x02041448                jpeg_enc_close
                0x0204144c                jpeg1_enc_init
                0x02041480                jpeg_enc_init
                0x020414b4                get_jpeg0_enc_ops
                0x020414c4                get_jpeg1_enc_ops
                0x020414d4                jpeg_get_vram
                0x020414e0                jpg_timer_open
                0x02041534                jpeg_enc_open
                0x020415a0                jpg_timer_close
                0x020415b4                jpeg_enc_start
                0x020415f0                jpeg_enc_restart
                0x02041600                jpeg_enc_set_imc_parm
                0x02041634                jpeg_enc_frame_cnt
                0x02041640                jpeg_enc_stop
                0x02041660                jpeg_enc_ioctrl
                0x020416c0                jpeg_enc_is_stop
                0x020416c4                jpeg_enc_manual_kstart
                0x020416c8                jpeg_enc_manual_status
 .text          0x020416d4      0x250 ..\..\..\libs\lib_jpeg_enc.a(jpeg_encode.o)
                0x020416d4                jpeg_encode_kstart
                0x02041720                jpeg_encode_bitbuf_init
                0x0204187c                jpeg_encode_close
 .text          0x02041924      0x59c ..\..\..\libs\lib_jpeg_enc.a(jpeg_encode_init.o)
                0x02041924                jpeg_init_huff_info
                0x02041940                jpeg_phy_init_sfr
                0x020419fc                update_std_huffman
                0x02041a78                jpeg_phy_init
                0x02041b20                jpeg_encode_init
                0x02041eb4                jpeg_enc_output_register
 .text          0x02041ec0      0x5bc ..\..\..\libs\lib_jpeg_enc.a(jpeg_encode_isr.o)
                0x02041f48                jpeg_free_fb
                0x02041f6c                jpeg_encode_start
                0x02042054                jpeg_encode_manual_kstart
                0x020420c0                jpeg_encode_stop
                0x02042158                jpeg_jump_frame
                0x02042164                jpeg_stop_abort
                0x02042184                jpeg_encode_is_stop
                0x020421a4                jpeg_encode_isr
                0x020423ec                jpg1_enc_isr
                0x02042410                jpg0_enc_isr
                0x02042434                handle__jpg0_enc_isr
                0x02042458                handle__jpg1_enc_isr
 .text          0x0204247c      0xb4c ..\..\..\libs\lib_jpeg_enc.a(Build_dynamic_huffman.o)
                0x0204247c                quick_sort_desc
                0x02042514                quick_sort_asc
                0x020425ac                SortValue
                0x020425d4                AdjustBits
                0x02042654                CountBits
                0x020426b0                HaffmanCode
                0x020426f0                GetCodeSize
                0x02042828                begin_haffman
                0x020428ec                BuildSTDHuffTab
                0x02042938                set_huffman_status
                0x02042948                get_huffman_status
                0x02042958                set_read_huff_freq_enable
                0x02042968                read_huff_freq_enable
                0x02042978                set_calc_huffman_enable
                0x02042988                calc_huffman_enable
                0x02042998                set_huff_first_frame
                0x020429c8                is_huff_first_frame
                0x020429e0                huffman_init
                0x02042a90                huffman_uninit
                0x02042ac4                update_huff_freq_data
                0x02042b8c                build_huffman
                0x02042d4c                build_Dynamic_Huffman
                0x02042da0                updata_huffman
                0x02042e34                update_DHT
                0x02042f54                updata_huffman_info
 .text          0x02042fc8      0x100 ..\..\..\libs\lib_jpeg_enc.a(jpeg_abr.o)
                0x02042fc8                jpeg_abr_init
                0x02043038                jpeg_abr_update
                0x020430bc                jpeg_abr_uninit
 .text          0x020430c8      0x104 ..\..\..\libs\lib_avi_unpkg.a(avi_unpkg_if.o)
                0x020430c8                avi_unpkg_init
                0x020430d8                avi_unpkg_open
                0x020430ec                avi_unpkg_ioctrl
                0x020431a4                avi_unpkg_close
                0x020431b8                get_avi_unpkg_ops
 .text          0x020431cc      0xce8 ..\..\..\libs\lib_avi_unpkg.a(avi_unpkg.o)
                0x020431cc                avi_unpkg_ctrl_open
                0x02043538                avi_unpkg_ctrl
                0x02043a54                avi_unpkg_wait_buf
                0x02043a98                avi_unpkg_wait_buf_timeout
                0x02043ac8                avi_unpkg_set_buf
                0x02043ae0                avi_unpkg_status
                0x02043af4                avi_unpkg_set_stop
                0x02043b1c                avi_unpkg_set_pause_run
                0x02043b48                avi_unpkg_ctrl_stop
                0x02043b60                avi_unpkg_ctrl_close
                0x02043be4                avi_unpkg_ff_fr_ctrl
                0x02043d5c                unpkg_set_differ_sigal
                0x02043e3c                avi_unpkg_rvid
                0x02043e54                avi_unpkg_raud
 .text          0x02043eb4      0x75c ..\..\..\libs\lib_avi_unpkg.a(avi_unpkg_aud.o)
                0x02044274                avi_unpkg_jump_aframe
                0x020443bc                avi_unpkg_search_aframe
                0x0204441c                avi_unpkg_get_adat
                0x02044598                avi_unpkg_aend
                0x020445c0                avi_unpkg_raud_init
 .text          0x02044610      0x1a0 ..\..\..\libs\lib_avi_unpkg.a(avi_unpkg_dev.o)
                0x02044610                avi_unpkg_fs_init
                0x02044680                avi_unpkg_fs_seek
                0x02044734                avi_unpkg_fs_read
                0x02044768                avi_unpkg_fs_fptr
                0x0204479c                avi_unpkg_fs_fsize
 .text          0x020447b0      0x5e8 ..\..\..\libs\lib_avi_unpkg.a(avi_unpkg_head.o)
                0x02044b00                avi_unpkg_head
 .text          0x02044d98      0x730 ..\..\..\libs\lib_avi_unpkg.a(avi_uppkg_vid.o)
                0x02045174                avi_unpkg_jump_vframe
                0x020452bc                avi_unpkg_get_vdat
                0x02045464                avi_unpkg_vend
                0x02045478                avi_unpkg_rvid_init
 .text          0x020454c8      0x17c ..\..\..\libs\lib_avi_pkg.a(avi_pkg_if.o)
                0x020454c8                avi_pkg_init
                0x020454d4                avi_pkg_open
                0x020454f8                avi_pkg_start
                0x02045520                avi_pkg_ioctrl
                0x02045620                avi_pkg_close
                0x02045634                get_avi_pkg_ops
 .text          0x02045644      0x3b8 ..\..\..\libs\lib_avi_pkg.a(avi_pkg_dev.o)
                0x02045644                avi_pkg_fs_init
                0x0204575c                avi_pkg_fs_seek
                0x02045784                avi_pkg_fs_write
                0x020457f0                avi_pkg_fs_read
                0x02045818                avi_pkg_fs_close
                0x0204586c                avi_pkg_fs_fptr
                0x020458a8                avi_pkg_wfsv_open
                0x020458f8                avi_pkg_wfsv_start
                0x02045938                avi_pkg_wfsv_close
                0x02045958                avi_pkg_wfsv_stop
                0x02045978                avi_pkg_wfsv_write
                0x0204599c                avi_pkg_wfsv_tell
                0x020459bc                avi_pkg_wfsv_df
                0x020459dc                avi_pkg_wfsv_clr_fb
 .text          0x020459fc      0xdb4 ..\..\..\libs\lib_avi_pkg.a(avi_pkg.o)
                0x020459fc                avi_pkg_ctr_start
                0x02045d3c                avi_pkg_ctr_open
                0x02045f6c                avi_pkg_ctr
                0x02046244                avi_pkg_set_stop
                0x02046264                avi_pkg_status
                0x02046270                avi_pkg_add_skip_frame
                0x0204628c                avi_pkg_clr_fb
                0x02046324                avi_pkg_ctr_stop
                0x020463fc                avi_pkg_ctr_close
                0x02046518                avi_pkg_vid_din
                0x02046524                avi_pkg_vid_dend
                0x020465bc                avi_pkg_aud_din
                0x020467a4                avi_pkg_aud_dend
 .text          0x020467b0       0x10 ..\..\..\libs\lib_avi_pkg.a(avi_pkg_head.o)
                0x020467b0                avihead_get_ptr
 .text          0x020467c0     0x15dc ..\..\..\libs\lib_avi_pkg.a(avi_pkg_idx.o)
                0x020467c0                avi_pkg_idx_junk
                0x02046850                avi_pkg_idx_skip_frame
                0x020468f8                avi_pkg_idx_fill
                0x02046ac4                avi_pkg_idx_num
                0x02046afc                avi_pkg_idx_flush
                0x020472a4                avi_pkg_idx_updata_head
 .text          0x02047d9c      0xd40 ..\..\..\libs\lib_malloc.a(mem_heap.o)
                0x02047d9c                mem_stats_init
                0x02047dbc                malloc_stats
                0x020481cc                free
                0x0204837c                malloc
                0x02048760                calloc
                0x02048794                realloc
 .text          0x02048adc      0x460 ..\..\..\libs\libsd1.a(mango_dev_sd1.o)
                0x02048d48                sd1h_dev_mount
                0x02048e00                dev_reg_sd1
                0x02048e6c                SD1_SEM_INIT
                0x02048e88                SD1_DELAY_MS
                0x02048eac                SD1_SEM_PEND
                0x02048f08                SD1_SEM_POST
                0x02048f20                SD1_SEM_DEL
 .text          0x02048f3c       0x88 ..\..\..\libs\libsd1.a(sd_host_init.o)
                0x02048f3c                sd1_host_init
                0x02048f90                sd1_set_clk
 .text          0x02048fc4      0x110 ..\..\..\libs\libsd1.a(sd_host_read_end.o)
                0x02048fc4                sd1_read_end
 .text          0x020490d4       0x40 ..\..\..\libs\libsd1.a(sd_host_unmount.o)
                0x020490d4                sd1_unmount
 .text          0x02049114      0x11c ..\..\..\libs\libsd1.a(sd_host_write_end.o)
                0x02049114                sd1_write_end
 .text          0x02049230      0x384 ..\..\..\libs\libsd1.a(sdmmc_init.o)
                0x02049230                sd1_port_init
                0x020493c4                sd1_lowlevel_init
                0x02049414                sd1_init
                0x020495a4                sd1_set_port_out
 .text          0x020495b4       0x38 ..\..\..\libs\libsd1.a(suspend_sdmmc.o)
                0x020495b4                sd1_suspend
 .text          0x020495ec       0xec ..\..\..\libs\libsd1.a(sd_host_send_csd.o)
                0x020495ec                sd1_host_send_csd
                0x020496c8                sd1_get_capacity
 .text          0x020496d8       0x74 ..\..\..\libs\libsd1.a(sd_host_stop_trans.o)
                0x020496d8                sd1_host_stop_trans
 .text          0x0204974c      0x300 ..\..\..\libs\libsd1.a(sd_host_hw.o)
                0x0204974c                sd1_cmd_check
                0x02049820                sd1_isr_oc
                0x02049930                sd1_isr
                0x02049a28                handle(short, double, _, int, short, long double)
 .text          0x02049a4c       0x5c ..\..\..\libs\libsd1.a(sd_wait_idle.o)
                0x02049a4c                sd1_wait_idle
 .text          0x02049aa8      0x2c4 ..\..\..\libs\libsd1.a(sdmmc_det.o)
                0x02049aa8                sd1_is_online
                0x02049ab8                sd1_io_det
                0x02049b0c                sd1_clk_det
                0x02049cf8                sd1_cmd_det_init
                0x02049d10                sd1_cmd_det
 .text          0x02049d6c      0x420 ..\..\..\libs\libsd1.a(sd_host_reg.o)
                0x02049d6c                SD1_CMD_MODE
                0x02049d88                SD1_CMD_CRC
                0x02049d98                SD1_8CLK_EN
                0x02049db0                SD1_CMD_TIMEOUT
                0x02049dc0                CLR_SD1_CMD_PENDING
                0x02049dd0                SD1_CMD_PENDING
                0x02049de4                SD1_DAT_MODE
                0x02049e00                SD1_CTU_MODE
                0x02049e1c                SD1_DAT_CRC
                0x02049e30                SD1_DAT_8CLK_EN
                0x02049e48                SD1_SET_4WIRE_MODE
                0x02049e60                CLR_SD1_DAT_PENDING
                0x02049e70                CLR_SD1_CTU_PENDING
                0x02049e84                CLR_SD1_CTU_DATA_PENDING
                0x02049e94                CLR_SD1_CTU_ERR_PENDING
                0x02049ea4                SD1_DAT_PENDING
                0x02049eb4                SD1_CTU_DATA_PENDING
                0x02049ec8                SD1_CTU_ERR_PENDING
                0x02049ed8                SD1_CONTROLLER_RESET
                0x02049efc                SD1_CONTROLLER_EN
                0x02049f34                SD1_CRC_STATE
                0x02049f44                SD1_DAT_EDGE
                0x02049f5c                SD1_IDLE_CLK_EN
                0x02049f74                SD1_CMD_IE
                0x02049f8c                SD1_CTU_IE
                0x02049fb8                SD1_CTU_DATA_IE
                0x02049fe0                SD1_CTU_ERR_IE
                0x0204a008                SD1_DAT_IE
                0x0204a020                SD1_BAUD
                0x0204a038                SD1_BLOCK_WRITE_CRC_ERR
                0x0204a050                SET_SD1_CMD_PTR
                0x0204a060                SET_SD1_DAT_PTR
                0x0204a070                SET_SD1_CNT
                0x0204a080                SD1_SET_CTU_CNT
                0x0204a090                sd1_send_command_isr
                0x0204a104                sd1_active_check
                0x0204a15c                sd1_idle_check
 .text          0x0204a18c       0x94 ..\..\..\libs\libsd1.a(sd_send_command.o)
                0x0204a18c                sd1_send_command
 .text          0x0204a220       0x88 ..\..\..\libs\libsd1.a(sd_host_status.o)
                0x0204a220                sd1_host_status
 .text          0x0204a2a8        0x0 ..\..\..\libs\libsd1.a(sd_host_args.o)
 .text          0x0204a2a8       0xa8 ..\..\..\libs\libsd1.a(sd_host_mount.o)
                0x0204a2a8                sd1_mount
 .text          0x0204a350      0x11c ..\..\..\libs\libsd1.a(sd_host_read.o)
                0x0204a350                sd1_read
 .text          0x0204a46c       0x58 ..\..\..\libs\libsd1.a(sd_host_timeout.o)
                0x0204a46c                sd1_host_get_jiffies
                0x0204a470                sd1_host_timeout
 .text          0x0204a4c4      0x118 ..\..\..\libs\libsd1.a(sd_host_write.o)
                0x0204a4c4                sd1_write
 .text          0x0204a5dc       0x90 ..\..\..\libs\libsd1.a(sd_init.o)
                0x0204a5dc                sd1_init_card
 .text          0x0204a66c      0x394 ..\..\..\libs\libsd1.a(sdmmc_host_set_bus_width.o)
                0x0204a66c                sd1_set_bus_width
 .text          0x0204aa00       0xb4 ..\..\..\libs\libsd1.a(sdmmc_host_set_hispeed.o)
                0x0204aa00                sd1_set_hispeed
 .text          0x0204aab4       0x1c ..\..\..\libs\libsd1.a(mmc_host_send_rca.o)
                0x0204aab4                mmc1_host_send_rca
 .text          0x0204aad0       0x44 ..\..\..\libs\libsd1.a(mmc_host_set_bus_width.o)
                0x0204aad0                mmc1_host_set_bus_width
 .text          0x0204ab14       0x44 ..\..\..\libs\libsd1.a(mmc_host_set_hispeed.o)
                0x0204ab14                mmc1_host_set_hispeed
 .text          0x0204ab58        0xc ..\..\..\libs\libsd1.a(sd_host_all_send_cid.o)
                0x0204ab58                sd1_host_all_send_cid
 .text          0x0204ab64        0xc ..\..\..\libs\libsd1.a(sd_host_reset.o)
                0x0204ab64                sd1_host_reset
 .text          0x0204ab70       0xf0 ..\..\..\libs\libsd1.a(sd_host_sd_status.o)
                0x0204ab70                sd1_host_sd_status
 .text          0x0204ac60        0xc ..\..\..\libs\libsd1.a(sd_host_send_if_cond.o)
                0x0204ac60                sd1_host_send_if_cond
 .text          0x0204ac6c       0x2c ..\..\..\libs\libsd1.a(sd_host_send_rca.o)
                0x0204ac6c                sd1_host_send_rca
 .text          0x0204ac98       0x34 ..\..\..\libs\libsd1.a(sd_host_set_bus_width.o)
                0x0204ac98                sd1_host_set_bus_width
 .text          0x0204accc       0x98 ..\..\..\libs\libsd1.a(sd_host_set_hispeed.o)
                0x0204accc                sd1_host_set_hispeed
 .text          0x0204ad64       0x9c ..\..\..\libs\libsd1.a(sd_host_switch_func.o)
                0x0204ad64                sd1_host_switch_func
 .text          0x0204ae00       0x20 ..\..\..\libs\libsd1.a(sd_select_card.o)
                0x0204ae00                sd1_select_card
 .text          0x0204ae20       0xd4 ..\..\..\libs\libsd1.a(sd_send_scr.o)
                0x0204ae20                sd1_send_scr
 .text          0x0204aef4       0xa0 ..\..\..\libs\libsd1.a(sd_chk_ctl.o)
                0x0204aef4                sd1_chk_ctl
 .text          0x0204af94       0x44 ..\..\..\libs\libsd1.a(sd_read_start.o)
                0x0204af94                sd1_read_start
 .text          0x0204afd8       0x44 ..\..\..\libs\libsd1.a(sd_write_start.o)
                0x0204afd8                sd1_write_start
 .text          0x0204b01c       0xf0 ..\..\..\libs\libsd1.a(sd_host_identification.o)
                0x0204b01c                sd1_host_identification
 .text          0x0204b10c       0x10 ..\..\..\libs\libsd1.a(mmc_host_send_op_cond.o)
                0x0204b10c                mmc1_host_send_op_cond
 .text          0x0204b11c       0x18 ..\..\..\libs\libsd1.a(sd_host_app_cmd.o)
                0x0204b11c                sd1_host_app_cmd
 .text          0x0204b134       0x3c ..\..\..\libs\libsd1.a(sd_host_send_op_cond.o)
                0x0204b134                sd1_host_send_op_cond
 .text          0x0204b170      0x534 ..\..\..\libs\lib_imc_disp.a(dsc.o)
                0x0204b170                dsc_imb_open_tmp
                0x0204b328                dsc_open
                0x0204b434                dsc_close
                0x0204b4b0                dsc_start
                0x0204b608                dsc_stop
                0x0204b678                dsc_reset_start
 .text          0x0204b6a4     0x1890 ..\..\..\libs\lib_imb.a(imb_module.o)
                0x0204b6a4                imb_osd_pal_cfg
                0x0204b6fc                imb_osd_win_ctl
                0x0204b75c                imb_image_addr
                0x0204b7a8                imb_image_ctl_tmp
                0x0204b7f0                imb_image_ctl
                0x0204b808                imb_mask_cfg
                0x0204b818                imb_mask_ctl
                0x0204b83c                imb_isr_enable
                0x0204b860                imb_gain_cfg
                0x0204b928                imb_gma_rtab
                0x0204b940                imb_gma_gtab
                0x0204b958                imb_gma_btab
                0x0204b970                imb_set_r_gamma
                0x0204b998                imb_set_g_gamma
                0x0204b9c0                imb_set_b_gamma
                0x0204b9e8                imb_get_gain
                0x0204b9f8                imb_color_cfg
                0x0204be88                imb_open
                0x0204be98                imb_close
                0x0204bef8                imb_start
                0x0204bf90                imb_check_pnd
                0x0204bfa0                imb_wait_pnd
                0x0204bfb4                imb_clr_pnd
                0x0204bfc4                imb_wait_clr_pnd
                0x0204bfd4                imb_clk_ctl
                0x0204bff8                imb_clk_cfg
                0x0204c078                imb_clk_def_cfg
                0x0204c1dc                imb_get_dev_hdl
                0x0204c1ec                imb_init
                0x0204c950                imb_get_image_hdl
                0x0204c970                imb_image_cfg_tmp
                0x0204cb64                imb_image_cfg
                0x0204cbdc                video_disp_tmp
                0x0204cc0c                imb_get_osd_hdl
                0x0204cc78                imb_osd_win_buf
                0x0204ccdc                imb_osd_win_cfg
                0x0204cf28                imb_osd_buf_switch
 .text          0x0204cf34      0x39c ..\..\..\libs\lib_imb.a(cve_cfg.o)
                0x0204cf34                cve_pll1_init
                0x0204cfc0                cve_wr_reg
                0x0204cff4                cve_init
                0x0204d008                cve_dac_init
                0x0204d048                cve_cfg
 .text          0x0204d2d0      0x310 ..\..\..\libs\lib_imb.a(imb_isr.o)
                0x0204d2d0                imb_isr
                0x0204d4d0                imb0_suspend_fun
                0x0204d544                imb1_suspend_fun
                0x0204d5bc                handle__imb_isr
 .text          0x0204d5e0      0x2f0 ..\..\..\libs\lib_imc.a(imc_if.o)
                0x0204d5e0                imc_open
                0x0204d5fc                imc_close
                0x0204d60c                imc_ioctrl
                0x0204d8c0                get_imc_ops
 .text          0x0204d8d0      0x310 ..\..\..\libs\lib_imc.a(imc_rep.o)
                0x0204d8d0                imc_clr_rep
                0x0204d8ec                get_rep_info
                0x0204d950                imc_rep_frame_init
                0x0204da5c                imc_rep_kstart
                0x0204db0c                set_rep_end_status
                0x0204db74                imc_rep_is_close_toend
                0x0204dba4                imc_rep_is_end
 .text          0x0204dbe0     0x30f8 ..\..\..\libs\lib_imc.a(imc.o)
                0x0204dde4                ibuf_open
                0x0204dfb4                ibuf_close
                0x0204e008                imc_mount
                0x0204e108                imc_unmount
                0x0204e1a0                get_same_src_ch
                0x0204e214                imc_init
                0x0204e408                imc_uninit
                0x0204e480                imc_rep_init
                0x0204e4d0                imc_set_restart
                0x0204e4f8                imc_ch0_disp_open
                0x0204e8ac                imc_ch0_disp_close
                0x0204e938                imc_ch0_enc_open
                0x0204ed30                imc_ch0_enc_close
                0x0204eda0                imc_ch0_enc_open_without_wait
                0x0204f07c                imc_get_ch_status
                0x0204f0ac                imc_clr_enter
                0x0204f0e0                imc_get_enter
                0x0204f110                imc_ch0_enc_close_without_wait
                0x0204f25c                imc_ch1_disp_open
                0x0204f610                imc_ch1_disp_close
                0x0204f6a8                imc_ch1_enc_open
                0x0204faac                imc_ch1_enc_close
                0x0204fb1c                imc_osd_updata
                0x020505e0                imc_process_osd_fromat
                0x02050748                imc_osd_open
                0x02050c00                imc_osd_close
                0x02050cb4                imc_need_cut_frame
 .text          0x02050cd8      0xfac ..\..\..\libs\lib_imc.a(imc_cut.o)
                0x02050dd0                get_cut_frame_buffer
                0x02050de0                imc_free_cut_frame_buf
                0x02050df8                imc_init_cut_frame_buf
                0x02050e14                imc_init_compound_target_frame
                0x02050e30                get_compound_target_frame
                0x02050e40                imc_free_compound_target_frame
                0x02050e58                get_cut_frame
                0x02050e68                imc_init_cut_block
                0x020511c8                imc_destroy_cut_block
                0x02051230                cut_src_into_block
                0x020515a8                manual_compensation
                0x0205162c                imc_save_block_into_des
                0x020519c8                set_frame_pnd
                0x020519dc                is_frame_pnd
                0x020519ec                imc_cut_src_start
                0x020519fc                imc_cut_process
                0x02051a5c                imc_encode_block_reinit
                0x02051afc                imc_encode_block_process
 .text          0x02051c84      0xc8c ..\..\..\libs\lib_imc.a(imc_isr.o)
                0x02051e30                imc_isr
                0x020528ec                handle__imc_isr
 .text          0x02052910      0x73c ..\..\..\libs\lib_imc.a(lane_dect.o)
                0x02052910                get_ldet_hdl
                0x02052920                lane_dect_open
                0x02052c74                lane_dect_start
                0x02052da0                lane_dect_stop
                0x02052e20                lane_dect_close
                0x02052e78                lane_dect_one_frame
                0x02052ed4                lane_dect_post
                0x02052f60                lane_dect_warning
                0x02052f8c                lane_dect_clr_warning
                0x02052fb4                ldet_task
 .text          0x0205304c     0x1018 ..\..\..\libs\lib_vm.a(vm.o)
                0x02053454                _vm_write
                0x020535b4                vm_eraser
                0x02053694                vm_open
                0x020536ac                vm_close
                0x020536b8                vm_read
                0x020537f0                vm_status
                0x02053a9c                vm_init
                0x02053f0c                vm_defrag
                0x02053f3c                vm_write
 .text          0x02054064      0x5e4 ..\..\..\libs\lib_font.a(font_other_language.o)
                0x02054064                InitFont_OtherLanguage
                0x0205416c                InitFont_ASCII
                0x02054228                ConvertUTF16toOtherLanguage
                0x02054270                GetOtherLanguageCharacterData
                0x020542d4                TextOut_OtherLanguage
                0x02054408                TextOutW_OtherLanguage
                0x02054594                GetASCIICharacterData
                0x02054604                GetASCIICharacterWidth
 .text          0x02054648      0x45c ..\..\..\libs\lib_font.a(font_out.o)
                0x02054648                is_other_language
                0x02054660                font_init
                0x02054710                font_set_type
                0x0205474c                font_get_type
                0x0205475c                font_get_pixel_width
                0x0205477c                font_textout
                0x020548c0                font_textoutw
                0x02054a04                font_utf16toansi
                0x02054a94                font_get_language
 .text          0x02054aa4      0x74c ..\..\..\libs\lib_font.a(font_sjis.o)
                0x02054aa4                InitFont_SJIS
                0x02054cc4                GetSJISASCCharacterData
                0x02054d28                GetSJISCharacterData
                0x02054df0                ConvertUTF16toSJIS
                0x02054e90                TextOut_SJIS
                0x0205503c                TextOutW_SJIS
 .text          0x020551f0       0x94 ..\..\..\libs\lib_font.a(font_area_ctl.o)
                0x020551f0                font_set_range
                0x0205523c                font_get_width
                0x02055254                font_get_heigth
                0x0205526c                font_set_size
 .text          0x02055284      0x164 ..\..\..\libs\lib_font.a(font_ascii.o)
                0x02055284                TextOut_ANSI
 .text          0x020553e8      0x5dc ..\..\..\libs\lib_font.a(font_big5.o)
                0x020553e8                InitFont_BIG5
                0x02055560                GetBIG5CharacterData
                0x020555f4                ConvertUTF16toBIG5
                0x02055694                TextOut_BIG5
                0x02055820                TextOutW_BIG5
 .text          0x020559c4      0x888 ..\..\..\libs\lib_font.a(font_gbk.o)
                0x020559c4                InitFont_GBK
                0x02055cac                GetGBKCharacterData
                0x02055d28                ConvertUTF16toGBK
                0x02055dc8                GetGB2312CharacterData
                0x02055e44                ConvertUTF16toGB2312
                0x02055ed0                TextOut_GBK
                0x02056078                TextOutW_GBK
 .text          0x0205624c      0x680 ..\..\..\libs\lib_font.a(font_ksc.o)
                0x0205624c                InitFont_KSC
                0x020563c0                GetKSCCharacterData
                0x020564fc                ConvertUTF16toKSC
                0x0205659c                TextOut_KSC
                0x02056728                TextOutW_KSC
 .text          0x020568cc     0x1d58 ..\..\..\libs\lib_uicon.a(dc_showres.o)
                0x020568cc                get_jpeg_data
                0x02056994                dc_set_screen_scale
                0x020569ac                get_x_scale
                0x020569bc                get_y_scale
                0x020569cc                get_picture_info
                0x02056a40                get_picture_width
                0x02056ab8                get_picture_height
                0x02056b38                get_string_height
                0x02056c08                get_string_width
                0x02056cd8                decode
                0x02056d38                dc_drawpic_area
                0x02057d98                dc_drawpic
                0x02057dc0                dc_set_color
                0x02057de4                dc_init
                0x02057e90                dc_restore_color
                0x02057eb0                dc_osd_palette
                0x02057f60                dc_drawstring
 .text          0x02058624      0x530 ..\..\..\libs\lib_uicon.a(ui_get_info.o)
                0x02058624                ui_get_info
                0x02058b10                ui_clear_controls
 .text          0x02058b54       0x84 ..\..\..\libs\lib_uicon.a(ui_init.o)
                0x02058b54                ui_init
 .text          0x02058bd8      0x840 ..\..\..\libs\lib_uicon.a(ui_layer.o)
                0x02058bd8                ui_layer
                0x02058c64                ui_get_layer_area
                0x02058d08                ui_screen_to_layer
                0x02058dec                ui_layer_mask_fill
                0x02058fbc                ui_layer_mask_clear
                0x02059194                ui_clear_screen
 .text          0x02059418      0x124 ..\..\..\libs\lib_uicon.a(ui_menu.o)
                0x02059418                parameter_init
                0x02059434                store_parameter
                0x02059480                get_parameter
                0x020594bc                get_counter
                0x020594cc                set_select_item
                0x020594dc                get_select_item
                0x020594ec                set_active_item
                0x020594fc                get_active_item
                0x0205950c                ui_get_status
                0x0205951c                ui_get_node
                0x0205952c                ui_get_active_menu
 .text          0x0205953c     0x1a14 ..\..\..\libs\lib_uicon.a(ui_menub.o)
                0x0205953c                ui_menu
 .text          0x0205af50      0x208 ..\..\..\libs\lib_uicon.a(ui_number.o)
                0x0205af50                ui_number
                0x0205b140                ui_number_def
 .text          0x0205b158      0x540 ..\..\..\libs\lib_uicon.a(ui_pic.o)
                0x0205b158                ui_pic
                0x0205b2f4                ui_pic_def
                0x0205b30c                ui_pic_spec_area
                0x0205b4bc                ui_multi_pic
 .text          0x0205b698        0xc ..\..\..\libs\lib_uicon.a(ui_sdfs.o)
                0x0205b698                ui_sd_fopen
                0x0205b69c                ui_sd_fread
                0x0205b6a0                ui_sd_fseek
 .text          0x0205b6a4      0xe0c ..\..\..\libs\lib_uicon.a(ui_text.o)
                0x0205b6a4                font_get_unicode_width
                0x0205b740                font_get_ansi_width
                0x0205b7b8                font_set_color
                0x0205b7c8                font_get_color
                0x0205b7e0                font_select_layer
                0x0205b7f8                font_get_layer
                0x0205b808                my_putchar
                0x0205ba20                ui_text
                0x0205bf24                ui_texta
 .text          0x0205c4b0      0x4c4 ..\..\..\libs\lib_uicon.a(ui_time.o)
                0x0205c4fc                ui_time
 .text          0x0205c974      0xb10 ..\..\..\libs\lib_uicon.a(ui_time1.o)
                0x0205c974                ui_time1
 .text          0x0205d484      0xf2c ..\..\..\libs\lib_drv_lib.a(drv_manage.o)
                0x0205d7ec                dev_register
                0x0205d8c8                printf_dev_list
                0x0205da20                dev_open
                0x0205da84                dev_read
                0x0205db7c                dev_write
                0x0205dc74                dev_ioctl
                0x0205dd70                dev_power
                0x0205de30                dev_close
                0x0205e14c                dev_module_exit
                0x0205e1e8                dev_init
                0x0205e2cc                dev_set_get_part_hook
                0x0205e2dc                dev_reg_msg
                0x0205e344                dev_remove_msg
                0x0205e390                dev_get_next
 .text          0x0205e3b0      0x264 ..\..\..\libs\lib_dsc_ram.a(dsc_ram.o)
                0x0205e3b0                dsc_ram_init
                0x0205e434                dsc_ram_set_rstop
                0x0205e440                dsc_ram_free
                0x0205e45c                dsc_ram_pend
                0x0205e474                dsc_ram_get_freebuf
                0x0205e4c8                dsc_ram_set_buf_full
                0x0205e540                dsc_ram_get_full_buf
                0x0205e5a0                dsc_ram_set_free_buf
                0x0205e600                dsc_ram_syn_rw
 .text          0x0205e614      0x35c ..\..\..\libs\lib_vedio_ram.a(yuv_ram.o)
                0x0205e614                video_ram_init
                0x0205e670                video_ram_uninit
                0x0205e680                video_ram_alloc
                0x0205e750                video_ram_free
                0x0205e7bc                video_ram_write_alloc
                0x0205e7d4                video_ram_avaliable
                0x0205e8a8                video_ram_set_df
                0x0205e8b4                video_ram_get_df
                0x0205e8c0                video_ram_clr_status
                0x0205e8e4                video_ram_pend_on_all
                0x0205e8f4                video_ram_pend_on
                0x0205e94c                video_ram_try_pend_on
 .text          0x0205e970      0x394 ..\..\..\libs\lib_sdfile.a(sdfile.o)
                0x0205e970                sd_fseek
                0x0205e998                sd_phyread
                0x0205e9e0                sd_fread
                0x0205eb00                sd_open_zone
                0x0205eb44                sd_fopen
                0x0205ec60                spi_flash_read
                0x0205ec7c                sdfile_init
 .text          0x0205ed04     0x1cc0 ..\..\..\libs\lib_vfs.a(vfs.o)
                0x0205ed04                init_VFS
                0x0205edd4                device_read
                0x0205ee18                device_write
                0x0205ee38                drv_onoff
                0x0205ef30                open_store_device
                0x0205ef3c                get_device_capacity
                0x0205ef58                is_device_opend
                0x0205efbc                get_device_handle
                0x0205f054                check_fs_test
                0x0205f0b4                is_device_in
                0x0205f0fc                scan_fs
                0x0205f264                unmount_partition
                0x0205f330                mkfs_partition
                0x0205f7b0                mkfs_drv
                0x0205f810                remount
                0x0205f84c                get_logic_drvs
                0x0205f87c                GetDrv
                0x0205f8a8                fopen
                0x0205f968                frename
                0x0205f9f8                fread
                0x0205fa90                fwrite
                0x0205fb28                fseek
                0x0205fbc0                ftell
                0x0205fc60                fsize
                0x0205fd04                fclose
                0x0205fda8                get_file_length
                0x0205fe20                get_file_attr
                0x0205fe98                fdelete
                0x0205ff0c                get_file_name
                0x0205ff60                fopen_byindex
                0x02060010                check_path
                0x02060040                f_emu
                0x020600c8                f_chdir
                0x020601d4                mount_partition
                0x0206048c                device_on_off
                0x02060538                f_mkdir
                0x020605c8                get_free_space
                0x02060628                get_clust_size
                0x020606a0                f_getdir
                0x02060700                get_fs_index
                0x0206073c                reg_fs
                0x0206077c                ffindfirst
                0x02060818                ffindnext
                0x02060878                fclosedir
                0x020608d4                get_file_time
                0x0206094c                get_file_date
 .text          0x020609c4       0x4c ..\..\..\libs\lib_vfs.a(vfs_init.o)
                0x020609c4                vfs_init
 .text          0x02060a10      0x4e8 ..\..\..\libs\lib_vfs.a(GenfsInc.o)
                0x02060a10                get_fattime
                0x02060a58                genfs_mount_pattition
                0x02060b30                genfs_fopen
                0x02060b88                genfs_fdelete
                0x02060bb0                genfs_get_file_length
                0x02060be4                genfs_get_file_attr
                0x02060c18                genfs_get_file_time
                0x02060c4c                genfs_get_file_date
                0x02060c80                genfs_fclose
                0x02060ca4                genfs_fread
                0x02060cc0                genfs_fwrite
                0x02060cdc                genfs_fseek
                0x02060d18                genfs_ftell
                0x02060d24                genfs_fsize
                0x02060d30                genfs_f_emu
                0x02060d5c                genfs_fmkdir
                0x02060da8                genfs_fchdir
                0x02060df4                genfs_get_free_space
                0x02060e24                genfs_frename
                0x02060e50                genfs_get_clust_size
                0x02060e7c                genfs_findnext
                0x02060ea4                genfs_findfirst
                0x02060ed4                genfs_closedir
 .text          0x02060ef8     0x2fb4 ..\..\..\libs\lib_vfs.a(ff.o)
                0x020612fc                flush_fatCache
                0x0206192c                setFsHdl
                0x0206193c                gen_clust2sect
                0x0206195c                get_fat
                0x02061bb0                put_fat
                0x02061d68                checkResetWin
                0x02062404                f_mount
                0x02062494                f_open
                0x02062634                f_read
                0x020628bc                f_write
                0x02062c2c                f_sync
                0x02062d48                f_close
                0x02062d78                f_chdrive
                0x02062d8c                f_genchdir
                0x02062e14                f_lseek
                0x020632d4                f_opendir_gen
                0x02063370                f_closedir
                0x0206338c                f_readdir
                0x02063418                f_genEmu
                0x020634c4                f_stat
                0x0206352c                f_getfree
                0x02063668                f_truncate
                0x02063774                f_unlink
                0x02063888                f_genmkdir
                0x02063a64                fgenget_free_space
                0x02063ba4                f_chmod
                0x02063c38                f_rename
                0x02063d90                f_utime
                0x02063e2c                f_findnext
                0x02063e7c                f_findfirst
 .text          0x02063eac      0x1f4 ..\..\..\libs\lib_vfs.a(dev_Mount.o)
                0x02063eac                ld_word
                0x02063ebc                ld_dword
                0x02063edc                get_first_one
                0x02063efc                dev_CheckPartInfo
                0x02063fa0                dev_Mount
 .text          0x020640a0       0xf8 ..\..\..\libs\lib_vfs.a(dev_cache_alloc.o)
                0x020640a0                dev_CacheAlloc
 .text          0x02064198       0x68 ..\..\..\libs\lib_vfs.a(dev_cache_flush.o)
                0x02064198                dev_CacheFlush
 .text          0x02064200       0x98 ..\..\..\libs\lib_vfs.a(dev_cache_read_only.o)
                0x02064200                dev_CacheRDevOnly
                0x02064264                dev_CacheRDev
 .text          0x02064298       0x6c ..\..\..\libs\lib_vfs.a(dev_cache_write_dev.o)
                0x02064298                dev_CacheWDev
 .text          0x02064304       0x10 ..\..\..\libs\lib_vfs.a(fs_api.o)
                0x02064304                fs_GetLastErr
 .text          0x02064314       0x18 ..\..\..\libs\lib_vfs.a(dev_Cache.o)
                0x02064314                dev_HookInit
 .text          0x0206432c       0xb4 ..\..\..\libs\libhwi.a(cache.o)
                0x0206432c                flush_icache
                0x02064354                flush_all_dcache
                0x02064360                flush_dcache
                0x020643a0                flushinv_dcache
 .text          0x020643e0      0x284 ..\..\..\libs\libhwi.a(HWI.o)
                0x020643e0                default_isr_handler
                0x0206440c                handle__default_isr_handler
                0x02064430                processor_id
                0x0206443c                clear_ie
                0x0206444c                set_ie
                0x0206445c                hwi_init
                0x02064498                HWI_Install
                0x02064578                HWI_UnInstall
                0x020645a4                HWI_is_install
                0x020645bc                DisableOSInt
                0x020645cc                EnableOSInt
                0x020645dc                sfc_set_unenc_addr_range
                0x02064620                stack_chcek
 .text          0x02064664       0xf0 ..\..\..\libs\libspi0flash.a(mango_dev_spi0flash.o)
                0x02064744                dev_reg_flash
 .text          0x02064754      0x848 ..\..\..\libs\libspi0flash.a(spi0flash.o)
                0x02064b94                spi0flash_continuous_read_mode_reset
                0x02064bd4                spi0flash_read_id
                0x02064c40                spi0flash_read
                0x02064c54                spi0flash_dec_read
                0x02064c94                spi0flash_eraser
                0x02064d10                spi0flash_write
                0x02064d90                spi0flash_set_quad
                0x02064e40                spi0flash_write_protect
                0x02064ec0                spi0flash_init
 .text          0x02064f9c      0x454 ..\..\..\libs\libspi0.a(spi0.o)
                0x02064f9c                handle__spi0_isr
                0x02065018                spi0_remap_cs
                0x02065028                spi0_cs
                0x02065074                spi0_init
                0x0206518c                spi0_set_clk
                0x0206519c                spi0_write_byte
                0x020651b4                spi0_read_byte
                0x020651e4                spi0_write
                0x02065270                spi0_write_2bitMode
                0x020652d8                spi0_read
                0x02065390                spi0_dec_read
                0x020653c0                spi0_dec_write
 .text          0x020653f0      0x69c ..\..\..\libs\lib_wfile_serve.a(wfile_serve.o)
                0x020655b4                wfsv_init
                0x020656c4                wfsv_uninit
                0x020656e8                wfsv_open
                0x020657dc                wfsv_start
                0x02065804                wfsv_stop
                0x020658d0                wfsv_get_fp
                0x020658e0                wfsv_clr_fb
                0x02065908                wfsv_get_fbsize
                0x02065918                wfsv_close
                0x020659b4                wfsv_close_all
                0x02065a08                wfsv_get_pos
                0x02065a18                wfsv_get_wres
                0x02065a28                wfsv_write
 .text          0x02065a8c      0x56c ..\..\..\libs\lib_audio.a(ladc.o)
                0x02065a8c                ladc_stop
                0x02065ad8                ladc_close
                0x02065b10                ladc_analog_init
                0x02065b50                ladc_open
                0x02065c1c                ladc_set_mic_vol
                0x02065c38                ladc_set_linein_vol
                0x02065c58                ladc_analog_io_init
                0x02065cdc                ladc_io_init
                0x02065e04                ladc_start
                0x02065f40                ladc_get_clk
                0x02065f4c                ladc_isr
 .text          0x02065ff8       0xf8 ..\..\..\libs\lib_audio.a(audio.o)
                0x02065ff8                handle__audio_isr
                0x0206601c                audio_isr
                0x0206603c                audio_open
                0x02066084                audio_ctl
                0x020660dc                audio_close
 .text          0x020660f0      0x2cc ..\..\..\libs\lib_audio.a(dac.o)
                0x020660f0                dac_open
                0x020661fc                dac_close
                0x02066280                dac_set_samplerate
                0x0206631c                set_dac_vol
                0x02066364                dac_isr
 .text          0x020663bc      0x424 ..\..\..\libs\lib_usb_slave.a(usb_slave_main.o)
                0x02066768                dev_reg_usb0slv
 .text          0x020667e0      0xadc ..\..\..\libs\lib_usb_slave.a(msd2video_ctrl.o)
                0x020667e0                init_lsc_rgb
                0x02066960                free_lsc_rgb
                0x020669b0                get_isp_default_param
                0x02066a6c                usb_get_imb_param
                0x02066a88                jl_video_private_cmd
                0x02067294                usb_msd_set_frame_size
                0x020672a4                get_isp_frame_size
 .text          0x020672bc      0x6dc ..\..\..\libs\lib_usb_slave.a(msd_dev_update.o)
                0x020672bc                usb_set_update_dev
                0x020672d0                jl_usb_scsi_hook
 .text          0x02067998     0x10f0 ..\..\..\libs\lib_usb_slave.a(msd_main.o)
                0x02067998                msd_mcu_to_usb
                0x02067ae0                msd_usb_to_mcu
                0x02067eb0                msd_init
                0x02067f4c                usb_msd_add_dev
                0x02067fe8                usb_msd_set_hook
                0x02068008                husb_msd_run
 .text          0x02068a88     0x12d0 ..\..\..\libs\lib_usb_slave.a(video_main.o)
                0x02068a88                usbs_sof_isr
                0x02068a94                usb_video_init
                0x02068bc8                usb_video_get_camera_info
                0x02068bd8                usb_video_arg_init
                0x02068ca4                usb_video_unmount
                0x02068ce8                handle__usbs_sof_isr
                0x02068d0c                usb_video_transfer
                0x02068e9c                usb_video_status
                0x02068f2c                usb_video_shutter
                0x02068f3c                video_process_unit_get_info
                0x02068fd0                video_process_unit_get_cur
                0x02069170                video_process_unit_set_cur
                0x020692ec                video_process_unit_get_min
                0x0206948c                video_process_unit_get_max
                0x0206962c                video_process_unit_get_res
                0x02069834                video_process_unit_get_def
                0x020699d4                video_it_unit_get_info
                0x02069a64                video_it_unit_get_min
                0x02069af4                video_it_unit_get_max
                0x02069b84                video_it_unit_get_res
                0x02069c14                video_it_unit_get_def
                0x02069ca4                video_it_unit_get_cur
                0x02069d34                video_ext_get_info
                0x02069d40                video_is_still_open
 .text          0x02069d58      0x168 ..\..\..\libs\lib_usb_slave.a(audio_main.o)
                0x02069d58                usb_audio_arg_init
                0x02069dc8                usb_audio_vol_ctl
                0x02069dec                usb_speaker_transfer
                0x02069e58                usb_mic_transfer
 .text          0x02069ec0      0x55c ..\..\..\libs\lib_usb_slave.a(core_descriptor.o)
                0x02069ec0                usb_desc_init
 .text          0x0206a41c      0x2cc ..\..\..\libs\lib_usb_slave.a(usb_phy.o)
                0x0206a41c                usb_slave_ep_init
                0x0206a558                HUSB_slv_ctrl_isr_fun
                0x0206a6b0                HUSB_slv_ctrl_isr
                0x0206a6c4                handle__HUSB_slv_ctrl_isr
 .text          0x0206a6e8     0x10d4 ..\..\..\libs\lib_usb_slave.a(usb_setup.o)
                0x0206a6e8                Ep0_control_transfer
 .text          0x0206b7bc        0x0 ..\..\..\libs\lib_usb_slave.a(msd_descriptor.o)
 .text          0x0206b7bc        0xc ..\..\..\libs\lib_usb_slave.a(video_descriptor.o)
                0x0206b7bc                get_viode_cfg_len
 .text          0x0206b7c8       0x18 ..\..\..\libs\lib_usb_slave.a(audio_descriptor.o)
                0x0206b7c8                get_speaker_cfg_len
                0x0206b7d4                get_mic_cfg_len
 .text          0x0206b7e0      0x4b4 ..\..\..\libs\lib_usb_phy.a(usb_hal.o)
                0x0206bc34                husb_connect_ctl
                0x0206bc64                get_usb_controller
                0x0206bc74                usb_timeout
 .text          0x0206bc94      0x49c ..\..\..\libs\lib_isp.a(gamma.o)
                0x0206bdd8                gamma_rgb_preset
                0x0206be44                gamma_rgb_interpolate
                0x0206bec8                gamma_rgb_build_lut
                0x0206c0a0                reset_gamma
 .text          0x0206c130      0x920 ..\..\..\libs\lib_isp.a(isp0_dev.o)
                0x0206c130                isp0_set_updata
                0x0206c14c                isp0_get_regptr
                0x0206c160                isp0_updata_reg
                0x0206c3c8                isp0_mount
                0x0206c6f0                isp0_reset_mount
                0x0206c714                isp0_unmount
                0x0206c804                isp0_ioctrl
                0x0206c974                isp0_power
                0x0206c9d8                WriteSensorReg
                0x0206ca18                ReadSensorReg
                0x0206ca34                set_AE_bf_type
 .text          0x0206ca50      0xb78 ..\..\..\libs\lib_isp.a(isp_com.o)
                0x0206ca50                handle__isp0_isr
                0x0206ca74                handle(int, short, _ *, int, short, long double)
                0x0206ca98                isp1_isr
                0x0206cb1c                sensor_update_AE
                0x0206cb44                sensor_flush_update
                0x0206cb5c                isp0_isr
                0x0206cc94                isp_not_update
                0x0206cca4                isp0_get_enter
                0x0206ccb4                isp0_clr_enter
                0x0206ccc4                isp_update
                0x0206cda4                isp1_wr
                0x0206cdd8                isp1_rd
                0x0206ce0c                isp_io_config
                0x0206ceb0                isp_sen_set_size
                0x0206cf34                isp_sen_config
                0x0206cfa0                isp_pend_config
                0x0206d014                ispt_lsc_cal
                0x0206d038                ispt_lsc
                0x0206d1b4                isp0_raw_to_yuv
                0x0206d538                reset_isp_com
                0x0206d5a4                reset_com_import
 .text          0x0206d5c8      0x39c ..\..\..\libs\lib_isp.a(isp_customize.o)
                0x0206d5c8                reset_isp_cunstomize
                0x0206d5f4                ispt_customize_reset
                0x0206d73c                ispt_set_blc
                0x0206d774                ispt_mannual_wb
                0x0206d7a0                ispt_customize_ev
                0x0206d7c0                ispt_customize_ev2
                0x0206d7e0                ispt_customize_evMode
                0x0206d7f0                ispt_customize_gamma
                0x0206d81c                ispt_customize_ccm3x4
                0x0206d83c                ispt_customize_mdLevel
                0x0206d854                ispt_customize_nrLevel
                0x0206d86c                ispt_customize_shpnLevel
                0x0206d884                ispt_customize_shpnAmount
                0x0206d89c                ispt_customize_shpnThreshold
                0x0206d8d0                ispt_customize_lsc
                0x0206d928                ispt_cunstomize_lsc
                0x0206d92c                ispt_saturation
                0x0206d944                ispt_preset_wb
                0x0206d954                ispt_customize_drcEnable
 .text          0x0206d964      0xf88 ..\..\..\libs\lib_isp.a(isp_tuning.o)
                0x0206d964                ispt_show_one_sta
                0x0206d970                ispt_show_sta
                0x0206d97c                ispt_init
                0x0206da1c                ispt_lightmetering
                0x0206db3c                ispt_set_mode
                0x0206db54                ispt_whiteBalance
                0x0206deac                ispt_update_cfg
                0x0206defc                ispt_set_imp
                0x0206e22c                ispt_set_awb_gain
                0x0206e2fc                ispt_set_ccm
                0x0206e358                ispt_set_rgb_gamma
                0x0206e3a0                ispt_set_rgb_gamma_disable
                0x0206e3f0                ispt_set_lm
                0x0206e400                ispt_flush_update
                0x0206e534                ispt_get_lv
                0x0206e544                ispt_dwdr
                0x0206e558                hist_diff
                0x0206e564                hist_feature
                0x0206e5b8                ispt_test_blc
                0x0206e620                hist_feature_10b
                0x0206e668                hist_texture_10b
                0x0206e6e4                ispt_poccess_sta
                0x0206e788                ispt_motion_evaluation
                0x0206e7e0                ispt_customize_mdStatus
                0x0206e7fc                reset_isp_tunning
 .text          0x0206e8ec      0x714 ..\..\..\libs\lib_isp.a(isp_tuning_drc.o)
                0x0206ea5c                ispt_drc_lut_update
                0x0206eb1c                filt_lmax
                0x0206eb40                ispt_drc_enable
                0x0206ec84                ispt_drc_init
                0x0206ecb8                ispt_drc_get_status
                0x0206ecc8                ispt_drc_sta
                0x0206edac                ispt_drc_run
                0x0206eeb8                ispt_drc_free
                0x0206eec4                reset_tuning_drc
 .text          0x0206f000        0x0 ..\..\..\libs\lib_isp.a(lsc_coeff.o)
 .text          0x0206f000      0x100 ..\..\..\libs\lib_isp.a(median_filter.o)
                0x0206f06c                medfilt_init
                0x0206f07c                medfilt_reset
                0x0206f088                medfilt_filter
 .text          0x0206f100       0x20 ..\..\..\libs\lib_isp.a(isp_if.o)
                0x0206f100                get_isp1_ops
                0x0206f110                get_isp0_ops
 .text          0x0206f120       0x54 ..\..\..\libs\lib_isp.a(average_filter.o)
                0x0206f120                avgfilt_init
                0x0206f130                avgfilt_reset
                0x0206f13c                avgfilt_filter
 .text          0x0206f174       0x84 ..\..\..\libs\lib_isp.a(fixed_math.o)
                0x0206f174                fixMul
                0x0206f1a8                fixDiv
                0x0206f1d8                fixFloor
                0x0206f1e4                fixDenormalize
 .text          0x0206f1f8      0x2b4 ..\..\..\libs\lib_isp.a(isp1_dev.o)
                0x0206f1f8                isp1_mount
                0x0206f358                isp1_unmount
                0x0206f3a0                isp1_ioctrl
                0x0206f448                isp1_power
 .text          0x0206f4ac      0x344 ..\..\..\libs\lib_cbuf.a(circular_buf.o)
                0x0206f4ac                cbuf_read
                0x0206f520                cbuf_prewrite
                0x0206f584                cbuf_updata_prewrite
                0x0206f59c                cbuf_discard_prewrite
                0x0206f5b4                cbuf_write
                0x0206f620                cbuf_is_write_able
                0x0206f640                cbuf_write_alloc
                0x0206f68c                cbuf_write_updata
                0x0206f6ac                cbuf_read_alloc
                0x0206f6f4                cbuf_read_updata
                0x0206f724                cbuf_init
                0x0206f744                cbuf_clear
                0x0206f764                cbuf_rewrite
                0x0206f7a8                cbuf_get_writeptr
                0x0206f7c4                cbuf_get_data_size
                0x0206f7d4                cbuf_get_readptr
 .text          0x0206f7f0      0x658 ..\..\..\libs\lib_lane.a(lane_detect.o)
                0x0206f7f0                myGetTime
                0x0206f7f4                lane_calibrate_set_len_param
                0x0206f808                lane_calibrate_get_vanish
                0x0206f818                hough_line_score
                0x0206f8d4                lane_detection_one_frame
                0x0206fcc0                lane_detection_deinit
                0x0206fd00                lane_detection_init
 .text          0x0206fe48      0x3d0 ..\..\..\libs\lib_lane.a(canny.o)
                0x0206ff58                canny_init
                0x0206ffb8                canny_deinit2
                0x0206ffe8                canny_deinit1
                0x02070014                canny_detect
 .text          0x02070218      0x124 ..\..\..\libs\lib_lane.a(canny_edge.o)
                0x02070218                sobel_filter
                0x020702d0                canny_edge
 .text          0x0207033c      0x5dc ..\..\..\libs\lib_lane.a(hough.o)
                0x0207033c                hough_init
                0x020704dc                hough_deinit
                0x0207051c                hough_line
                0x0207076c                hough_reflect
 .text          0x02070918        0x0 ..\..\..\libs\lib_lane.a(LUT1024.o)
 .text          0x02070918      0x630 ..\..\..\libs\librtos.a(os_core.o)
                0x02070918                OSInit
                0x02070980                OSSchedLock
                0x020709b0                OSVersion
                0x020709bc                OS_SchedRoundRobin
                0x020709ec                OS_InsertRdyListHead
                0x02070a44                OS_InsertRdyListTail
                0x02070a88                OS_InsertIdleList
                0x02070ab8                OS_RemoveRdyList
                0x02070b2c                OS_RemoveIdleList
                0x02070b88                OS_InsertListHead
                0x02070b9c                OS_RemoveList
                0x02070bb0                OS_EventHighestTask
                0x02070be0                OS_EventTaskRdy
                0x02070c68                OS_EventTaskWait
                0x02070ca4                OS_EventTO
                0x02070ce0                OS_Sched
                0x02070d64                os_time_tick
                0x02070ebc                OSStart
                0x02070f10                OSSchedUnlock
 .text          0x02070f48      0x270 ..\..\..\libs\librtos.a(os_mutex.o)
                0x02070f48                OSMutexAccept
                0x02070f84                OSMutexCreate
                0x02070fa8                OSMutexDel
                0x02071048                OSMutexPend
                0x0207112c                OSMutexPost
 .text          0x020711b8      0x1b4 ..\..\..\libs\librtos.a(os_sem.o)
                0x020711b8                OSSemAccept
                0x020711d8                OSSemCreate
                0x020711f0                OSSemDel
                0x02071268                OSSemPend
                0x020712dc                OSSemPost
                0x02071344                OSSemSet
 .text          0x0207136c      0x88c ..\..\..\libs\librtos.a(os_task.o)
                0x020714b0                OSGetTaskTcb
                0x02071580                OSTaskChangePrio
                0x020715bc                OSTaskCreate
                0x02071688                OSTaskQAccept
                0x020716d0                OSTaskQPend
                0x0207175c                __OSTaskQPost
                0x02071850                __OSTaskQPostWait
                0x02071890                OSTaskQPostMsg
                0x020718ac                OSTaskQPostEvent
                0x020718c8                OSTaskQPost
                0x020718e4                OSTaskQFlush
                0x02071914                __OSTaskQFlushMsg
                0x0207191c                __OSTaskQFlushEvent
                0x02071924                OSTaskQPostFront
                0x02071a18                OSTaskQQuery
                0x02071a54                OSTaskDel
                0x02071ad4                OSTaskDelReq
                0x02071b2c                OSTaskDelRes
                0x02071b58                OSTaskResume
                0x02071bac                OSTaskSuspend
 .text          0x02071bf8       0xd8 ..\..\..\libs\librtos.a(os_time.o)
                0x02071bf8                OSTimeDly
                0x02071c3c                OSTimeDlyResume
                0x02071cb0                OSTimeGet
                0x02071cc0                OSTimeSet
 .text          0x02071cd0      0x1cc ..\..\..\libs\librtos.a(os_api.o)
                0x02071cd0                os_init
                0x02071ce0                os_start
                0x02071d0c                os_task_create
                0x02071dd0                OS_TASK_DEL_HOOK
                0x02071dd4                os_get_cur_tcb
                0x02071de8                get_msg
                0x02071e00                put_msg_fifo
                0x02071e40                clear_msg
                0x02071e48                put_msg_lifo
                0x02071e88                os_get_currnet_name
 .text          0x02071e9c      0x11c ..\..\..\libs\librtos.a(os_cpu.o)
                0x02071eea                _uCOS_II_reentrant_interrupt_exit
                0x02071eea                _uCOS_II_non_reentrant_interrupt_exit
                0x02071f4a                OS_HighPrio
                0x02071f5e                OSCtxSw
 .text          0x02071fb8       0xe4 ..\..\..\libs\librtos.a(os_cpu_c.o)
                0x02071fb8                handle__os_time_tick
                0x02071fdc                OSInitTick
                0x0207202c                InstallOSISR
                0x0207203c                OSInitHookBegin
                0x02072048                OSInitHookEnd
                0x02072054                EnableOtherCpu
                0x02072060                OSTaskStkInit
 .text          0x0207209c      0x4e0 ..\..\..\libs\lib_irtc.a(irtc.o)
                0x0207209c                handle__rtc_isr
                0x020720c0                rtc_isr
                0x02072150                irtc_sr_byte1
                0x02072178                write_RTC_reg
                0x020721ac                read_RTC_reg
                0x020721dc                leapyear
                0x0207223c                year_to_day
                0x02072258                month_to_day
                0x0207228c                day_to_ymd
                0x02072350                ymd_to_day
                0x02072410                write_sys_time
                0x0207241c                read_sys_time
                0x02072438                write_alarm
                0x02072440                read_alarm
                0x0207244c                set_alarm
                0x02072460                rtc_init
                0x020724b0                write_RTC
                0x02072504                reset_rtc
 .text          0x0207257c      0xae0 ..\..\..\libs\lib_fbuf.a(frame_buf.o)
                0x0207257c                mm_malloc_stats
                0x020725ac                mm_heap_init
                0x02072648                mm_free
                0x02072848                fbuf_mem_heap_check
                0x02072938                mm_malloc
                0x02072ae8                mm_calloc
                0x02072b10                mm_realloc
                0x02072c40                mm_get_free_buf_count
                0x02072c4c                fb_init
                0x02072cec                fb_uninit
                0x02072d1c                fb_pipe_init
                0x02072d50                fb_malloc
                0x02072dc0                fb_realloc
                0x02072de8                fb_put
                0x02072e14                fb_get
                0x02072e4c                fb_size
                0x02072e58                fb_free
                0x02072e74                fb_pipe_uninit
                0x02072ea8                fb_pipe_free
                0x02072ed0                fb_print_list
                0x02072f08                fb_ptr
                0x02072f14                fb_pipe_totale_size
                0x02072f20                fb_pipe_size
                0x02072f2c                fb_test
 .text          0x0207305c      0x7bc ..\..\..\libs\lib_sensor.a(iic.o)
                0x0207305c                SCCBreadByte_A
                0x02073100                noAck_A
                0x0207318c                Ack_A
                0x02073218                stopSCCB_A
                0x020732a4                Wait_Ack_A
                0x02073360                SCCBwriteByte_A
                0x0207344c                startSCCB_A
                0x020734f0                SCCBreadByte_B
                0x02073518                noAck_B
                0x02073530                Ack_B
                0x02073548                Wait_Ack_B
                0x02073564                SCCBwriteByte_B
                0x0207359c                stopSCCB_B
                0x020735b4                startSCCB_B
                0x020735cc                iic_ini
                0x02073624                iic_tx
                0x02073660                iic_tx_ws
                0x020736a8                iic_tx_we
                0x020736f8                iic_rx
                0x02073734                iic_rx_ws
                0x0207377c                iic_rx_we
                0x020737cc                iic_write_dma
                0x020737ec                iic_select
 .text          0x02073818      0x124 ..\..\..\libs\lib_sensor.a(isp_sensor_manage.o)
                0x02073818                get_cur_sensor_logo
                0x0207383c                isp_sensor_check
                0x020738e0                av_in_fps_read
                0x02073900                av_in_read
                0x02073924                sensor_reset_val
 .text          0x0207393c      0xee4 ..\..\..\libs\lib_sensor.a(GC0308.o)
                0x0207393c                wrGC0308Reg
                0x020739f4                rdGC0308Reg
                0x02073abc                GC0308_set_output_size
                0x02073b04                GC0308_config_SENSOR
                0x020745e8                GC0308_power_ctl
                0x02074650                GC0308_xclk_set
                0x020746c4                GC0308_ID_check
                0x0207470c                GC0308_reset
                0x02074770                GC0308_iic_set
                0x02074788                GC0308_check
                0x020747e0                GC0308_init
 .text          0x02074820      0x974 ..\..\..\libs\lib_sensor.a(GC1004.o)
                0x02074820                wrGC1004Reg
                0x020748a8                rdGC1004Reg
                0x0207494c                GC1004_set_ae_bf_type
                0x0207499c                GC1004_config_SENSOR
                0x02074ad4                GC1004_set_output_size
                0x02074af0                GC1004_power_ctl
                0x02074b58                GC1004_xclk_set
                0x02074bcc                GC1004_ID_check
                0x02074c60                GC1004_reset
                0x02074cb0                GC1004_iic_set
                0x02074cc8                GC1004_check
                0x02074d20                update_GC1004_shutter
                0x02074d44                update_global_gain
                0x02074d9c                MAX3
                0x02074db0                GC1004_flush_cfg
                0x02074ed4                resetStatic
                0x02074f08                GC1004_init
                0x02074f4c                GC1004_update_cfg
                0x02075094                GC1004_sleep
                0x020750a4                GC1004_wakeup
                0x020750b4                GC1004_W_Reg
                0x020750dc                GC1004_R_Reg
                0x020750f4                reset_gc10X4
 .text          0x02075194        0x0 ..\..\..\libs\lib_sensor.a(GC1004_tbl.o)
 .text          0x02075194      0xab0 ..\..\..\libs\lib_sensor.a(H42.o)
                0x02075194                wrH42Reg
                0x02075254                rdH42Reg
                0x020752f8                H42_set_ae_bf_type
                0x02075314                H42_config_SENSOR
                0x020754f8                H42_set_output_size
                0x02075514                H42_power_ctl
                0x0207557c                H42_xclk_set
                0x020755f0                H42_ID_check
                0x02075688                H42_reset
                0x020756e0                H42_iic_set
                0x020756f8                H42_check
                0x02075750                H42_init
                0x02075790                H42_update_cfg
                0x02075b14                H42_flush_cfg
                0x02075b60                H42_sleep
                0x02075b70                H42_wakeup
                0x02075b80                H42_W_Reg
                0x02075b8c                H42_R_Reg
                0x02075ba4                reset_H42
 .text          0x02075c44      0x564 ..\..\..\libs\lib_sensor.a(NT99140.o)
                0x02075c44                wrNT99140Reg
                0x02075d1c                rdNT99140Reg
                0x02075e20                NT99140_config_SENSOR
                0x02075ec0                updateNT9914XAE
                0x02075efc                NT99140_set_output_size
                0x02075f20                NT99140_power_ctl
                0x02075f88                NT99140_xclk_set
                0x02075ffc                NT99140_ID_check
                0x02076054                NT99140_reset
                0x020760b8                NT99140_iic_set
                0x020760d0                NT99140_check
                0x02076128                NT99140_init
                0x02076168                NT99140_W_Reg
                0x02076190                NT99140_R_Reg
 .text          0x020761a8      0x6f4 ..\..\..\libs\lib_sensor.a(NT99143.o)
                0x020761a8                wrNT99143Reg
                0x02076204                rdNT99143Reg
                0x02076268                NT99143_config_SENSOR
                0x020762e4                NT99143_set_output_size
                0x02076308                NT99143_power_ctl
                0x02076370                NT99143_xclk_set
                0x020763e4                NT99143_ID_check
                0x02076478                NT99143_reset
                0x020764dc                NT99143_iic_set
                0x020764f4                NT99143_check
                0x0207654c                NT99143_init
                0x0207658c                NT99143_update_cfg
                0x02076714                NT99143_flush_cfg
                0x020767d8                NT99143_sleep
                0x020767e8                NT99143_wakeup
                0x020767f8                NT99143_W_Reg
                0x02076820                NT99143_R_Reg
                0x02076838                reset_99143
 .text          0x0207689c        0x0 ..\..\..\libs\lib_sensor.a(NT99143_tbl.o)
 .text          0x0207689c      0x5b8 ..\..\..\libs\lib_sensor.a(OV9710.o)
                0x0207689c                wrOV9710Reg
                0x02076954                rdOV9710Reg
                0x02076a30                OV9710_config_SENSOR
                0x02076a7c                OV9710_set_output_size
                0x02076aa0                OV9710_power_ctl
                0x02076b08                OV9710_xclk_set
                0x02076b7c                OV9710_ID_check
                0x02076c18                OV9710_reset
                0x02076c7c                OV9710_iic_set
                0x02076c94                OV9710_check
                0x02076db8                OV9710_init
                0x02076df8                OV9710_sleep
                0x02076e14                OV9710_wakeup
                0x02076e30                OV9710_W_Reg
                0x02076e3c                OV9710_R_Reg
 .text          0x02076e54      0x888 ..\..\..\libs\lib_sensor.a(SC1045.o)
                0x02076e54                wrSC1045Reg
                0x02076eb0                rdSC1045Reg
                0x02076f14                set_ae_lut
                0x02076f30                SC1045_config_SENSOR
                0x02077074                SC1045_set_output_size
                0x02077090                SC1045_power_ctl
                0x020770f8                SC1045_xclk_set
                0x0207716c                SC1045_ID_check
                0x020771d0                SC1045_reset
                0x0207724c                SC1045_iic_set
                0x02077264                SC1045_check
                0x020772bc                SC1045_init
                0x020772ec                SC1045_update_cfg
                0x02077550                SC1045_flush_cfg
                0x020775e0                SC1045_sleep
                0x020775f0                SC1045_wakeup
                0x02077600                SC1045_W_Reg
                0x02077628                SC1045_R_Reg
                0x02077658                reset_sc1045
 .text          0x020776dc        0x0 ..\..\..\libs\lib_sensor.a(SC1045_tbl.o)
 .text          0x020776dc      0x39c ..\..\..\libs\lib_sensor.a(gm7150.o)
                0x020776dc                wrGM7150Reg
                0x0207775c                rdGM7150Reg
                0x020777f0                gm7150_reset
                0x02077808                gm7150_id_check
                0x020778fc                GM7150_iic_set
                0x02077914                gm7150_check
                0x0207793c                gm7150_set_output_size
                0x02077960                gm7150_init
                0x020779ec                GM7150_config_SENSOR
                0x02077a1c                gm7150_initialize
                0x02077a68                gm7150_power_ctl
 .text          0x02077a78      0x7a8 ..\..\..\libs\lib_sensor.a(ps4100.o)
                0x02077a78                wrPS4100Reg
                0x02077b00                rdPS4100Reg
                0x02077ba4                PS4100_set_ae_bf_type
                0x02077bc0                PS4100_config_SENSOR
                0x02077c1c                PS4100_set_output_size
                0x02077c38                PS4100_power_ctl
                0x02077ca0                PS4100_xclk_set
                0x02077d14                PS4100_ID_check
                0x02077dcc                PS4100_reset
                0x02077e1c                PS4100_iic_set
                0x02077e34                PS4100_check
                0x02077e8c                PS4100_init
                0x02077ecc                PS4100_update_cfg
                0x02078068                PS4100_flush_cfg
                0x02078148                PS4100_sleep
                0x02078158                PS4100_wakeup
                0x02078168                PS4100_W_Reg
                0x02078190                PS4100_R_Reg
                0x020781a8                reset_ps4100
 .text          0x02078220        0x0 ..\..\..\libs\lib_sensor.a(ps4100_tbl.o)
 .text          0x02078220      0x240 ..\..\..\libs\lib_common.a(time.o)
                0x02078220                udelay
                0x0207823c                mdelay
                0x02078244                msleep
                0x0207824c                time
                0x02078268                localtime
                0x020782fc                gmtime
                0x02078300                gmtime_r
                0x02078304                gettimeofday
                0x02078348                strftime_2
                0x020783a4                asctime_s
                0x02078400                time_lapse
                0x02078434                timezone
                0x02078454                tzset
 .text          0x02078460      0xa40 ..\..\..\libs\lib_common.a(Vsnprintf.o)
                0x020788a0                vsnprintf
                0x02078e8c                snprintf
 .text          0x02078ea0       0x20 C:\JL\dv12\lib\libc.a(lib_a-isalnum.o)
                0x02078ea0                isalnum
 .text          0x02078ec0       0x7c C:\JL\dv12\lib\libc.a(lib_a-memcmp.o)
                0x02078ec0                memcmp
 .text          0x02078f3c       0x9c C:\JL\dv12\lib\libc.a(lib_a-memcpy.o)
                0x02078f3c                memcpy
 .text          0x02078fd8       0xcc C:\JL\dv12\lib\libc.a(lib_a-memmove.o)
                0x02078fd8                memmove
 .text          0x020790a4       0xb0 C:\JL\dv12\lib\libc.a(lib_a-memset.o)
                0x020790a4                memset
 .text          0x02079154       0x6c C:\JL\dv12\lib\libc.a(lib_a-strcat.o)
                0x02079154                strcat
 .text          0x020791c0       0xb0 C:\JL\dv12\lib\libc.a(lib_a-strcmp.o)
                0x020791c0                strcmp
 .text          0x02079270       0x6c C:\JL\dv12\lib\libc.a(lib_a-strcpy.o)
                0x02079270                strcpy
 .text          0x020792dc       0x9c C:\JL\dv12\lib\libc.a(lib_a-strlen.o)
                0x020792dc                strlen
 .text          0x02079378       0xf8 C:\JL\dv12\lib\libc.a(lib_a-strncmp.o)
                0x02079378                strncmp
 .text          0x02079470       0xa0 C:\JL\dv12\lib\libc.a(lib_a-strncpy.o)
                0x02079470                strncpy
 .text          0x02079510       0x38 C:\JL\dv12\lib\libc.a(lib_a-strnlen.o)
                0x02079510                strnlen
 .text          0x02079548        0x0 C:\JL\dv12\lib\libc.a(lib_a-ctype_.o)
 .text          0x02079548       0x18 C:\JL\dv12\lib\libgcc.a(_umodsi3.o)
                0x02079548                __umodsi3
 .text          0x02079560       0x18 C:\JL\dv12\lib\libgcc.a(_modsi3.o)
                0x02079560                __modsi3
 .text          0x02079578       0x4c C:\JL\dv12\lib\libgcc.a(_muldi3.o)
                0x02079578                __muldi3
 .text          0x020795c4       0x20 C:\JL\dv12\lib\libgcc.a(_umulsi3_highpart.o)
                0x020795c4                __umulsi3_highpart
 .text          0x020795e4       0x34 C:\JL\dv12\lib\libgcc.a(_lshrdi3.o)
                0x020795e4                __lshrdi3
 .text          0x02079618      0x428 C:\JL\dv12\lib\libgcc.a(_divdi3.o)
                0x02079618                __divdi3
 .text          0x02079a40      0x210 C:\JL\dv12\lib\libgcc.a(divsf3.o)
                0x02079a40                __divsf3
 .text          0x02079c50       0x7c C:\JL\dv12\lib\libgcc.a(fixunssfsi.o)
                0x02079c50                __fixunssfsi
 .text          0x02079ccc       0xb8 C:\JL\dv12\lib\libgcc.a(floatunsisf.o)
                0x02079ccc                __floatunsisf
 .text          0x02079d84        0x0 C:\JL\dv12\lib\libgcc.a(_clz.o)
 .text          0x02079d84       0x4c C:\JL\dv12\lib\libgcc.a(_clzsi2.o)
                0x02079d84                __clzsi2
 *(.rodata*)
 .rodata.str1.4
                0x02079dd0      0x1d8 obj\Debug\\code\FileSelecter\FileSelecter.o
 .rodata        0x02079fa8       0x48 obj\Debug\\code\FileSelecter\FileSelecter.o
 .rodata.str1.4
                0x02079ff0       0x76 obj\Debug\\code\FileSelecter\pb_fctrl.o
                                 0x7c (size before relaxing)
 *fill*         0x0207a066        0x2 00
 .rodata.str1.4
                0x0207a068       0xb2 obj\Debug\\code\Peripherals\G_Sensor\GMA301.o
                                 0xb4 (size before relaxing)
 *fill*         0x0207a11a        0x2 00
 .rodata.str1.4
                0x0207a11c       0x37 obj\Debug\\code\Peripherals\G_Sensor\da380.o
                                 0x40 (size before relaxing)
 *fill*         0x0207a153        0x1 00
 .rodata.str1.4
                0x0207a154       0x51 obj\Debug\\code\Peripherals\G_Sensor\gravity_sensor_api.o
                                 0x54 (size before relaxing)
 *fill*         0x0207a1a5        0x3 00
 .rodata.str1.4
                0x0207a1a8       0x67 obj\Debug\\code\Peripherals\G_Sensor\gravity_sensor_manage.o
                                 0x68 (size before relaxing)
 *fill*         0x0207a20f        0x1 00
 .rodata        0x0207a210       0x80 obj\Debug\\code\Peripherals\G_Sensor\gravity_sensor_manage.o
                0x0207a224                g_sensor_dev
 .rodata.str1.4
                0x0207a290       0x33 obj\Debug\\code\Peripherals\G_Sensor\parking_guard.o
                                 0x34 (size before relaxing)
 *fill*         0x0207a2c3        0x1 00
 .rodata.str1.4
                0x0207a2c4       0x68 obj\Debug\\code\Peripherals\G_Sensor\stk8312.o
                                 0x84 (size before relaxing)
 .rodata.str1.4
                0x0207a32c       0x3c obj\Debug\\code\Peripherals\clock.o
 .rodata        0x0207a368      0x108 obj\Debug\\code\Peripherals\clock.o
                0x0207a368                clk_div_tab
 .rodata.str1.4
                0x0207a470       0x19 obj\Debug\\code\Peripherals\timer.o
                                 0x1c (size before relaxing)
 *fill*         0x0207a489        0x3 00
 .rodata.str1.4
                0x0207a48c       0x1d obj\Debug\\code\Peripherals\uart.o
                                 0x20 (size before relaxing)
 *fill*         0x0207a4a9        0x3 00
 .rodata.str1.4
                0x0207a4ac       0x60 obj\Debug\\code\Peripherals\user_isp_cfg.o
 .rodata        0x0207a50c       0x10 obj\Debug\\code\Peripherals\user_isp_cfg.o
 .rodata.str1.4
                0x0207a51c       0x1f obj\Debug\\code\StorDev\dev_ctrl.o
                                 0x20 (size before relaxing)
 *fill*         0x0207a53b        0x1 00
 .rodata.str1.4
                0x0207a53c       0x6d obj\Debug\\code\common\audio_api.o
                                 0x70 (size before relaxing)
 *fill*         0x0207a5a9        0x3 00
 .rodata.str1.4
                0x0207a5ac        0x7 obj\Debug\\code\common\printf-stdarg.o
                                  0x8 (size before relaxing)
 *fill*         0x0207a5b3        0x1 00
 .rodata.str1.4
                0x0207a5b4       0x24 obj\Debug\\code\common\vm_api.o
 .rodata        0x0207a5d8       0x18 obj\Debug\\code\common\vm_api.o
 .rodata.str1.4
                0x0207a5f0       0x53 obj\Debug\\code\disp_ctrl\lcd.o
                                 0x54 (size before relaxing)
 *fill*         0x0207a643        0x1 00
 .rodata        0x0207a644       0x12 obj\Debug\\code\disp_ctrl\lcd.o
                0x0207a644                lcd_43_inch_para
 *fill*         0x0207a656        0x2 00
 .rodata.str1.4
                0x0207a658      0x17a obj\Debug\\code\disp_ctrl\my_ui1.o
                                0x17c (size before relaxing)
 *fill*         0x0207a7d2        0x2 00
 .rodata        0x0207a7d4      0x3c0 obj\Debug\\code\disp_ctrl\my_ui1.o
                0x0207a8ac                setting
                0x0207a924                reso_ratio
                0x0207a930                loop_video
                0x0207a948                while_balance
                0x0207a966                sennor_exposure
                0x0207a990                color_effect
                0x0207a9ae                moving_detect
                0x0207a9ba                date_label
                0x0207a9c6                mic_mute
                0x0207a9d2                parking_guard
                0x0207a9de                gravity_reaction
                0x0207a9f6                key_voice
                0x0207aa02                wdr_function
                0x0207aa0e                auto_power
                0x0207aa26                language_set
                0x0207aa4a                light_freq
                0x0207aa56                TV_mode
                0x0207aa62                flashlight_mode
                0x0207aa6e                screen_protect
                0x0207aa86                confirm
                0x0207aa92                photo_reso_ratio
                0x0207aaa4                normal_setting
                0x0207aac8                prefer_setting
                0x0207aad4                safety_assist_setting
                0x0207aae6                system_setting
                0x0207ab1c                photo_setting
                0x0207ab52                photo_date_label
                0x0207ab5e                lookback
                0x0207ab7c                lookback_lock
                0x0207ab88                lookback_unlock
 .rodata.str1.4
                0x0207ab94      0x564 obj\Debug\\code\disp_ctrl\ui_task.o
                                0x594 (size before relaxing)
 .rodata        0x0207b0f8       0x56 obj\Debug\\code\disp_ctrl\ui_task.o
                0x0207b0f8                fmt
                0x0207b104                battery_icon
                0x0207b10e                encode_mode_str
                0x0207b132                usb_opt_str
                0x0207b138                usb_opt_pic
                0x0207b13e                wb_table
                0x0207b144                ae_bftype
                0x0207b146                screen_protect_cnt
 *fill*         0x0207b14e        0x2 00
 .rodata        0x0207b150    0x40014 obj\Debug\\code\infoNES\NES_GAME\ddl.o
                0x0207b150                ddl_nes_size
                0x0207b154                ddl_nes
 .rodata        0x020bb164    0x20014 obj\Debug\\code\infoNES\NES_GAME\fj.o
                0x020bb164                _943_nes_size
                0x020bb168                _943_nes
 .rodata        0x020db178    0x10014 obj\Debug\\code\infoNES\NES_GAME\gef.o
                0x020db178                gef_nes_size
                0x020db17c                gef_nes
 .rodata.str1.4
                0x020eb18c       0x1c obj\Debug\\code\infoNES\infoNES_SRC\src\InfoNES.o
 .rodata        0x020eb1a8      0x850 obj\Debug\\code\infoNES\infoNES_SRC\src\InfoNES_Mapper.o
                0x020eb5c4                MapperTable
 .rodata        0x020eb9f8      0x438 obj\Debug\\code\infoNES\infoNES_SRC\src\K6502.o
 .rodata.str1.4
                0x020ebe30        0x5 obj\Debug\\code\infoNES\infoNES_System\InfoNES_System.o
                                  0x8 (size before relaxing)
 *fill*         0x020ebe35        0x1 00
 .rodata        0x020ebe36        0x6 obj\Debug\\code\key\adc_scan.o
 .rodata.str1.4
                0x020ebe3c       0x19 obj\Debug\\code\key\key_drv_ad.o
                                 0x1c (size before relaxing)
 *fill*         0x020ebe55        0x1 00
 .rodata        0x020ebe56       0x3a obj\Debug\\code\key\key_drv_ad.o
 .rodata        0x020ebe90       0x18 obj\Debug\\code\key\key_drv_manager.o
 .rodata.str1.4
                0x020ebea8       0x5c obj\Debug\\code\start\car_fs_api.o
 .rodata.str1.4
                0x020ebf04      0x2b2 obj\Debug\\code\start\dec_mode.o
                                0x31c (size before relaxing)
 *fill*         0x020ec1b6        0x2 00
 .rodata.str1.4
                0x020ec1b8      0x4aa obj\Debug\\code\start\enc_mode.o
                                0x5a8 (size before relaxing)
 .rodata        0x020ec662       0x30 obj\Debug\\code\start\enc_mode.o
                0x020ec662                video_xsize
                0x020ec66a                video_ysize
                0x020ec672                video_fake_xsize
                0x020ec67a                video_fake_ysize
                0x020ec682                photo_xsize
                0x020ec68a                photo_ysize
 *fill*         0x020ec692        0x2 00
 .rodata.str1.4
                0x020ec694      0x30a obj\Debug\\code\start\main.o
                                0x3b0 (size before relaxing)
 *fill*         0x020ec99e        0x2 00
 .rodata        0x020ec9a0       0x64 obj\Debug\\code\start\main.o
                0x020ec9a0                isp0_name
                0x020ec9ac                isp1_name
                0x020ec9b8                rep_name
                0x020ec9c4                lcd_name
                0x020ec9d0                avout_name
                0x020ec9dc                boot_res_filename
                0x020ec9e8                close_res_filename
 .rodata.str1.4
                0x020eca04      0x13c obj\Debug\\code\start\mode_switch.o
                                0x204 (size before relaxing)
 .rodata        0x020ecb40        0x4 obj\Debug\\code\start\mode_switch.o
 .rodata.str1.4
                0x020ecb44      0x1df obj\Debug\\code\start\pwr_onoff.o
                                0x26c (size before relaxing)
 .rodata        0x020ecd23        0x5 obj\Debug\\code\start\pwr_onoff.o
                0x020ecd23                auto_poweroff_sec
 .rodata.str1.4
                0x020ecd28      0x1ba obj\Debug\\code\start\usb_mode.o
                                0x22c (size before relaxing)
 *fill*         0x020ecee2        0x2 00
 .rodata        0x020ecee4       0xb0 obj\Debug\\code\start\usb_mode.o
                0x020ecf34                camera_info
 .rodata.str1.4
                0x020ecf94       0x59 obj\Debug\\code\tft_panel\ILI9325.o
                                 0x5c (size before relaxing)
 *fill*         0x020ecfed        0x1 00
 .rodata        0x020ecfee       0x12 obj\Debug\\code\tft_panel\ILI9325.o
                0x020ecfee                lcd_ili9325_inch_para
 .rodata.str1.4
                0x020ed000       0x1e obj\Debug\\code\tft_panel\avout.o
                                 0x20 (size before relaxing)
 .rodata        0x020ed01e       0x48 obj\Debug\\code\tft_panel\avout.o
                0x020ed01e                avout_ntsc_27MHz
                0x020ed030                avout_ntsc_36MHz
                0x020ed042                avout_pal_27MHz
                0x020ed054                avout_pal_36MHz
 *fill*         0x020ed066        0x2 00
 .rodata.str1.4
                0x020ed068      0x250 obj\Debug\\code\upgrade\upgrade.o
 .rodata        0x020ed2b8       0x2c obj\Debug\\code\upgrade\upgrade.o
 .rodata.str1.4
                0x020ed2e4      0x141 ..\..\..\libs\lib_vds.a(vds.o)
                                0x158 (size before relaxing)
 *fill*         0x020ed425        0x3 00
 .rodata        0x020ed428       0x14 ..\..\..\libs\lib_vds.a(vds.o)
 .rodata.str1.4
                0x020ed43c       0xd6 ..\..\..\libs\lib_vds.a(jpeg_dec_ctl.o)
                                 0xec (size before relaxing)
 *fill*         0x020ed512        0x2 00
 .rodata        0x020ed514       0x48 ..\..\..\libs\lib_vds.a(jpeg_dec_ctl.o)
 .rodata.str1.4
                0x020ed55c      0x27a ..\..\..\libs\lib_vds.a(jpeg_dec_unpkg.o)
                                0x2e4 (size before relaxing)
 *fill*         0x020ed7d6        0x2 00
 .rodata        0x020ed7d8       0x48 ..\..\..\libs\lib_vds.a(jpeg_dec_unpkg.o)
 .rodata.str1.4
                0x020ed820      0x470 ..\..\..\libs\lib_ves.a(ves.o)
 .rodata.str1.4
                0x020edc90      0x1cf ..\..\..\libs\lib_ves.a(avi_pkg_ctrl.o)
                                0x1d4 (size before relaxing)
 *fill*         0x020ede5f        0x1 00
 .rodata.str1.4
                0x020ede60       0x51 ..\..\..\libs\lib_ves.a(jpeg_enc_ctrl.o)
                                 0x64 (size before relaxing)
 *fill*         0x020edeb1        0x3 00
 .rodata.str1.4
                0x020edeb4       0x28 ..\..\..\libs\lib_ves.a(jpeg_pkg_ctrl.o)
                                 0x68 (size before relaxing)
 .rodata        0x020ededc       0x28 ..\..\..\libs\lib_jpeg_dec.a(jpeg_dec_if.o)
 .rodata.str1.4
                0x020edf04        0xd ..\..\..\libs\lib_jpeg_dec.a(jpeg_dec_if.o)
                                 0x10 (size before relaxing)
 *fill*         0x020edf11        0x3 00
 .rodata.str1.4
                0x020edf14       0x19 ..\..\..\libs\lib_jpeg_dec.a(jpeg_dec_isr.o)
                                 0x1c (size before relaxing)
 *fill*         0x020edf2d        0x3 00
 .rodata.str1.4
                0x020edf30       0xee ..\..\..\libs\lib_jpeg_dec.a(jpeg_decode.o)
                                0x104 (size before relaxing)
 *fill*         0x020ee01e        0x2 00
 .rodata.str1.4
                0x020ee020       0xcd ..\..\..\libs\lib_jpeg_dec.a(jpeg_dec_head.o)
                                 0xd0 (size before relaxing)
 *fill*         0x020ee0ed        0x3 00
 .rodata        0x020ee0f0       0xf0 ..\..\..\libs\lib_jpeg_dec.a(jpeg_dec_head.o)
                0x020ee0f0                g_headFunList
 .rodata.str1.4
                0x020ee1e0       0x57 ..\..\..\libs\lib_jpeg_enc.a(jpeg_enc_if.o)
                                 0x68 (size before relaxing)
 *fill*         0x020ee237        0x1 00
 .rodata        0x020ee238       0x30 ..\..\..\libs\lib_jpeg_enc.a(jpeg_enc_if.o)
 .rodata.str1.4
                0x020ee268       0x69 ..\..\..\libs\lib_jpeg_enc.a(jpeg_encode.o)
                                 0x6c (size before relaxing)
 .rodata        0x020ee2d1      0x270 ..\..\..\libs\lib_jpeg_enc.a(jpeg_encode.o)
                0x020ee2d1                jpeg_file_header
 *fill*         0x020ee541        0x3 00
 .rodata.str1.4
                0x020ee544      0x106 ..\..\..\libs\lib_jpeg_enc.a(jpeg_encode_init.o)
                                0x108 (size before relaxing)
 *fill*         0x020ee64a       0x16 00
 .rodata        0x020ee660     0x1b60 ..\..\..\libs\lib_jpeg_enc.a(jpeg_encode_init.o)
                0x020ee660                qtfilehead
 .rodata.str1.4
                0x020f01c0       0x95 ..\..\..\libs\lib_jpeg_enc.a(jpeg_encode_isr.o)
                                 0x9c (size before relaxing)
 *fill*         0x020f0255        0x3 00
 .rodata.str1.4
                0x020f0258       0x28 ..\..\..\libs\lib_jpeg_enc.a(Build_dynamic_huffman.o)
 .rodata        0x020f0280       0x20 ..\..\..\libs\lib_avi_unpkg.a(avi_unpkg_if.o)
 .rodata        0x020f02a0       0x98 ..\..\..\libs\lib_avi_unpkg.a(avi_unpkg.o)
 .rodata        0x020f0338        0xc ..\..\..\libs\lib_avi_unpkg.a(avi_unpkg_aud.o)
 .rodata        0x020f0344       0x1c ..\..\..\libs\lib_avi_unpkg.a(avi_unpkg_dev.o)
 .rodata        0x020f0360       0x18 ..\..\..\libs\lib_avi_unpkg.a(avi_unpkg_head.o)
 .rodata        0x020f0378       0x10 ..\..\..\libs\lib_avi_unpkg.a(avi_uppkg_vid.o)
 .rodata        0x020f0388       0x68 ..\..\..\libs\lib_avi_pkg.a(avi_pkg_if.o)
 .rodata        0x020f03f0      0x108 ..\..\..\libs\lib_avi_pkg.a(avi_pkg_dev.o)
 .rodata        0x020f04f8      0x16c ..\..\..\libs\lib_avi_pkg.a(avi_pkg.o)
 .rodata        0x020f0664      0x200 ..\..\..\libs\lib_avi_pkg.a(avi_pkg_head.o)
 .rodata        0x020f0864       0xe0 ..\..\..\libs\lib_avi_pkg.a(avi_pkg_idx.o)
 .rodata        0x020f0944      0x2ac ..\..\..\libs\lib_malloc.a(mem_heap.o)
 .rodata.str1.4
                0x020f0bf0       0x53 ..\..\..\libs\libsd1.a(mango_dev_sd1.o)
                                 0x54 (size before relaxing)
 *fill*         0x020f0c43        0x1 00
 .rodata        0x020f0c44       0x60 ..\..\..\libs\libsd1.a(mango_dev_sd1.o)
 .rodata.str1.4
                0x020f0ca4       0x15 ..\..\..\libs\libsd1.a(sd_host_init.o)
                                 0x18 (size before relaxing)
 *fill*         0x020f0cb9        0x3 00
 .rodata.str1.4
                0x020f0cbc       0xf5 ..\..\..\libs\libsd1.a(sd_host_read_end.o)
                                 0xf8 (size before relaxing)
 *fill*         0x020f0db1        0x3 00
 .rodata.str1.4
                0x020f0db4      0x10f ..\..\..\libs\libsd1.a(sd_host_write_end.o)
                                0x110 (size before relaxing)
 *fill*         0x020f0ec3        0x1 00
 .rodata.str1.4
                0x020f0ec4       0x8b ..\..\..\libs\libsd1.a(sdmmc_init.o)
                                 0x8c (size before relaxing)
 *fill*         0x020f0f4f        0x1 00
 .rodata        0x020f0f50       0x18 ..\..\..\libs\libsd1.a(sd_host_hw.o)
 .rodata.str1.4
                0x020f0f68       0x2f ..\..\..\libs\libsd1.a(sd_host_hw.o)
                                 0x30 (size before relaxing)
 .rodata.str1.4
                0x00000000       0x1c ..\..\..\libs\libsd1.a(sdmmc_det.o)
 *fill*         0x020f0f97        0x1 00
 .rodata.str1.4
                0x020f0f98       0x24 ..\..\..\libs\libsd1.a(sd_host_status.o)
 .rodata.str1.4
                0x020f0fbc       0x44 ..\..\..\libs\libsd1.a(sd_host_mount.o)
 .rodata.str1.4
                0x020f1000       0x6a ..\..\..\libs\libsd1.a(sd_host_read.o)
                                 0x6c (size before relaxing)
 *fill*         0x020f106a        0x2 00
 .rodata.str1.4
                0x020f106c       0x45 ..\..\..\libs\libsd1.a(sd_host_timeout.o)
                                 0x48 (size before relaxing)
 *fill*         0x020f10b1        0x3 00
 .rodata.str1.4
                0x020f10b4       0x70 ..\..\..\libs\libsd1.a(sd_host_write.o)
 .rodata.str1.4
                0x020f1124       0x4e ..\..\..\libs\libsd1.a(sd_init.o)
                                 0x50 (size before relaxing)
 *fill*         0x020f1172        0x2 00
 .rodata.str1.4
                0x020f1174       0x73 ..\..\..\libs\libsd1.a(sdmmc_host_set_bus_width.o)
                                 0xb0 (size before relaxing)
 *fill*         0x020f11e7        0x1 00
 .rodata.str1.4
                0x020f11e8       0x20 ..\..\..\libs\libsd1.a(sd_host_sd_status.o)
 .rodata.str1.4
                0x020f1208       0x18 ..\..\..\libs\libsd1.a(sd_host_set_hispeed.o)
 .rodata.str1.4
                0x020f1220       0xe9 ..\..\..\libs\lib_imc_disp.a(dsc.o)
                                 0xfc (size before relaxing)
 *fill*         0x020f1309        0x3 00
 .rodata.str1.4
                0x020f130c       0x6e ..\..\..\libs\lib_imb.a(imb_module.o)
                                 0x70 (size before relaxing)
 *fill*         0x020f137a        0x2 00
 .rodata        0x020f137c      0x4b4 ..\..\..\libs\lib_imb.a(imb_module.o)
                0x020f141c                palette_yuv
                0x020f181c                palette_index
                0x020f1820                palette_yuv1
 .rodata        0x020f1830        0xc ..\..\..\libs\lib_imc.a(imc_if.o)
 .rodata        0x020f183c     0x1d7c ..\..\..\libs\lib_imc.a(imc.o)
                0x020f183c                char16_32
                0x020f1bbc                char48_48
                0x020f239c                char64_64
                0x020f31ec                osdstrcount
                0x020f32e4                g_imc_openlist
                0x020f3304                g_imc_closelist
 .rodata        0x020f35b8       0x2c ..\..\..\libs\lib_imc.a(imc_cut.o)
 .rodata        0x020f35e4       0x20 ..\..\..\libs\lib_imc.a(imc_isr.o)
 .rodata        0x020f3604       0xd0 ..\..\..\libs\lib_imc.a(lane_dect.o)
 .rodata.str1.4
                0x020f36d4      0x337 ..\..\..\libs\lib_vm.a(vm.o)
                                0x340 (size before relaxing)
 *fill*         0x020f3a0b        0x1 00
 .rodata.str1.4
                0x020f3a0c      0x2a9 ..\..\..\libs\lib_font.a(font_other_language.o)
                                0x2ac (size before relaxing)
 *fill*         0x020f3cb5        0x3 00
 .rodata.str1.4
                0x020f3cb8       0x5d ..\..\..\libs\lib_font.a(font_sjis.o)
                                 0x60 (size before relaxing)
 *fill*         0x020f3d15        0x3 00
 .rodata.str1.4
                0x020f3d18       0x2d ..\..\..\libs\lib_font.a(font_big5.o)
                                 0x30 (size before relaxing)
 *fill*         0x020f3d45        0x3 00
 .rodata.str1.4
                0x020f3d48       0x53 ..\..\..\libs\lib_font.a(font_gbk.o)
                                 0x54 (size before relaxing)
 *fill*         0x020f3d9b        0x1 00
 .rodata.str1.4
                0x020f3d9c       0x24 ..\..\..\libs\lib_font.a(font_ksc.o)
 .rodata.str1.4
                0x020f3dc0       0xe9 ..\..\..\libs\lib_uicon.a(dc_showres.o)
                                 0xfc (size before relaxing)
 *fill*         0x020f3ea9        0x3 00
 .rodata.str1.4
                0x020f3eac       0x29 ..\..\..\libs\lib_uicon.a(ui_init.o)
                                 0x2c (size before relaxing)
 *fill*         0x020f3ed5        0x3 00
 .rodata.str1.4
                0x020f3ed8       0x24 ..\..\..\libs\lib_uicon.a(ui_layer.o)
 .rodata.str1.4
                0x020f3efc      0x10a ..\..\..\libs\lib_uicon.a(ui_menub.o)
                                0x10c (size before relaxing)
 *fill*         0x020f4006        0x2 00
 .rodata.str1.4
                0x020f4008       0x17 ..\..\..\libs\lib_uicon.a(ui_number.o)
                                 0x18 (size before relaxing)
 *fill*         0x020f401f        0x1 00
 .rodata.str1.4
                0x020f4020       0x10 ..\..\..\libs\lib_uicon.a(ui_text.o)
 .rodata.str1.4
                0x020f4030       0x15 ..\..\..\libs\lib_uicon.a(ui_time.o)
                                 0x18 (size before relaxing)
 *fill*         0x020f4045        0x3 00
 .rodata.str1.4
                0x020f4048      0x3d9 ..\..\..\libs\lib_drv_lib.a(drv_manage.o)
                                0x3dc (size before relaxing)
 *fill*         0x020f4421        0x3 00
 .rodata.str1.4
                0x020f4424       0x1d ..\..\..\libs\lib_dsc_ram.a(dsc_ram.o)
                                 0x20 (size before relaxing)
 *fill*         0x020f4441        0x3 00
 .rodata.str1.4
                0x020f4444       0x66 ..\..\..\libs\lib_sdfile.a(sdfile.o)
                                 0x68 (size before relaxing)
 *fill*         0x020f44aa        0x2 00
 .rodata        0x020f44ac        0xc ..\..\..\libs\lib_sdfile.a(sdfile.o)
 .rodata.str1.4
                0x020f44b8      0x275 ..\..\..\libs\lib_vfs.a(vfs.o)
                                0x278 (size before relaxing)
 *fill*         0x020f472d        0x1 00
 .rodata        0x020f472e       0x2c ..\..\..\libs\lib_vfs.a(vfs.o)
 *fill*         0x020f475a        0x2 00
 .rodata.str1.4
                0x020f475c       0x22 ..\..\..\libs\lib_vfs.a(vfs_init.o)
                                 0x24 (size before relaxing)
 *fill*         0x020f477e        0x2 00
 .rodata.str1.4
                0x020f4780       0xb8 ..\..\..\libs\lib_vfs.a(GenfsInc.o)
                                 0xc0 (size before relaxing)
 .rodata.str1.4
                0x020f4838      0x304 ..\..\..\libs\lib_vfs.a(ff.o)
 .rodata.str1.4
                0x020f4b3c        0x5 ..\..\..\libs\lib_vfs.a(dev_cache_alloc.o)
                                  0x8 (size before relaxing)
 *fill*         0x020f4b41        0x3 00
 .rodata.str1.4
                0x020f4b44       0x19 ..\..\..\libs\lib_vfs.a(dev_cache_write_dev.o)
                                 0x1c (size before relaxing)
 *fill*         0x020f4b5d        0x3 00
 .rodata.str1.4
                0x020f4b60       0x63 ..\..\..\libs\libhwi.a(HWI.o)
                                 0x64 (size before relaxing)
 *fill*         0x020f4bc3        0x1 00
 .rodata        0x020f4bc4       0x30 ..\..\..\libs\libspi0flash.a(mango_dev_spi0flash.o)
 .rodata.str1.4
                0x020f4bf4       0xa1 ..\..\..\libs\libspi0flash.a(spi0flash.o)
                                 0xa4 (size before relaxing)
 *fill*         0x020f4c95        0x3 00
 .rodata        0x020f4c98       0x40 ..\..\..\libs\libspi0flash.a(spi0flash.o)
 .rodata.str1.4
                0x020f4cd8      0x1dc ..\..\..\libs\lib_wfile_serve.a(wfile_serve.o)
 .rodata        0x020f4eb4       0x10 ..\..\..\libs\lib_wfile_serve.a(wfile_serve.o)
                0x020f4eb4                task_wfsv
 .rodata        0x020f4ec4       0x28 ..\..\..\libs\lib_audio.a(ladc.o)
                0x020f4ec4                ladc_ch_index
                0x020f4ed8                ladc_ch_src
                0x020f4ee2                ladc_samp_tal
 .rodata        0x020f4eec       0x1c ..\..\..\libs\lib_audio.a(audio.o)
 .rodata.str1.4
                0x020f4f08       0x40 ..\..\..\libs\lib_audio.a(dac.o)
 .rodata.str1.4
                0x020f4f48       0x51 ..\..\..\libs\lib_usb_slave.a(usb_slave_main.o)
                                 0x54 (size before relaxing)
 *fill*         0x020f4f99        0x3 00
 .rodata        0x020f4f9c       0x40 ..\..\..\libs\lib_usb_slave.a(usb_slave_main.o)
 .rodata.str1.4
                0x020f4fdc       0x19 ..\..\..\libs\lib_usb_slave.a(msd2video_ctrl.o)
                                 0x1c (size before relaxing)
 *fill*         0x020f4ff5        0x3 00
 .rodata        0x020f4ff8      0x140 ..\..\..\libs\lib_usb_slave.a(msd2video_ctrl.o)
 .rodata.str1.4
                0x020f5138       0x5a ..\..\..\libs\lib_usb_slave.a(msd_dev_update.o)
                                 0x5c (size before relaxing)
 *fill*         0x020f5192        0x2 00
 .rodata        0x020f5194       0x50 ..\..\..\libs\lib_usb_slave.a(msd_dev_update.o)
 .rodata.str1.4
                0x020f51e4      0x110 ..\..\..\libs\lib_usb_slave.a(msd_main.o)
                                0x128 (size before relaxing)
 .rodata        0x020f52f4      0x128 ..\..\..\libs\lib_usb_slave.a(msd_main.o)
 .rodata.str1.4
                0x020f541c      0x178 ..\..\..\libs\lib_usb_slave.a(video_main.o)
 .rodata        0x020f5594       0x90 ..\..\..\libs\lib_usb_slave.a(video_main.o)
 .rodata.str1.4
                0x020f5624       0xa7 ..\..\..\libs\lib_usb_slave.a(core_descriptor.o)
                                 0xa8 (size before relaxing)
 .rodata        0x020f56cb       0x69 ..\..\..\libs\lib_usb_slave.a(core_descriptor.o)
                0x020f56cb                sDeviceDescriptor
                0x020f56dd                sConfigDescriptor
                0x020f56e6                LANGUAGE_STR
                0x020f56ea                CHIPSERIAL_NUM
                0x020f56fa                MANUFACTURE_STR
                0x020f571c                PRODUCT_STR
 .rodata.str1.4
                0x020f5734       0x32 ..\..\..\libs\lib_usb_slave.a(usb_phy.o)
                                 0x34 (size before relaxing)
 *fill*         0x020f5766        0x2 00
 .rodata        0x020f5768       0x4c ..\..\..\libs\lib_usb_slave.a(usb_setup.o)
 .rodata        0x020f57b4       0x17 ..\..\..\libs\lib_usb_slave.a(msd_descriptor.o)
                0x020f57b4                sMassDescriptor
 .rodata        0x020f57cb      0x178 ..\..\..\libs\lib_usb_slave.a(video_descriptor.o)
                0x020f57cb                sVideoDescriptor
                0x020f592d                videoStringDescriptor
 .rodata        0x020f5943      0x117 ..\..\..\libs\lib_usb_slave.a(audio_descriptor.o)
                0x020f5943                bAudioVol
                0x020f5949                sSpeakerDescriptor
                0x020f59b6                speakerStringDescriptor
                0x020f59ca                sMicDescriptor
                0x020f5a36                bMicAudioVol
                0x020f5a3c                micStringDescriptor
 *fill*         0x020f5a5a        0x2 00
 .rodata.str1.4
                0x020f5a5c      0x10d ..\..\..\libs\lib_usb_phy.a(usb_hal.o)
                                0x110 (size before relaxing)
 *fill*         0x020f5b69        0x3 00
 .rodata        0x020f5b6c      0x158 ..\..\..\libs\lib_usb_phy.a(usb_hal.o)
                0x020f5b6c                HUSB_EP1
                0x020f5b94                HUSB_EP2
                0x020f5bbc                HUSB_EP3
                0x020f5be4                HUSB_EP4
                0x020f5c0c                HUSB_phy_desc
 .rodata        0x020f5cc4      0x800 ..\..\..\libs\lib_isp.a(gamma.o)
                0x020f5cc4                gamma_65_65_plus_poly_40_70_192_200
                0x020f5dc4                gamma_70_70_265_plus_poly_40_65_192_200
                0x020f5ec4                gamma_85_85_265_plus_poly_40_65_192_200
                0x020f5fc4                gamma_55_55_255
                0x020f60c4                gamma_60_60_255
                0x020f61c4                gamma_85_85
                0x020f62c4                gamma_75_75
                0x020f63c4                gamma_65_65
 .rodata.str1.4
                0x020f64c4      0x10d ..\..\..\libs\lib_isp.a(isp0_dev.o)
                                0x110 (size before relaxing)
 *fill*         0x020f65d1        0x3 00
 .rodata.str1.4
                0x020f65d4       0x63 ..\..\..\libs\lib_isp.a(isp_com.o)
                                 0x64 (size before relaxing)
 *fill*         0x020f6637        0x1 00
 .rodata.str1.4
                0x020f6638       0x4f ..\..\..\libs\lib_isp.a(isp_tuning.o)
                                 0x50 (size before relaxing)
 *fill*         0x020f6687        0x1 00
 .rodata        0x020f6688      0x3d0 ..\..\..\libs\lib_isp.a(isp_tuning.o)
 .rodata        0x020f6a58      0xaa4 ..\..\..\libs\lib_isp.a(isp_tuning_drc.o)
 .rodata        0x020f74fc       0x60 ..\..\..\libs\lib_isp.a(isp_if.o)
 .rodata.str1.4
                0x020f755c       0x13 ..\..\..\libs\lib_isp.a(isp1_dev.o)
                                 0x14 (size before relaxing)
 *fill*         0x020f756f        0x1 00
 .rodata.str1.4
                0x020f7570        0xc ..\..\..\libs\lib_cbuf.a(circular_buf.o)
 .rodata.str1.4
                0x020f757c       0x27 ..\..\..\libs\lib_lane.a(lane_detect.o)
                                 0x28 (size before relaxing)
 *fill*         0x020f75a3        0x1 00
 .rodata.str1.4
                0x020f75a4       0x20 ..\..\..\libs\lib_lane.a(hough.o)
 .rodata.str1.4
                0x020f75c4       0x15 ..\..\..\libs\librtos.a(os_core.o)
                                 0x18 (size before relaxing)
 *fill*         0x020f75d9        0x3 00
 .rodata.str1.4
                0x020f75dc       0x2b ..\..\..\libs\librtos.a(os_sem.o)
                                 0x2c (size before relaxing)
 *fill*         0x020f7607        0x1 00
 .rodata.str1.4
                0x020f7608       0x35 ..\..\..\libs\librtos.a(os_task.o)
                                 0x38 (size before relaxing)
 *fill*         0x020f763d        0x3 00
 .rodata.str1.4
                0x020f7640       0x8c ..\..\..\libs\librtos.a(os_api.o)
 .rodata.str1.4
                0x020f76cc       0x1c ..\..\..\libs\lib_irtc.a(irtc.o)
 .rodata        0x020f76e8       0x58 ..\..\..\libs\lib_irtc.a(irtc.o)
                0x020f76e8                month_tab1
                0x020f76f4                month_tab2
                0x020f7700                smonth_tab1
                0x020f771a                smonth_tab2
 .rodata.str1.4
                0x020f7740      0x29f ..\..\..\libs\lib_fbuf.a(frame_buf.o)
                                0x2a4 (size before relaxing)
 *fill*         0x020f79df        0x1 00
 .rodata        0x020f79e0       0x38 ..\..\..\libs\lib_sensor.a(iic.o)
                0x020f79e0                iic_fun
 .rodata.str1.4
                0x00000000        0x8 ..\..\..\libs\lib_sensor.a(isp_sensor_manage.o)
 .rodata.str1.4
                0x020f7a18       0x62 ..\..\..\libs\lib_sensor.a(GC0308.o)
                                 0x7c (size before relaxing)
 *fill*         0x020f7a7a        0x2 00
 .rodata.str1.4
                0x020f7a7c       0x86 ..\..\..\libs\lib_sensor.a(GC1004.o)
                                 0x9c (size before relaxing)
 *fill*         0x020f7b02        0x2 00
 .rodata.str1.4
                0x020f7b04       0x82 ..\..\..\libs\lib_sensor.a(H42.o)
                                 0xa0 (size before relaxing)
 *fill*         0x020f7b86        0x2 00
 .rodata.str1.4
                0x020f7b88       0x53 ..\..\..\libs\lib_sensor.a(NT99140.o)
                                 0x90 (size before relaxing)
 *fill*         0x020f7bdb        0x1 00
 .rodata        0x020f7bdc      0x504 ..\..\..\libs\lib_sensor.a(NT99140.o)
                0x020f7bdc                NT99141_INI_REG
                0x020f7e60                NT99140_INI_REG
 .rodata.str1.4
                0x020f80e0       0x5b ..\..\..\libs\lib_sensor.a(NT99143.o)
                                 0x7c (size before relaxing)
 *fill*         0x020f813b        0x1 00
 .rodata        0x020f813c      0x2dc ..\..\..\libs\lib_sensor.a(NT99143.o)
                0x020f813c                NT99143_INI_REG
 .rodata.str1.4
                0x020f8418       0x9d ..\..\..\libs\lib_sensor.a(OV9710.o)
                                 0xd4 (size before relaxing)
 .rodata        0x020f84b5       0x62 ..\..\..\libs\lib_sensor.a(OV9710.o)
                0x020f84b5                OV971x_INI_REG
 *fill*         0x020f8517        0x1 00
 .rodata.str1.4
                0x020f8518       0xe4 ..\..\..\libs\lib_sensor.a(SC1045.o)
                                0x10c (size before relaxing)
 .rodata        0x020f85fc       0xb0 ..\..\..\libs\lib_sensor.a(SC1045.o)
                0x020f85fc                SC1045_INI_REG
 .rodata.str1.4
                0x020f86ac       0x3f ..\..\..\libs\lib_sensor.a(gm7150.o)
                                 0x58 (size before relaxing)
 *fill*         0x020f86eb        0x1 00
 .rodata.str1.4
                0x020f86ec       0x9a ..\..\..\libs\lib_sensor.a(ps4100.o)
                                 0xb8 (size before relaxing)
 *fill*         0x020f8786        0x2 00
 .rodata.str1.4
                0x020f8788       0x89 ..\..\..\libs\lib_common.a(time.o)
                                 0x8c (size before relaxing)
 .rodata        0x020f8811       0x54 ..\..\..\libs\lib_common.a(time.o)
 *fill*         0x020f8865        0x3 00
 .rodata        0x020f8868       0x8c ..\..\..\libs\lib_common.a(Vsnprintf.o)
 .rodata.str1.4
                0x020f88f4       0xe8 ..\..\..\libs\lib_common.a(Vsnprintf.o)
                                 0xf0 (size before relaxing)
 .rodata        0x020f89dc      0x281 C:\JL\dv12\lib\libc.a(lib_a-ctype_.o)
                0x020f89dc                _ctype_
 *fill*         0x020f8c5d        0x3 00
 .rodata        0x020f8c60       0x40 C:\JL\dv12\lib\libgcc.a(divsf3.o)
 .rodata        0x020f8ca0      0x100 C:\JL\dv12\lib\libgcc.a(_clz.o)
                0x020f8ca0                __clz_tab
                0x020f8da0                _text_rodata_end = .
                0x020f8da0                _imb_work_begin = .
 *(.imb_isr_work)
 .imb_isr_work  0x020f8da0        0x8 ..\..\..\libs\lib_imb.a(imb_module.o)
                0x020f8da0                imb_isr_video_disp_tmp
                0x020f8da8                _imb_work_end = .
 *(.data)
 .data          0x020f8da8        0x4 obj\Debug\\code\FileSelecter\FileSelecter.o
                0x020f8da8                cycle_time
 .data          0x020f8dac       0x30 obj\Debug\\code\FileSelecter\pb_fctrl.o
                0x020f8dac                dec_video_name_formatA
                0x020f8dbc                dec_photo_name_format
                0x020f8dcc                dec_protect_video_file_formatA
 .data          0x020f8ddc        0x8 obj\Debug\\code\Peripherals\G_Sensor\GMA301.o
                0x020f8ddc                Gm301_threhold
 .data          0x020f8de4        0x0 obj\Debug\\code\Peripherals\G_Sensor\da380.o
 .data          0x020f8de4        0x0 obj\Debug\\code\Peripherals\G_Sensor\gravity_sensor_api.o
 .data          0x020f8de4        0x0 obj\Debug\\code\Peripherals\G_Sensor\gravity_sensor_manage.o
 .data          0x020f8de4        0x0 obj\Debug\\code\Peripherals\G_Sensor\i2c.o
 .data          0x020f8de4        0x0 obj\Debug\\code\Peripherals\G_Sensor\parking_guard.o
 .data          0x020f8de4        0x0 obj\Debug\\code\Peripherals\G_Sensor\stk8312.o
 .data          0x020f8de4        0x0 obj\Debug\\code\Peripherals\clock.o
 .data          0x020f8de4        0x0 obj\Debug\\code\Peripherals\timer.o
 .data          0x020f8de4        0x0 obj\Debug\\code\Peripherals\uart.o
 .data          0x020f8de4        0x8 obj\Debug\\code\Peripherals\user_isp_cfg.o
 .data          0x020f8dec        0x0 obj\Debug\\code\Peripherals\wdt.o
 .data          0x020f8dec        0x0 obj\Debug\\code\StorDev\dev_ctrl.o
 .data          0x020f8dec     0x3ce0 obj\Debug\\code\common\audio_api.o
 .data          0x020fcacc        0x0 obj\Debug\\code\common\common.o
 .data          0x020fcacc        0x0 obj\Debug\\code\common\fcvt.o
 .data          0x020fcacc        0x0 obj\Debug\\code\common\printf-stdarg.o
 .data          0x020fcacc        0x0 obj\Debug\\code\common\vm_api.o
 .data          0x020fcacc        0x4 obj\Debug\\code\disp_ctrl\lcd.o
                0x020fcacc                LCD_W
                0x020fcace                LCD_H
 .data          0x020fcad0      0x558 obj\Debug\\code\disp_ctrl\my_ui1.o
                0x020fcad0                language_talbe
                0x020fcad8                menu_video_list
                0x020fcc54                menu_videoMP_list
                0x020fcc68                menu_videolp_list
                0x020fcc7c                menu_video_normallist
                0x020fccf4                menu_video_preferlist
                0x020fcd30                menu_video_safetyassistlist
                0x020fcd80                menu_video_systemlist
                0x020fce20                menu_photo_list
                0x020fced4                menu_photoMP_list
                0x020fcee8                menu_play_list
                0x020fcf60                menu_play_list_lock
                0x020fcfb0                menu_play_list_unlock
                0x020fd000                menu_array0
                0x020fd008                menu_array1
                0x020fd010                menu_array2
                0x020fd018                menu_array2_lock
                0x020fd020                menu_array2_unlock
 .data          0x020fd028        0x4 obj\Debug\\code\disp_ctrl\ui_task.o
 .data          0x020fd02c        0x0 obj\Debug\\code\infoNES\NES_GAME\ddl.o
 .data          0x020fd02c        0x0 obj\Debug\\code\infoNES\NES_GAME\fj.o
 .data          0x020fd02c        0x0 obj\Debug\\code\infoNES\NES_GAME\gef.o
 .data          0x020fd02c        0x0 obj\Debug\\code\infoNES\infoNES_PORT\nes_port.o
 .data          0x020fd02c       0x18 obj\Debug\\code\infoNES\infoNES_SRC\src\InfoNES.o
                0x020fd02c                PPU_MirrorTable
 .data          0x020fd044        0x0 obj\Debug\\code\infoNES\infoNES_SRC\src\InfoNES_Mapper.o
 .data          0x020fd044      0x204 obj\Debug\\code\infoNES\infoNES_SRC\src\InfoNES_pAPU.o
                0x020fd044                pAPUSoundRegs
                0x020fd094                ApuQual
                0x020fd0e8                pulse_25
                0x020fd108                pulse_50
                0x020fd128                pulse_75
                0x020fd148                pulse_87
                0x020fd168                triangle_50
                0x020fd188                pulse_waves
                0x020fd198                ApuAtl
                0x020fd1b8                ApuFreqLimit
                0x020fd1c8                ApuNoiseFreq
                0x020fd208                ApuDpcmCycles
 .data          0x020fd248        0x0 obj\Debug\\code\infoNES\infoNES_SRC\src\K6502.o
 .data          0x020fd248       0x80 obj\Debug\\code\infoNES\infoNES_System\InfoNES_System.o
                0x020fd248                NesPalette
 .data          0x020fd2c8        0x0 obj\Debug\\code\key\adc_scan.o
 .data          0x020fd2c8        0x0 obj\Debug\\code\key\key_drv_ad.o
 .data          0x020fd2c8       0x10 obj\Debug\\code\key\key_drv_manager.o
 .data          0x020fd2d8        0xc obj\Debug\\code\key\powercheck.o
                0x020fd2d8                power_stag
 .data          0x020fd2e4        0x0 obj\Debug\\code\start\car_fs_api.o
 .data          0x020fd2e4        0x0 obj\Debug\\code\start\dec_mode.o
 .data          0x020fd2e4        0x0 obj\Debug\\code\start\enc_mode.o
 .data          0x020fd2e4      0x280 obj\Debug\\code\start\main.o
 .data          0x020fd564        0x0 obj\Debug\\code\start\mode_switch.o
 .data          0x020fd564        0x0 obj\Debug\\code\start\pwr_onoff.o
 .data          0x020fd564        0x0 obj\Debug\\code\start\reg.o
 .data          0x020fd564        0x0 obj\Debug\\code\start\startup.o
 .data          0x020fd564        0x0 obj\Debug\\code\start\usb_mode.o
 .data          0x020fd564        0x0 obj\Debug\\code\tft_panel\ILI8960.o
 .data          0x020fd564        0x0 obj\Debug\\code\tft_panel\ILI8961.o
 .data          0x020fd564        0x0 obj\Debug\\code\tft_panel\ILI9163.o
 .data          0x020fd564        0x0 obj\Debug\\code\tft_panel\ILI9325.o
 .data          0x020fd564        0x0 obj\Debug\\code\tft_panel\LCD_RM68116.o
 .data          0x020fd564        0x0 obj\Debug\\code\tft_panel\LQ026B3UX01.o
 .data          0x020fd564        0x0 obj\Debug\\code\tft_panel\SSD1963.o
 .data          0x020fd564        0x0 obj\Debug\\code\tft_panel\ST7735S.o
 .data          0x020fd564        0x0 obj\Debug\\code\tft_panel\T15P00.o
 .data          0x020fd564        0x0 obj\Debug\\code\tft_panel\avout.o
 .data          0x020fd564        0x0 obj\Debug\\code\tft_panel\disp_43inch.o
 .data          0x020fd564        0x0 obj\Debug\\code\tft_panel\disp_8inch.o
 .data          0x020fd564        0x0 obj\Debug\\code\tft_panel\disp_JC4301.o
 .data          0x020fd564        0x0 obj\Debug\\code\tft_panel\pap.o
 .data          0x020fd564       0x3c obj\Debug\\code\upgrade\upgrade.o
 .data          0x020fd5a0        0x0 ..\..\..\libs\lib_vds.a(vds.o)
 .data          0x020fd5a0        0x0 ..\..\..\libs\lib_vds.a(jpeg_dec_ctl.o)
 .data          0x020fd5a0        0x0 ..\..\..\libs\lib_vds.a(jpeg_dec_unpkg.o)
 .data          0x020fd5a0        0x0 ..\..\..\libs\lib_ves.a(ves.o)
 .data          0x020fd5a0        0x4 ..\..\..\libs\lib_ves.a(avi_pkg_ctrl.o)
                0x020fd5a0                avi_pkg_prio
 .data          0x020fd5a4        0x0 ..\..\..\libs\lib_ves.a(jpeg_enc_ctrl.o)
 .data          0x020fd5a4        0x0 ..\..\..\libs\lib_ves.a(jpeg_pkg_ctrl.o)
 .data          0x020fd5a4       0x40 ..\..\..\libs\lib_jpeg_dec.a(jpeg_dec_if.o)
 .data          0x020fd5e4        0x0 ..\..\..\libs\lib_jpeg_dec.a(jpeg_dec_isr.o)
 .data          0x020fd5e4        0x0 ..\..\..\libs\lib_jpeg_dec.a(jpeg_decode.o)
 *fill*         0x020fd5e4       0x1c 00
 .data          0x020fd600      0x320 ..\..\..\libs\lib_jpeg_dec.a(jpeg_dec_head.o)
                0x020fd600                QT_TBL
                0x020fd700                STD_HUFFMAN_TBL
 .data          0x020fd920       0x30 ..\..\..\libs\lib_jpeg_enc.a(jpeg_enc_if.o)
                0x020fd920                jpeg_enc_ops
                0x020fd938                jpeg1_enc_ops
 .data          0x020fd950        0x0 ..\..\..\libs\lib_jpeg_enc.a(jpeg_encode.o)
 .data          0x020fd950        0x0 ..\..\..\libs\lib_jpeg_enc.a(jpeg_encode_init.o)
 .data          0x020fd950        0x0 ..\..\..\libs\lib_jpeg_enc.a(jpeg_encode_isr.o)
 .data          0x020fd950       0xb0 ..\..\..\libs\lib_jpeg_enc.a(Build_dynamic_huffman.o)
 .data          0x020fda00        0x0 ..\..\..\libs\lib_jpeg_enc.a(jpeg_abr.o)
 .data          0x020fda00       0x1c ..\..\..\libs\lib_avi_unpkg.a(avi_unpkg_if.o)
 .data          0x020fda1c        0x0 ..\..\..\libs\lib_avi_unpkg.a(avi_unpkg.o)
 .data          0x020fda1c        0x0 ..\..\..\libs\lib_avi_unpkg.a(avi_unpkg_aud.o)
 .data          0x020fda1c        0x0 ..\..\..\libs\lib_avi_unpkg.a(avi_unpkg_dev.o)
 .data          0x020fda1c        0x0 ..\..\..\libs\lib_avi_unpkg.a(avi_unpkg_head.o)
 .data          0x020fda1c        0x0 ..\..\..\libs\lib_avi_unpkg.a(avi_uppkg_vid.o)
 .data          0x020fda1c       0x1c ..\..\..\libs\lib_avi_pkg.a(avi_pkg_if.o)
 .data          0x020fda38        0x0 ..\..\..\libs\lib_avi_pkg.a(avi_pkg_dev.o)
 .data          0x020fda38        0x0 ..\..\..\libs\lib_avi_pkg.a(avi_pkg.o)
 .data          0x020fda38        0x0 ..\..\..\libs\lib_avi_pkg.a(avi_pkg_head.o)
 .data          0x020fda38        0x0 ..\..\..\libs\lib_avi_pkg.a(avi_pkg_idx.o)
 .data          0x020fda38        0x4 ..\..\..\libs\lib_malloc.a(mem_heap.o)
 .data          0x020fda3c       0x10 ..\..\..\libs\libsd1.a(mango_dev_sd1.o)
 .data          0x020fda4c        0x0 ..\..\..\libs\libsd1.a(sd_host_init.o)
 .data          0x020fda4c        0x0 ..\..\..\libs\libsd1.a(sd_host_read_end.o)
 .data          0x020fda4c        0x0 ..\..\..\libs\libsd1.a(sd_host_unmount.o)
 .data          0x020fda4c        0x0 ..\..\..\libs\libsd1.a(sd_host_write_end.o)
 .data          0x020fda4c        0x0 ..\..\..\libs\libsd1.a(sdmmc_init.o)
 .data          0x020fda4c        0x0 ..\..\..\libs\libsd1.a(suspend_sdmmc.o)
 .data          0x020fda4c        0x0 ..\..\..\libs\libsd1.a(sd_host_send_csd.o)
 .data          0x020fda4c        0x0 ..\..\..\libs\libsd1.a(sd_host_stop_trans.o)
 .data          0x020fda4c        0x0 ..\..\..\libs\libsd1.a(sd_host_hw.o)
 .data          0x020fda4c        0x0 ..\..\..\libs\libsd1.a(sd_wait_idle.o)
 .data          0x020fda4c        0x0 ..\..\..\libs\libsd1.a(sdmmc_det.o)
 .data          0x020fda4c        0x0 ..\..\..\libs\libsd1.a(sd_host_reg.o)
 .data          0x020fda4c        0x0 ..\..\..\libs\libsd1.a(sd_send_command.o)
 .data          0x020fda4c        0x0 ..\..\..\libs\libsd1.a(sd_host_status.o)
 .data          0x020fda4c        0x0 ..\..\..\libs\libsd1.a(sd_host_args.o)
 .data          0x020fda4c        0x0 ..\..\..\libs\libsd1.a(sd_host_mount.o)
 .data          0x020fda4c        0x0 ..\..\..\libs\libsd1.a(sd_host_read.o)
 .data          0x020fda4c        0x0 ..\..\..\libs\libsd1.a(sd_host_timeout.o)
 .data          0x020fda4c        0x0 ..\..\..\libs\libsd1.a(sd_host_write.o)
 .data          0x020fda4c        0x0 ..\..\..\libs\libsd1.a(sd_init.o)
 .data          0x020fda4c        0x0 ..\..\..\libs\libsd1.a(sdmmc_host_set_bus_width.o)
 .data          0x020fda4c        0x0 ..\..\..\libs\libsd1.a(sdmmc_host_set_hispeed.o)
 .data          0x020fda4c        0x0 ..\..\..\libs\libsd1.a(mmc_host_send_rca.o)
 .data          0x020fda4c        0x0 ..\..\..\libs\libsd1.a(mmc_host_set_bus_width.o)
 .data          0x020fda4c        0x0 ..\..\..\libs\libsd1.a(mmc_host_set_hispeed.o)
 .data          0x020fda4c        0x0 ..\..\..\libs\libsd1.a(sd_host_all_send_cid.o)
 .data          0x020fda4c        0x0 ..\..\..\libs\libsd1.a(sd_host_reset.o)
 .data          0x020fda4c        0x0 ..\..\..\libs\libsd1.a(sd_host_sd_status.o)
 .data          0x020fda4c        0x0 ..\..\..\libs\libsd1.a(sd_host_send_if_cond.o)
 .data          0x020fda4c        0x0 ..\..\..\libs\libsd1.a(sd_host_send_rca.o)
 .data          0x020fda4c        0x0 ..\..\..\libs\libsd1.a(sd_host_set_bus_width.o)
 .data          0x020fda4c        0x0 ..\..\..\libs\libsd1.a(sd_host_set_hispeed.o)
 .data          0x020fda4c        0x0 ..\..\..\libs\libsd1.a(sd_host_switch_func.o)
 .data          0x020fda4c        0x0 ..\..\..\libs\libsd1.a(sd_select_card.o)
 .data          0x020fda4c        0x0 ..\..\..\libs\libsd1.a(sd_send_scr.o)
 .data          0x020fda4c        0x0 ..\..\..\libs\libsd1.a(sd_chk_ctl.o)
 .data          0x020fda4c        0x0 ..\..\..\libs\libsd1.a(sd_read_start.o)
 .data          0x020fda4c        0x0 ..\..\..\libs\libsd1.a(sd_write_start.o)
 .data          0x020fda4c        0x0 ..\..\..\libs\libsd1.a(sd_host_identification.o)
 .data          0x020fda4c        0x0 ..\..\..\libs\libsd1.a(mmc_host_send_op_cond.o)
 .data          0x020fda4c        0x0 ..\..\..\libs\libsd1.a(sd_host_app_cmd.o)
 .data          0x020fda4c        0x0 ..\..\..\libs\libsd1.a(sd_host_send_op_cond.o)
 .data          0x020fda4c        0x0 ..\..\..\libs\lib_imc_disp.a(dsc.o)
 .data          0x020fda4c        0x0 ..\..\..\libs\lib_imb.a(imb_module.o)
 .data          0x020fda4c        0x0 ..\..\..\libs\lib_imb.a(cve_cfg.o)
 .data          0x020fda4c        0x0 ..\..\..\libs\lib_imb.a(imb_isr.o)
 .data          0x020fda4c       0x38 ..\..\..\libs\lib_imc.a(imc_if.o)
 .data          0x020fda84        0x0 ..\..\..\libs\lib_imc.a(imc_rep.o)
 .data          0x020fda84       0x10 ..\..\..\libs\lib_imc.a(imc.o)
                0x020fda84                osdtimeformat
 .data          0x020fda94        0x0 ..\..\..\libs\lib_imc.a(imc_cut.o)
 .data          0x020fda94        0x0 ..\..\..\libs\lib_imc.a(imc_isr.o)
 .data          0x020fda94        0x0 ..\..\..\libs\lib_imc.a(lane_dect.o)
 .data          0x020fda94        0x0 ..\..\..\libs\lib_vm.a(vm.o)
 .data          0x020fda94       0xc4 ..\..\..\libs\lib_font.a(font_other_language.o)
                0x020fda94                OtherLanguagePIX
                0x020fdb0c                OtherLanguageTAB
                0x020fdb34                lang
 .data          0x020fdb58        0x0 ..\..\..\libs\lib_font.a(font_out.o)
 .data          0x020fdb58        0x0 ..\..\..\libs\lib_font.a(font_sjis.o)
 .data          0x020fdb58        0x0 ..\..\..\libs\lib_font.a(font_area_ctl.o)
 .data          0x020fdb58        0x0 ..\..\..\libs\lib_font.a(font_ascii.o)
 .data          0x020fdb58        0x0 ..\..\..\libs\lib_font.a(font_big5.o)
 .data          0x020fdb58        0x0 ..\..\..\libs\lib_font.a(font_gbk.o)
 .data          0x020fdb58        0x0 ..\..\..\libs\lib_font.a(font_ksc.o)
 .data          0x020fdb58        0x0 ..\..\..\libs\lib_uicon.a(dc_showres.o)
 .data          0x020fdb58        0x0 ..\..\..\libs\lib_uicon.a(ui_get_info.o)
 .data          0x020fdb58        0x0 ..\..\..\libs\lib_uicon.a(ui_init.o)
 .data          0x020fdb58        0x0 ..\..\..\libs\lib_uicon.a(ui_layer.o)
 .data          0x020fdb58        0x0 ..\..\..\libs\lib_uicon.a(ui_menu.o)
 .data          0x020fdb58        0x0 ..\..\..\libs\lib_uicon.a(ui_menub.o)
 .data          0x020fdb58        0x0 ..\..\..\libs\lib_uicon.a(ui_number.o)
 .data          0x020fdb58        0x0 ..\..\..\libs\lib_uicon.a(ui_pic.o)
 .data          0x020fdb58        0x0 ..\..\..\libs\lib_uicon.a(ui_sdfs.o)
 .data          0x020fdb58        0x0 ..\..\..\libs\lib_uicon.a(ui_text.o)
 .data          0x020fdb58        0x0 ..\..\..\libs\lib_uicon.a(ui_time.o)
 .data          0x020fdb58        0x0 ..\..\..\libs\lib_uicon.a(ui_time1.o)
 .data          0x020fdb58        0x0 ..\..\..\libs\lib_drv_lib.a(drv_manage.o)
 .data          0x020fdb58        0x0 ..\..\..\libs\lib_dsc_ram.a(dsc_ram.o)
 .data          0x020fdb58        0x0 ..\..\..\libs\lib_vedio_ram.a(yuv_ram.o)
 .data          0x020fdb58       0x40 ..\..\..\libs\lib_sdfile.a(sdfile.o)
 .data          0x020fdb98        0x0 ..\..\..\libs\lib_vfs.a(vfs.o)
 .data          0x020fdb98       0x6c ..\..\..\libs\lib_vfs.a(vfs_init.o)
 .data          0x020fdc04        0x0 ..\..\..\libs\lib_vfs.a(GenfsInc.o)
 .data          0x020fdc04        0x0 ..\..\..\libs\lib_vfs.a(ff.o)
 .data          0x020fdc04        0x0 ..\..\..\libs\lib_vfs.a(dev_Mount.o)
 .data          0x020fdc04        0x0 ..\..\..\libs\lib_vfs.a(dev_cache_alloc.o)
 .data          0x020fdc04        0x0 ..\..\..\libs\lib_vfs.a(dev_cache_flush.o)
 .data          0x020fdc04        0x0 ..\..\..\libs\lib_vfs.a(dev_cache_read_only.o)
 .data          0x020fdc04        0x0 ..\..\..\libs\lib_vfs.a(dev_cache_write_dev.o)
 .data          0x020fdc04        0x0 ..\..\..\libs\lib_vfs.a(fs_api.o)
 .data          0x020fdc04        0x0 ..\..\..\libs\lib_vfs.a(dev_Cache.o)
 .data          0x020fdc04        0x0 ..\..\..\libs\libhwi.a(cache.o)
 .data          0x020fdc04        0x0 ..\..\..\libs\libhwi.a(HWI.o)
 .data          0x020fdc04        0x8 ..\..\..\libs\libspi0flash.a(mango_dev_spi0flash.o)
                0x020fdc04                spi0flash_mutex
 .data          0x020fdc0c        0x4 ..\..\..\libs\libspi0flash.a(spi0flash.o)
 .data          0x020fdc10        0x0 ..\..\..\libs\libspi0.a(spi0.o)
 .data          0x020fdc10        0x0 ..\..\..\libs\lib_wfile_serve.a(wfile_serve.o)
 .data          0x020fdc10        0x0 ..\..\..\libs\lib_audio.a(ladc.o)
 .data          0x020fdc10        0x0 ..\..\..\libs\lib_audio.a(audio.o)
 .data          0x020fdc10        0x0 ..\..\..\libs\lib_audio.a(dac.o)
 .data          0x020fdc10        0x8 ..\..\..\libs\lib_usb_slave.a(usb_slave_main.o)
                0x020fdc10                usb0_slave_mutex
 .data          0x020fdc18       0x18 ..\..\..\libs\lib_usb_slave.a(msd2video_ctrl.o)
 .data          0x020fdc30        0x0 ..\..\..\libs\lib_usb_slave.a(msd_dev_update.o)
 .data          0x020fdc30        0x0 ..\..\..\libs\lib_usb_slave.a(msd_main.o)
 .data          0x020fdc30        0x0 ..\..\..\libs\lib_usb_slave.a(video_main.o)
 .data          0x020fdc30        0x0 ..\..\..\libs\lib_usb_slave.a(audio_main.o)
 .data          0x020fdc30        0x0 ..\..\..\libs\lib_usb_slave.a(core_descriptor.o)
 .data          0x020fdc30        0x0 ..\..\..\libs\lib_usb_slave.a(usb_phy.o)
 .data          0x020fdc30        0x0 ..\..\..\libs\lib_usb_slave.a(usb_setup.o)
 .data          0x020fdc30        0x0 ..\..\..\libs\lib_usb_slave.a(msd_descriptor.o)
 .data          0x020fdc30       0x28 ..\..\..\libs\lib_usb_slave.a(video_descriptor.o)
                0x020fdc30                Video_Probe_Commit_Control
                0x020fdc4a                Video_StillProbe_Commit_Control
 .data          0x020fdc58        0x0 ..\..\..\libs\lib_usb_slave.a(audio_descriptor.o)
 .data          0x020fdc58        0x0 ..\..\..\libs\lib_usb_phy.a(usb_hal.o)
 .data          0x020fdc58        0x0 ..\..\..\libs\lib_isp.a(gamma.o)
 .data          0x020fdc58        0x0 ..\..\..\libs\lib_isp.a(isp0_dev.o)
 .data          0x020fdc58        0x0 ..\..\..\libs\lib_isp.a(isp_com.o)
 .data          0x020fdc58        0x0 ..\..\..\libs\lib_isp.a(isp_customize.o)
 .data          0x020fdc58      0x6ac ..\..\..\libs\lib_isp.a(isp_tuning.o)
                0x020fdc58                isp0_sensors
 .data          0x020fe304        0x8 ..\..\..\libs\lib_isp.a(isp_tuning_drc.o)
 .data          0x020fe30c     0x3000 ..\..\..\libs\lib_isp.a(lsc_coeff.o)
                0x020fe30c                lsc_coeff_g
                0x020ff30c                lsc_coeff_r
                0x0210030c                lsc_coeff_b
 .data          0x0210130c        0x0 ..\..\..\libs\lib_isp.a(median_filter.o)
 .data          0x0210130c       0x10 ..\..\..\libs\lib_isp.a(isp_if.o)
 .data          0x0210131c        0x0 ..\..\..\libs\lib_isp.a(average_filter.o)
 .data          0x0210131c        0x0 ..\..\..\libs\lib_isp.a(fixed_math.o)
 .data          0x0210131c        0x0 ..\..\..\libs\lib_isp.a(isp1_dev.o)
 .data          0x0210131c        0x0 ..\..\..\libs\lib_cbuf.a(circular_buf.o)
 .data          0x0210131c       0x14 ..\..\..\libs\lib_lane.a(lane_detect.o)
                0x0210131c                vanish_y
                0x02101320                car_head_y
                0x02101324                hough_points_th0
                0x02101328                hough_points_th1
                0x0210132c                lane_width_factor
 .data          0x02101330        0x0 ..\..\..\libs\lib_lane.a(canny.o)
 .data          0x02101330        0x0 ..\..\..\libs\lib_lane.a(canny_edge.o)
 .data          0x02101330        0x4 ..\..\..\libs\lib_lane.a(hough.o)
 .data          0x02101334     0x10e0 ..\..\..\libs\lib_lane.a(LUT1024.o)
                0x02101334                LUT_COS_1024
                0x021018d4                LUT_SIN_1024
                0x02101e74                LUT_TAN_1024
 .data          0x02102414        0x0 ..\..\..\libs\librtos.a(os_core.o)
 .data          0x02102414        0x0 ..\..\..\libs\librtos.a(os_mutex.o)
 .data          0x02102414        0x0 ..\..\..\libs\librtos.a(os_sem.o)
 .data          0x02102414        0x0 ..\..\..\libs\librtos.a(os_task.o)
 .data          0x02102414        0x0 ..\..\..\libs\librtos.a(os_time.o)
 .data          0x02102414        0x0 ..\..\..\libs\librtos.a(os_api.o)
 .data          0x02102414        0x0 ..\..\..\libs\librtos.a(os_cpu.o)
 .data          0x02102414        0x0 ..\..\..\libs\librtos.a(os_cpu_c.o)
 .data          0x02102414        0x0 ..\..\..\libs\lib_irtc.a(irtc.o)
 .data          0x02102414        0x0 ..\..\..\libs\lib_fbuf.a(frame_buf.o)
 .data          0x02102414        0x0 ..\..\..\libs\lib_sensor.a(iic.o)
 .data          0x02102414      0x2ac ..\..\..\libs\lib_sensor.a(isp_sensor_manage.o)
 .data          0x021026c0        0x0 ..\..\..\libs\lib_sensor.a(GC0308.o)
 .data          0x021026c0       0xec ..\..\..\libs\lib_sensor.a(GC1004.o)
                0x021026c0                GC1004_INI_REG
 .data          0x021027ac     0x15b0 ..\..\..\libs\lib_sensor.a(GC1004_tbl.o)
                0x021027ac                GC1004_AE_lut_min_30fps
                0x02102d04                GC1004_AE_lut_50Hz_min_25fps
                0x021032a4                GC1004_AE_lut_50Hz_min_33fps
                0x021037fc                GC1004_AE_lut_60Hz_min_30fps
 .data          0x02103d5c     0x1adc ..\..\..\libs\lib_sensor.a(H42.o)
                0x02103d5c                H42_AE_lut_50Hz_min_33fps
                0x021043e4                H42_AE_lut_min_30fps
                0x02104a6c                H42_AE_lut_50Hz_min_25fps
                0x02105164                H42_AE_lut_50Hz_min_25fps_bk
                0x0210579c                H42_INI_REG
 .data          0x02105838        0x0 ..\..\..\libs\lib_sensor.a(NT99140.o)
 .data          0x02105838       0x14 ..\..\..\libs\lib_sensor.a(NT99143.o)
 .data          0x0210584c      0x3e8 ..\..\..\libs\lib_sensor.a(NT99143_tbl.o)
                0x0210584c                NT99143_AE_lut_50Hz
 .data          0x02105c34        0x0 ..\..\..\libs\lib_sensor.a(OV9710.o)
 .data          0x02105c34       0x1c ..\..\..\libs\lib_sensor.a(SC1045.o)
 .data          0x02105c50      0xc88 ..\..\..\libs\lib_sensor.a(SC1045_tbl.o)
                0x02105c50                SC1045_AE_lut_50Hz_min_25fps
                0x021062b8                SC1045_AE_lut_50Hz_min_30fps
 .data          0x021068d8        0x0 ..\..\..\libs\lib_sensor.a(gm7150.o)
 .data          0x021068d8       0x58 ..\..\..\libs\lib_sensor.a(ps4100.o)
                0x021068d8                PS4100_INI_REG
 .data          0x02106930      0xce8 ..\..\..\libs\lib_sensor.a(ps4100_tbl.o)
                0x02106930                PS4100_AE_lut_50Hz_min_30fps
                0x02106f80                PS4100_AE_lut_50Hz_min_25fps
 .data          0x02107618        0x0 ..\..\..\libs\lib_common.a(time.o)
 .data          0x02107618        0x0 ..\..\..\libs\lib_common.a(Vsnprintf.o)
 .data          0x02107618        0x0 C:\JL\dv12\lib\libc.a(lib_a-isalnum.o)
 .data          0x02107618        0x0 C:\JL\dv12\lib\libc.a(lib_a-memcmp.o)
 .data          0x02107618        0x0 C:\JL\dv12\lib\libc.a(lib_a-memcpy.o)
 .data          0x02107618        0x0 C:\JL\dv12\lib\libc.a(lib_a-memmove.o)
 .data          0x02107618        0x0 C:\JL\dv12\lib\libc.a(lib_a-memset.o)
 .data          0x02107618        0x0 C:\JL\dv12\lib\libc.a(lib_a-strcat.o)
 .data          0x02107618        0x0 C:\JL\dv12\lib\libc.a(lib_a-strcmp.o)
 .data          0x02107618        0x0 C:\JL\dv12\lib\libc.a(lib_a-strcpy.o)
 .data          0x02107618        0x0 C:\JL\dv12\lib\libc.a(lib_a-strlen.o)
 .data          0x02107618        0x0 C:\JL\dv12\lib\libc.a(lib_a-strncmp.o)
 .data          0x02107618        0x0 C:\JL\dv12\lib\libc.a(lib_a-strncpy.o)
 .data          0x02107618        0x0 C:\JL\dv12\lib\libc.a(lib_a-strnlen.o)
 .data          0x02107618        0x4 C:\JL\dv12\lib\libc.a(lib_a-ctype_.o)
                0x02107618                __ctype_ptr__
 .data          0x0210761c        0x0 C:\JL\dv12\lib\libgcc.a(_umodsi3.o)
 .data          0x0210761c        0x0 C:\JL\dv12\lib\libgcc.a(_modsi3.o)
 .data          0x0210761c        0x0 C:\JL\dv12\lib\libgcc.a(_muldi3.o)
 .data          0x0210761c        0x0 C:\JL\dv12\lib\libgcc.a(_umulsi3_highpart.o)
 .data          0x0210761c        0x0 C:\JL\dv12\lib\libgcc.a(_lshrdi3.o)
 .data          0x0210761c        0x0 C:\JL\dv12\lib\libgcc.a(_divdi3.o)
 .data          0x0210761c        0x0 C:\JL\dv12\lib\libgcc.a(divsf3.o)
 .data          0x0210761c        0x0 C:\JL\dv12\lib\libgcc.a(fixunssfsi.o)
 .data          0x0210761c        0x0 C:\JL\dv12\lib\libgcc.a(floatunsisf.o)
 .data          0x0210761c        0x0 C:\JL\dv12\lib\libgcc.a(_clz.o)
 .data          0x0210761c        0x0 C:\JL\dv12\lib\libgcc.a(_clzsi2.o)
 *(.eh_frame)
 .eh_frame      0x0210761c       0x40 C:\JL\dv12\lib\libgcc.a(_divdi3.o)
 *(.comm)
 .comm          0x0210765c       0x58 ..\..\..\libs\librtos.a(os_core.o)
                0x0210765c                OSIntEnter
                0x02107688                OSIntExit

.sdram_bss      0x021076c0   0x247218
 *(.mem_malloc)
 *(.mem_heap)
 .mem_heap      0x021076c0    0x99060 ..\..\..\libs\lib_malloc.a(mem_heap.o)
                0x021076c0                ram_heap
 *(.bss)
 .bss           0x021a0720        0x8 obj\Debug\\code\FileSelecter\FileSelecter.o
 .bss           0x021a0728        0x8 obj\Debug\\code\FileSelecter\pb_fctrl.o
 .bss           0x021a0730       0x44 obj\Debug\\code\Peripherals\G_Sensor\GMA301.o
 .bss           0x021a0774        0x0 obj\Debug\\code\Peripherals\G_Sensor\da380.o
 .bss           0x021a0774        0x0 obj\Debug\\code\Peripherals\G_Sensor\gravity_sensor_api.o
 .bss           0x021a0774        0x8 obj\Debug\\code\Peripherals\G_Sensor\gravity_sensor_manage.o
 .bss           0x021a077c        0x0 obj\Debug\\code\Peripherals\G_Sensor\i2c.o
 .bss           0x021a077c        0x0 obj\Debug\\code\Peripherals\G_Sensor\parking_guard.o
 .bss           0x021a077c        0x0 obj\Debug\\code\Peripherals\G_Sensor\stk8312.o
 .bss           0x021a077c       0x40 obj\Debug\\code\Peripherals\clock.o
 .bss           0x021a07bc       0x20 obj\Debug\\code\Peripherals\timer.o
 .bss           0x021a07dc       0x10 obj\Debug\\code\Peripherals\uart.o
 .bss           0x021a07ec     0x32b8 obj\Debug\\code\Peripherals\user_isp_cfg.o
 .bss           0x021a3aa4        0x0 obj\Debug\\code\Peripherals\wdt.o
 .bss           0x021a3aa4        0xc obj\Debug\\code\StorDev\dev_ctrl.o
 .bss           0x021a3ab0     0x4014 obj\Debug\\code\common\audio_api.o
 .bss           0x021a7ac4        0x0 obj\Debug\\code\common\common.o
 .bss           0x021a7ac4        0x0 obj\Debug\\code\common\fcvt.o
 .bss           0x021a7ac4        0x0 obj\Debug\\code\common\printf-stdarg.o
 .bss           0x021a7ac4        0x0 obj\Debug\\code\common\vm_api.o
 .bss           0x021a7ac4        0x4 obj\Debug\\code\disp_ctrl\lcd.o
 .bss           0x021a7ac8        0x0 obj\Debug\\code\disp_ctrl\my_ui1.o
 *fill*         0x021a7ac8       0x18 00
 .bss           0x021a7ae0    0xca860 obj\Debug\\code\disp_ctrl\ui_task.o
                0x021a7ae0                usb_out_status
                0x021a7ae1                temp_rec_status
 .bss           0x02272340        0x0 obj\Debug\\code\infoNES\NES_GAME\ddl.o
 .bss           0x02272340        0x0 obj\Debug\\code\infoNES\NES_GAME\fj.o
 .bss           0x02272340        0x0 obj\Debug\\code\infoNES\NES_GAME\gef.o
 .bss           0x02272340        0x4 obj\Debug\\code\infoNES\infoNES_PORT\nes_port.o
 .bss           0x02272344       0x24 obj\Debug\\code\infoNES\infoNES_SRC\src\InfoNES.o
                0x02272344                APU_Mute
 .bss           0x02272368        0x0 obj\Debug\\code\infoNES\infoNES_SRC\src\InfoNES_Mapper.o
 .bss           0x02272368        0x0 obj\Debug\\code\infoNES\infoNES_SRC\src\InfoNES_pAPU.o
 .bss           0x02272368        0x0 obj\Debug\\code\infoNES\infoNES_SRC\src\K6502.o
 .bss           0x02272368      0xa14 obj\Debug\\code\infoNES\infoNES_System\InfoNES_System.o
 .bss           0x02272d7c        0x4 obj\Debug\\code\key\adc_scan.o
 .bss           0x02272d80        0x0 obj\Debug\\code\key\key_drv_ad.o
 .bss           0x02272d80       0x10 obj\Debug\\code\key\key_drv_manager.o
 .bss           0x02272d90        0x4 obj\Debug\\code\key\powercheck.o
 .bss           0x02272d94       0x98 obj\Debug\\code\start\car_fs_api.o
                0x02272d94                last_file_hdl
 .bss           0x02272e2c        0xc obj\Debug\\code\start\dec_mode.o
 .bss           0x02272e38       0x10 obj\Debug\\code\start\enc_mode.o
                0x02272e38                usb_charg_status
 *fill*         0x02272e48       0x18 00
 .bss           0x02272e60       0x40 obj\Debug\\code\start\main.o
                0x02272e60                g_chip_id
                0x02272e64                g_spec_val
                0x02272e68                g_vid0_buf
                0x02272e6c                g_vid1_buf
                0x02272e70                g_aud_buf
                0x02272e74                g_startup_finish
                0x02272e75                g_startup_usbcharge
                0x02272e76                g_special_flag
                0x02272e77                g_ss_flag
                0x02272e78                g_ldet_ptr
                0x02272e7c                g_vanish_y
                0x02272e80                g_carHead
                0x02272e84                g_ldet_status
                0x02272e88                g_ldet_old_status
                0x02272e8c                g_ldet_cnt
                0x02272e90                check_tvout_flag
 .bss           0x02272ea0        0x4 obj\Debug\\code\start\mode_switch.o
                0x02272ea0                imc_isr_stop_flag
 .bss           0x02272ea4       0x18 obj\Debug\\code\start\pwr_onoff.o
 .bss           0x02272ebc        0x0 obj\Debug\\code\start\reg.o
 .bss           0x02272ebc        0x0 obj\Debug\\code\start\startup.o
 .bss           0x02272ebc       0x20 obj\Debug\\code\start\usb_mode.o
                0x02272ebc                g_usb_startup
 .bss           0x02272edc        0x0 obj\Debug\\code\tft_panel\ILI8960.o
 .bss           0x02272edc        0x0 obj\Debug\\code\tft_panel\ILI8961.o
 .bss           0x02272edc        0x0 obj\Debug\\code\tft_panel\ILI9163.o
 .bss           0x02272edc        0x0 obj\Debug\\code\tft_panel\ILI9325.o
 .bss           0x02272edc        0x0 obj\Debug\\code\tft_panel\LCD_RM68116.o
 .bss           0x02272edc        0x0 obj\Debug\\code\tft_panel\LQ026B3UX01.o
 .bss           0x02272edc        0x0 obj\Debug\\code\tft_panel\SSD1963.o
 .bss           0x02272edc        0x0 obj\Debug\\code\tft_panel\ST7735S.o
 .bss           0x02272edc        0x0 obj\Debug\\code\tft_panel\T15P00.o
 .bss           0x02272edc        0x0 obj\Debug\\code\tft_panel\avout.o
 .bss           0x02272edc        0x0 obj\Debug\\code\tft_panel\disp_43inch.o
 .bss           0x02272edc        0x0 obj\Debug\\code\tft_panel\disp_8inch.o
 .bss           0x02272edc        0x0 obj\Debug\\code\tft_panel\disp_JC4301.o
 .bss           0x02272edc        0x0 obj\Debug\\code\tft_panel\pap.o
 .bss           0x02272edc       0x10 obj\Debug\\code\upgrade\upgrade.o
 .bss           0x02272eec        0x0 ..\..\..\libs\lib_vds.a(vds.o)
 .bss           0x02272eec       0x18 ..\..\..\libs\lib_vds.a(jpeg_dec_ctl.o)
 *fill*         0x02272f04       0x1c 00
 .bss           0x02272f20      0x240 ..\..\..\libs\lib_vds.a(jpeg_dec_unpkg.o)
 .bss           0x02273160       0x18 ..\..\..\libs\lib_ves.a(ves.o)
 .bss           0x02273178       0x1c ..\..\..\libs\lib_ves.a(avi_pkg_ctrl.o)
                0x02273178                g_dis_voice
 .bss           0x02273194        0x0 ..\..\..\libs\lib_ves.a(jpeg_enc_ctrl.o)
 .bss           0x02273194       0x10 ..\..\..\libs\lib_ves.a(jpeg_pkg_ctrl.o)
 .bss           0x022731a4        0x0 ..\..\..\libs\lib_jpeg_dec.a(jpeg_dec_if.o)
 .bss           0x022731a4       0x14 ..\..\..\libs\lib_jpeg_dec.a(jpeg_dec_isr.o)
                0x022731a4                timer_fcnt
 .bss           0x022731b8        0x0 ..\..\..\libs\lib_jpeg_dec.a(jpeg_decode.o)
 .bss           0x022731b8        0x0 ..\..\..\libs\lib_jpeg_dec.a(jpeg_dec_head.o)
 .bss           0x022731b8        0x4 ..\..\..\libs\lib_jpeg_enc.a(jpeg_enc_if.o)
 .bss           0x022731bc        0x0 ..\..\..\libs\lib_jpeg_enc.a(jpeg_encode.o)
 .bss           0x022731bc        0x0 ..\..\..\libs\lib_jpeg_enc.a(jpeg_encode_init.o)
 .bss           0x022731bc        0x4 ..\..\..\libs\lib_jpeg_enc.a(jpeg_encode_isr.o)
                0x022731bc                test_jpeg_flag
 .bss           0x022731c0      0x7f4 ..\..\..\libs\lib_jpeg_enc.a(Build_dynamic_huffman.o)
                0x022731c0                pSTD_DC_Y_NRCODES
                0x022731d1                pSTD_DC_UV_NRCODES
                0x022731e2                pSTD_AC_Y_NRCODES
                0x022731f3                pSTD_AC_UV_NRCODES
                0x02273204                g_calc_haffman_info_over
 .bss           0x022739b4        0x0 ..\..\..\libs\lib_jpeg_enc.a(jpeg_abr.o)
 .bss           0x022739b4        0x0 ..\..\..\libs\lib_avi_unpkg.a(avi_unpkg_if.o)
 .bss           0x022739b4        0x4 ..\..\..\libs\lib_avi_unpkg.a(avi_unpkg.o)
 .bss           0x022739b8        0x0 ..\..\..\libs\lib_avi_unpkg.a(avi_unpkg_aud.o)
 .bss           0x022739b8      0x200 ..\..\..\libs\lib_avi_unpkg.a(avi_unpkg_dev.o)
 .bss           0x02273bb8        0x0 ..\..\..\libs\lib_avi_unpkg.a(avi_unpkg_head.o)
 .bss           0x02273bb8        0x0 ..\..\..\libs\lib_avi_unpkg.a(avi_uppkg_vid.o)
 .bss           0x02273bb8        0x0 ..\..\..\libs\lib_avi_pkg.a(avi_pkg_if.o)
 .bss           0x02273bb8        0x4 ..\..\..\libs\lib_avi_pkg.a(avi_pkg_dev.o)
 .bss           0x02273bbc        0x0 ..\..\..\libs\lib_avi_pkg.a(avi_pkg.o)
 .bss           0x02273bbc        0x0 ..\..\..\libs\lib_avi_pkg.a(avi_pkg_head.o)
 .bss           0x02273bbc        0x0 ..\..\..\libs\lib_avi_pkg.a(avi_pkg_idx.o)
 .bss           0x02273bbc       0x34 ..\..\..\libs\lib_malloc.a(mem_heap.o)
 .bss           0x02273bf0       0x28 ..\..\..\libs\libsd1.a(mango_dev_sd1.o)
 .bss           0x02273c18        0x0 ..\..\..\libs\libsd1.a(sd_host_init.o)
 .bss           0x02273c18        0x0 ..\..\..\libs\libsd1.a(sd_host_read_end.o)
 .bss           0x02273c18        0x0 ..\..\..\libs\libsd1.a(sd_host_unmount.o)
 .bss           0x02273c18        0x0 ..\..\..\libs\libsd1.a(sd_host_write_end.o)
 .bss           0x02273c18        0x0 ..\..\..\libs\libsd1.a(sdmmc_init.o)
 .bss           0x02273c18        0x0 ..\..\..\libs\libsd1.a(suspend_sdmmc.o)
 .bss           0x02273c18        0x0 ..\..\..\libs\libsd1.a(sd_host_send_csd.o)
 .bss           0x02273c18        0x0 ..\..\..\libs\libsd1.a(sd_host_stop_trans.o)
 .bss           0x02273c18        0x0 ..\..\..\libs\libsd1.a(sd_host_hw.o)
 .bss           0x02273c18        0x0 ..\..\..\libs\libsd1.a(sd_wait_idle.o)
 .bss           0x02273c18        0x0 ..\..\..\libs\libsd1.a(sdmmc_det.o)
 .bss           0x02273c18        0x0 ..\..\..\libs\libsd1.a(sd_host_reg.o)
 .bss           0x02273c18        0x0 ..\..\..\libs\libsd1.a(sd_send_command.o)
 .bss           0x02273c18        0x0 ..\..\..\libs\libsd1.a(sd_host_status.o)
 .bss           0x02273c18        0x0 ..\..\..\libs\libsd1.a(sd_host_args.o)
 .bss           0x02273c18        0x0 ..\..\..\libs\libsd1.a(sd_host_mount.o)
 .bss           0x02273c18        0x0 ..\..\..\libs\libsd1.a(sd_host_read.o)
 .bss           0x02273c18        0x0 ..\..\..\libs\libsd1.a(sd_host_timeout.o)
 .bss           0x02273c18        0x0 ..\..\..\libs\libsd1.a(sd_host_write.o)
 .bss           0x02273c18        0x0 ..\..\..\libs\libsd1.a(sd_init.o)
 .bss           0x02273c18        0x0 ..\..\..\libs\libsd1.a(sdmmc_host_set_bus_width.o)
 .bss           0x02273c18        0x0 ..\..\..\libs\libsd1.a(sdmmc_host_set_hispeed.o)
 .bss           0x02273c18        0x0 ..\..\..\libs\libsd1.a(mmc_host_send_rca.o)
 .bss           0x02273c18        0x0 ..\..\..\libs\libsd1.a(mmc_host_set_bus_width.o)
 .bss           0x02273c18        0x0 ..\..\..\libs\libsd1.a(mmc_host_set_hispeed.o)
 .bss           0x02273c18        0x0 ..\..\..\libs\libsd1.a(sd_host_all_send_cid.o)
 .bss           0x02273c18        0x0 ..\..\..\libs\libsd1.a(sd_host_reset.o)
 .bss           0x02273c18        0x0 ..\..\..\libs\libsd1.a(sd_host_sd_status.o)
 .bss           0x02273c18        0x0 ..\..\..\libs\libsd1.a(sd_host_send_if_cond.o)
 .bss           0x02273c18        0x0 ..\..\..\libs\libsd1.a(sd_host_send_rca.o)
 .bss           0x02273c18        0x0 ..\..\..\libs\libsd1.a(sd_host_set_bus_width.o)
 .bss           0x02273c18        0x0 ..\..\..\libs\libsd1.a(sd_host_set_hispeed.o)
 .bss           0x02273c18        0x0 ..\..\..\libs\libsd1.a(sd_host_switch_func.o)
 .bss           0x02273c18        0x0 ..\..\..\libs\libsd1.a(sd_select_card.o)
 .bss           0x02273c18        0x0 ..\..\..\libs\libsd1.a(sd_send_scr.o)
 .bss           0x02273c18        0x0 ..\..\..\libs\libsd1.a(sd_chk_ctl.o)
 .bss           0x02273c18        0x0 ..\..\..\libs\libsd1.a(sd_read_start.o)
 .bss           0x02273c18        0x0 ..\..\..\libs\libsd1.a(sd_write_start.o)
 .bss           0x02273c18        0x0 ..\..\..\libs\libsd1.a(sd_host_identification.o)
 .bss           0x02273c18        0x0 ..\..\..\libs\libsd1.a(mmc_host_send_op_cond.o)
 .bss           0x02273c18        0x0 ..\..\..\libs\libsd1.a(sd_host_app_cmd.o)
 .bss           0x02273c18        0x0 ..\..\..\libs\libsd1.a(sd_host_send_op_cond.o)
 .bss           0x02273c18       0x14 ..\..\..\libs\lib_imc_disp.a(dsc.o)
 .bss           0x02273c2c       0x5c ..\..\..\libs\lib_imb.a(imb_module.o)
                0x02273c2c                image_flag
 .bss           0x02273c88        0x0 ..\..\..\libs\lib_imb.a(cve_cfg.o)
 .bss           0x02273c88        0x0 ..\..\..\libs\lib_imb.a(imb_isr.o)
 .bss           0x02273c88        0x0 ..\..\..\libs\lib_imc.a(imc_if.o)
 .bss           0x02273c88        0x0 ..\..\..\libs\lib_imc.a(imc_rep.o)
 .bss           0x02273c88       0x2c ..\..\..\libs\lib_imc.a(imc.o)
 .bss           0x02273cb4        0x4 ..\..\..\libs\lib_imc.a(imc_cut.o)
 .bss           0x02273cb8        0x0 ..\..\..\libs\lib_imc.a(imc_isr.o)
 .bss           0x02273cb8       0x4c ..\..\..\libs\lib_imc.a(lane_dect.o)
 .bss           0x02273d04      0x424 ..\..\..\libs\lib_vm.a(vm.o)
 .bss           0x02274128        0x0 ..\..\..\libs\lib_font.a(font_other_language.o)
 .bss           0x02274128        0x4 ..\..\..\libs\lib_font.a(font_out.o)
 .bss           0x0227412c        0x0 ..\..\..\libs\lib_font.a(font_sjis.o)
 .bss           0x0227412c        0x8 ..\..\..\libs\lib_font.a(font_area_ctl.o)
 .bss           0x02274134        0x0 ..\..\..\libs\lib_font.a(font_ascii.o)
 .bss           0x02274134        0x0 ..\..\..\libs\lib_font.a(font_big5.o)
 .bss           0x02274134        0x0 ..\..\..\libs\lib_font.a(font_gbk.o)
 .bss           0x02274134        0x0 ..\..\..\libs\lib_font.a(font_ksc.o)
 .bss           0x02274134       0x24 ..\..\..\libs\lib_uicon.a(dc_showres.o)
 .bss           0x02274158        0x0 ..\..\..\libs\lib_uicon.a(ui_get_info.o)
 .bss           0x02274158        0x0 ..\..\..\libs\lib_uicon.a(ui_init.o)
 .bss           0x02274158        0x0 ..\..\..\libs\lib_uicon.a(ui_layer.o)
 .bss           0x02274158        0x4 ..\..\..\libs\lib_uicon.a(ui_menu.o)
                0x02274158                menu_busy
                0x02274159                menu_status
 .bss           0x0227415c       0x38 ..\..\..\libs\lib_uicon.a(ui_menub.o)
 .bss           0x02274194        0x0 ..\..\..\libs\lib_uicon.a(ui_number.o)
 .bss           0x02274194        0x0 ..\..\..\libs\lib_uicon.a(ui_pic.o)
 .bss           0x02274194        0x0 ..\..\..\libs\lib_uicon.a(ui_sdfs.o)
 .bss           0x02274194       0x1c ..\..\..\libs\lib_uicon.a(ui_text.o)
 .bss           0x022741b0        0x0 ..\..\..\libs\lib_uicon.a(ui_time.o)
 .bss           0x022741b0        0x0 ..\..\..\libs\lib_uicon.a(ui_time1.o)
 .bss           0x022741b0       0x2c ..\..\..\libs\lib_drv_lib.a(drv_manage.o)
 .bss           0x022741dc        0x0 ..\..\..\libs\lib_dsc_ram.a(dsc_ram.o)
 .bss           0x022741dc       0x98 ..\..\..\libs\lib_vedio_ram.a(yuv_ram.o)
                0x022741dc                global_pending
 .bss           0x02274274        0x8 ..\..\..\libs\lib_sdfile.a(sdfile.o)
 .bss           0x0227427c        0x0 ..\..\..\libs\lib_vfs.a(vfs.o)
 .bss           0x0227427c        0x0 ..\..\..\libs\lib_vfs.a(vfs_init.o)
 .bss           0x0227427c        0x8 ..\..\..\libs\lib_vfs.a(GenfsInc.o)
                0x0227427c                g_FatFs
 .bss           0x02274284       0x28 ..\..\..\libs\lib_vfs.a(ff.o)
 .bss           0x022742ac        0x0 ..\..\..\libs\lib_vfs.a(dev_Mount.o)
 .bss           0x022742ac        0x0 ..\..\..\libs\lib_vfs.a(dev_cache_alloc.o)
 .bss           0x022742ac        0x0 ..\..\..\libs\lib_vfs.a(dev_cache_flush.o)
 .bss           0x022742ac        0x4 ..\..\..\libs\lib_vfs.a(dev_cache_read_only.o)
 .bss           0x022742b0        0x0 ..\..\..\libs\lib_vfs.a(dev_cache_write_dev.o)
 .bss           0x022742b0        0x0 ..\..\..\libs\lib_vfs.a(fs_api.o)
 .bss           0x022742b0        0x0 ..\..\..\libs\lib_vfs.a(dev_Cache.o)
 .bss           0x022742b0        0x0 ..\..\..\libs\libhwi.a(cache.o)
 .bss           0x022742b0        0x8 ..\..\..\libs\libhwi.a(HWI.o)
                0x022742b0                hwi_installed
 .bss           0x022742b8        0x0 ..\..\..\libs\libspi0flash.a(mango_dev_spi0flash.o)
 .bss           0x022742b8        0x0 ..\..\..\libs\libspi0flash.a(spi0flash.o)
 .bss           0x022742b8       0x18 ..\..\..\libs\libspi0.a(spi0.o)
 .bss           0x022742d0       0x48 ..\..\..\libs\lib_wfile_serve.a(wfile_serve.o)
 *fill*         0x02274318        0x8 00
 .bss           0x02274320      0x220 ..\..\..\libs\lib_audio.a(ladc.o)
 .bss           0x02274540        0x0 ..\..\..\libs\lib_audio.a(audio.o)
 .bss           0x02274540      0x120 ..\..\..\libs\lib_audio.a(dac.o)
 .bss           0x02274660        0xc ..\..\..\libs\lib_usb_slave.a(usb_slave_main.o)
 .bss           0x0227466c       0x18 ..\..\..\libs\lib_usb_slave.a(msd2video_ctrl.o)
                0x0227466c                ISP_READ_CMD
                0x02274670                ISP_SET_CMD
 .bss           0x02274684        0x8 ..\..\..\libs\lib_usb_slave.a(msd_dev_update.o)
                0x02274684                hdev_update
 .bss           0x0227468c       0x58 ..\..\..\libs\lib_usb_slave.a(msd_main.o)
                0x0227468c                usb_cbw
                0x022746ab                usb_csw
                0x022746b8                USB_bulk_info
                0x022746c0                usb_cbw_ack
                0x022746e0                hook_usb_scsi
 .bss           0x022746e4       0xa0 ..\..\..\libs\lib_usb_slave.a(video_main.o)
                0x022746e4                g_still_image_flag
                0x022746e8                g_uvc_frame_info
                0x022746ec                g_uvc_still_image_info
                0x022746ed                g_video_status
 .bss           0x02274784       0x10 ..\..\..\libs\lib_usb_slave.a(audio_main.o)
                0x02274784                usb_audio_arg
 .bss           0x02274794        0x4 ..\..\..\libs\lib_usb_slave.a(core_descriptor.o)
                0x02274794                pslv_str_desc
 .bss           0x02274798        0x0 ..\..\..\libs\lib_usb_slave.a(usb_phy.o)
 .bss           0x02274798       0x70 ..\..\..\libs\lib_usb_slave.a(usb_setup.o)
                0x02274798                USB_Slave_ctl
                0x022747ac                usb_class_info
                0x022747c8                usb_setup_ctl
 .bss           0x02274808        0x0 ..\..\..\libs\lib_usb_slave.a(msd_descriptor.o)
 .bss           0x02274808        0x0 ..\..\..\libs\lib_usb_slave.a(video_descriptor.o)
 .bss           0x02274808        0x0 ..\..\..\libs\lib_usb_slave.a(audio_descriptor.o)
 .bss           0x02274808       0x14 ..\..\..\libs\lib_usb_phy.a(usb_hal.o)
 .bss           0x0227481c        0x0 ..\..\..\libs\lib_isp.a(gamma.o)
 .bss           0x0227481c        0xc ..\..\..\libs\lib_isp.a(isp0_dev.o)
                0x0227481c                p_isp0_sen_con
                0x02274820                p_isp0_sen_con_old
                0x02274824                isp0usedindex
 .bss           0x02274828       0x38 ..\..\..\libs\lib_isp.a(isp_com.o)
                0x02274828                g_isp_cnt
 .bss           0x02274860       0x18 ..\..\..\libs\lib_isp.a(isp_customize.o)
 .bss           0x02274878       0x44 ..\..\..\libs\lib_isp.a(isp_tuning.o)
                0x02274878                p_current_gamma
 .bss           0x022748bc     0x1120 ..\..\..\libs\lib_isp.a(isp_tuning_drc.o)
 .bss           0x022759dc        0x0 ..\..\..\libs\lib_isp.a(lsc_coeff.o)
 .bss           0x022759dc        0x0 ..\..\..\libs\lib_isp.a(median_filter.o)
 .bss           0x022759dc        0x0 ..\..\..\libs\lib_isp.a(isp_if.o)
 .bss           0x022759dc        0x0 ..\..\..\libs\lib_isp.a(average_filter.o)
 .bss           0x022759dc        0x0 ..\..\..\libs\lib_isp.a(fixed_math.o)
 .bss           0x022759dc        0x0 ..\..\..\libs\lib_isp.a(isp1_dev.o)
 .bss           0x022759dc        0x0 ..\..\..\libs\lib_cbuf.a(circular_buf.o)
 .bss           0x022759dc      0x428 ..\..\..\libs\lib_lane.a(lane_detect.o)
 .bss           0x02275e04        0x0 ..\..\..\libs\lib_lane.a(canny.o)
 .bss           0x02275e04        0x0 ..\..\..\libs\lib_lane.a(canny_edge.o)
 .bss           0x02275e04        0x0 ..\..\..\libs\lib_lane.a(hough.o)
 .bss           0x02275e04        0x0 ..\..\..\libs\lib_lane.a(LUT1024.o)
 .bss           0x02275e04        0x0 ..\..\..\libs\librtos.a(os_core.o)
 .bss           0x02275e04        0x0 ..\..\..\libs\librtos.a(os_mutex.o)
 .bss           0x02275e04        0x0 ..\..\..\libs\librtos.a(os_sem.o)
 .bss           0x02275e04        0x0 ..\..\..\libs\librtos.a(os_task.o)
 .bss           0x02275e04        0x0 ..\..\..\libs\librtos.a(os_time.o)
 .bss           0x02275e04        0x4 ..\..\..\libs\librtos.a(os_api.o)
 .bss           0x02275e08        0x0 ..\..\..\libs\librtos.a(os_cpu.o)
 .bss           0x02275e08        0x0 ..\..\..\libs\librtos.a(os_cpu_c.o)
 .bss           0x02275e08        0x0 ..\..\..\libs\lib_irtc.a(irtc.o)
 .bss           0x02275e08        0x4 ..\..\..\libs\lib_fbuf.a(frame_buf.o)
 .bss           0x02275e0c        0x0 ..\..\..\libs\lib_sensor.a(iic.o)
 .bss           0x02275e0c        0x4 ..\..\..\libs\lib_sensor.a(isp_sensor_manage.o)
 .bss           0x02275e10        0x4 ..\..\..\libs\lib_sensor.a(GC0308.o)
 .bss           0x02275e14       0x30 ..\..\..\libs\lib_sensor.a(GC1004.o)
 .bss           0x02275e44        0x0 ..\..\..\libs\lib_sensor.a(GC1004_tbl.o)
 .bss           0x02275e44       0x28 ..\..\..\libs\lib_sensor.a(H42.o)
 .bss           0x02275e6c        0x4 ..\..\..\libs\lib_sensor.a(NT99140.o)
 .bss           0x02275e70       0x14 ..\..\..\libs\lib_sensor.a(NT99143.o)
 .bss           0x02275e84        0x0 ..\..\..\libs\lib_sensor.a(NT99143_tbl.o)
 .bss           0x02275e84        0x4 ..\..\..\libs\lib_sensor.a(OV9710.o)
 .bss           0x02275e88       0x14 ..\..\..\libs\lib_sensor.a(SC1045.o)
 .bss           0x02275e9c        0x0 ..\..\..\libs\lib_sensor.a(SC1045_tbl.o)
 .bss           0x02275e9c        0x0 ..\..\..\libs\lib_sensor.a(gm7150.o)
 .bss           0x02275e9c       0x14 ..\..\..\libs\lib_sensor.a(ps4100.o)
 .bss           0x02275eb0        0x0 ..\..\..\libs\lib_sensor.a(ps4100_tbl.o)
 .bss           0x02275eb0       0x24 ..\..\..\libs\lib_common.a(time.o)
 .bss           0x02275ed4        0x0 ..\..\..\libs\lib_common.a(Vsnprintf.o)
 .bss           0x02275ed4        0x0 C:\JL\dv12\lib\libc.a(lib_a-isalnum.o)
 .bss           0x02275ed4        0x0 C:\JL\dv12\lib\libc.a(lib_a-memcmp.o)
 .bss           0x02275ed4        0x0 C:\JL\dv12\lib\libc.a(lib_a-memcpy.o)
 .bss           0x02275ed4        0x0 C:\JL\dv12\lib\libc.a(lib_a-memmove.o)
 .bss           0x02275ed4        0x0 C:\JL\dv12\lib\libc.a(lib_a-memset.o)
 .bss           0x02275ed4        0x0 C:\JL\dv12\lib\libc.a(lib_a-strcat.o)
 .bss           0x02275ed4        0x0 C:\JL\dv12\lib\libc.a(lib_a-strcmp.o)
 .bss           0x02275ed4        0x0 C:\JL\dv12\lib\libc.a(lib_a-strcpy.o)
 .bss           0x02275ed4        0x0 C:\JL\dv12\lib\libc.a(lib_a-strlen.o)
 .bss           0x02275ed4        0x0 C:\JL\dv12\lib\libc.a(lib_a-strncmp.o)
 .bss           0x02275ed4        0x0 C:\JL\dv12\lib\libc.a(lib_a-strncpy.o)
 .bss           0x02275ed4        0x0 C:\JL\dv12\lib\libc.a(lib_a-strnlen.o)
 .bss           0x02275ed4        0x0 C:\JL\dv12\lib\libc.a(lib_a-ctype_.o)
 .bss           0x02275ed4        0x0 C:\JL\dv12\lib\libgcc.a(_umodsi3.o)
 .bss           0x02275ed4        0x0 C:\JL\dv12\lib\libgcc.a(_modsi3.o)
 .bss           0x02275ed4        0x0 C:\JL\dv12\lib\libgcc.a(_muldi3.o)
 .bss           0x02275ed4        0x0 C:\JL\dv12\lib\libgcc.a(_umulsi3_highpart.o)
 .bss           0x02275ed4        0x0 C:\JL\dv12\lib\libgcc.a(_lshrdi3.o)
 .bss           0x02275ed4        0x0 C:\JL\dv12\lib\libgcc.a(_divdi3.o)
 .bss           0x02275ed4        0x0 C:\JL\dv12\lib\libgcc.a(divsf3.o)
 .bss           0x02275ed4        0x0 C:\JL\dv12\lib\libgcc.a(fixunssfsi.o)
 .bss           0x02275ed4        0x0 C:\JL\dv12\lib\libgcc.a(floatunsisf.o)
 .bss           0x02275ed4        0x0 C:\JL\dv12\lib\libgcc.a(_clz.o)
 .bss           0x02275ed4        0x0 C:\JL\dv12\lib\libgcc.a(_clzsi2.o)
 *(COMMON)
 COMMON         0x02275ed4      0x4c4 obj\Debug\\code\FileSelecter\FileSelecter.o
                0x02275ed4                current_index
                0x02275ed8                pro_file_format
                0x02275ee8                name_fix_len
                0x02275eec                Delfile_Semp
                0x02275ef0                rtc_time
                0x02275ef8                current_path
                0x022760f8                currentDrv
                0x022760fc                index_begin
                0x02276100                pro_file_format1
                0x02276110                g_need_format
                0x02276114                file_no_num
                0x02276118                callback_drv_onoff
                0x0227611c                vfs_fs_adapter
                0x02276124                current_video_dir
                0x02276134                index_end
                0x02276138                cur_video_name
                0x022761b8                rec_file_format1
                0x022761c5                today_path
                0x022761ce                video_path
                0x0227624b                pic_file_format
                0x02276258                devHandle
                0x0227625c                first_video_dir_index
                0x02276260                current_index1
                0x02276264                vfs_driver_info
                0x022762c8                now_video_dir_index
                0x022762cc                vfs_file_handle
                0x022762d0                root_dir1
                0x022762dd                rec_file_format
                0x022762ec                vfs_device_info
                0x02276384                root_dir
                0x02276394                bdisk_ready
 COMMON         0x02276398       0x30 obj\Debug\\code\FileSelecter\pb_fctrl.o
                0x02276398                video_index_begin
                0x0227639c                pb_fctrl
                0x022763c4                video_index_end
 COMMON         0x022763c8       0x1c obj\Debug\\code\Peripherals\G_Sensor\da380.o
                0x022763c8                da380_iic_fun
 COMMON         0x022763e4       0x28 obj\Debug\\code\Peripherals\G_Sensor\gravity_sensor_manage.o
                0x022763e4                gravity_sen_dev_cur
                0x022763e8                gravity_dev_con
 COMMON         0x0227640c       0x1c obj\Debug\\code\Peripherals\G_Sensor\stk8312.o
                0x0227640c                stk8312_iic_fun
 COMMON         0x02276428       0x7c obj\Debug\\code\common\audio_api.o
                0x02276428                g_dac_ctrl
 COMMON         0x022764a4        0x4 obj\Debug\\code\common\common.o
                0x022764a4                delay_cnt
 COMMON         0x022764a8        0x2 obj\Debug\\code\disp_ctrl\lcd.o
                0x022764a8                LCD_MODE
 *fill*         0x022764aa        0x2 00
 COMMON         0x022764ac       0x24 obj\Debug\\code\disp_ctrl\my_ui1.o
                0x022764ac                user_define
                0x022764b4                sys_info
 COMMON         0x022764d0       0x11 obj\Debug\\code\disp_ctrl\ui_task.o
                0x022764d0                image0
                0x022764d4                system_time
                0x022764dc                image1
                0x022764e0                not_open_dsc_flag
 *fill*         0x022764e1        0x3 00
 COMMON         0x022764e4    0x4c359 obj\Debug\\code\infoNES\infoNES_SRC\src\InfoNES.o
                0x022764e4                PalTable
                0x02276524                ROM
                0x02276528                PAD2_Bit
                0x0227652c                MapperSram
                0x02276530                PPURAM
                0x0227a530                RAM
                0x0227c530                PPU_Scr_H_Bit_Next
                0x0227c534                PPU_BG_Base
                0x0227c538                ROMBANK0
                0x0227c53c                PPU_R0
                0x0227c53d                ROM_FourScr
                0x0227c53e                SRAM
                0x0227e540                VROM
                0x0227e544                MapperNo
                0x0227e546                WorkFrame
                0x022ba546                PPU_Scr_H
                0x022ba547                FrameIRQ_Enable
                0x022ba548                PPU_Scr_H_Byte
                0x022ba54c                MapperPPU
                0x022ba550                MapperHSync
                0x022ba554                PPU_SP_Base
                0x022ba558                PPU_Scr_V_Bit_Next
                0x022ba559                ROM_Trainer
                0x022ba55a                APU_Reg
                0x022ba572                PPU_Scr_H_Byte_Next
                0x022ba573                PPU_Scr_H_Bit
                0x022ba574                MapperInit
                0x022ba578                PAD1_Latch
                0x022ba57c                ROMBANK1
                0x022ba580                PPUBANK
                0x022ba5c0                PPU_Temp
                0x022ba5c2                PPU_R3
                0x022ba5c4                PPU_SP_Height
                0x022ba5c8                PAD1_Bit
                0x022ba5cc                MapperWrite
                0x022ba5d0                PPU_R7
                0x022ba5d1                PPU_Scr_H_Next
                0x022ba5d4                SRAMBANK
                0x022ba5d8                ChrBufUpdate
                0x022ba5d9                NesHeader
                0x022ba5e9                byVramWriteEnable
                0x022ba5ea                PPU_Scr_V_Next
                0x022ba5ec                MapperApu
                0x022ba5f0                SPRRAM
                0x022ba6f0                PPU_Latch_Flag
                0x022ba6f4                PAD_System
                0x022ba6f8                PPU_NameTableBank
                0x022ba6f9                ROM_Mirroring
                0x022ba6fa                ChrBuf
                0x022c26fc                ROMBANK2
                0x022c2700                PPU_R2
                0x022c2702                FrameSkip
                0x022c2704                PPU_Scr_V
                0x022c2705                PPU_Scr_V_Byte_Next
                0x022c2708                MapperReadApu
                0x022c270c                MapperRenderScreen
                0x022c2710                FrameCnt
                0x022c2712                ROM_SRAM
                0x022c2713                PPU_UpDown_Clip
                0x022c2714                FrameStep
                0x022c2716                PPU_ScanTable
                0x022c2820                ROMBANK3
                0x022c2824                PPU_Scanline
                0x022c2828                MapperVSync
                0x022c282c                PPU_R1
                0x022c282e                PPU_Increment
                0x022c2830                PPU_Scr_V_Byte
                0x022c2832                PPU_Addr
                0x022c2834                SpriteJustHit
                0x022c2838                PAD2_Latch
                0x022c283c                PPU_Scr_V_Bit
 *fill*         0x022c283d        0x3 00
 COMMON         0x022c2840     0x287d obj\Debug\\code\infoNES\infoNES_SRC\src\InfoNES_Mapper.o
                0x022c2840                Map67_IRQ_Cnt
                0x022c2841                Map100_Chr7
                0x022c2844                Map95_Chr4
                0x022c2848                Map119_Chr23
                0x022c284c                Map114_Prg0
                0x022c2850                Map248_WeSram
                0x022c2851                Map90_Prg_Reg
                0x022c2858                Map1_HI1
                0x022c285c                Map187_IRQ_Enable
                0x022c285d                Map191_Prg0
                0x022c2860                Map118_Prg0
                0x022c2864                Map23_IRQ_Cnt
                0x022c2865                Map99_Coin
                0x022c2866                Map109_Chrmode1
                0x022c2867                Map112_IRQ_Cnt
                0x022c2868                Map119_Reg
                0x022c2870                Map32_Saved
                0x022c2871                Map116_ExPrgSwitch
                0x022c2872                Map18_Regs
                0x022c287d                Map4_IRQ_Request
                0x022c287e                Map115_Reg
                0x022c2886                Map110_Reg0
                0x022c2887                latch3
                0x022c288a                Map183_IRQ_Enable
                0x022c288b                Map69_Regs
                0x022c288c                Map117_IRQ_Line
                0x022c2890                Map4_Prg0
                0x022c2894                Map100_IRQ_Enable
                0x022c2895                Map115_Chr2
                0x022c2896                Map42_IRQ_Cnt
                0x022c2897                Map115_Chr6
                0x022c2898                Map44_Chr4
                0x022c289c                Map135_Chr0h
                0x022c289d                Map116_Prg0
                0x022c289e                Map90_IRQ_Enable
                0x022c28a0                Map90_Value2
                0x022c28a4                Map44_Rom_Bank
                0x022c28a8                Map115_ExPrgSwitch
                0x022c28a9                Map67_IRQ_Latch
                0x022c28aa                Map64_Chr
                0x022c28ab                Map135_Chr0l
                0x022c28ac                Map17_IRQ_Enable
                0x022c28b0                Map16_IRQ_Cnt
                0x022c28b4                Map48_IRQ_Enable
                0x022c28b5                Map116_IRQ_Counter
                0x022c28b6                Map47_IRQ_Cnt
                0x022c28b7                Map114_Regs
                0x022c28c0                Map74_Chr01
                0x022c28c4                Map187_IRQ_Latch
                0x022c28c5                Map115_Prg1
                0x022c28c6                Map115_IRQ_Latch
                0x022c28c7                Map245_Chr5
                0x022c28c8                Map25_IRQ_Count
                0x022c28c9                Map109_Chr3
                0x022c28cc                Map112_Chr01
                0x022c28d0                Map187_Prg
                0x022c28d4                Map49_Chr7
                0x022c28d8                Map1_Last_Write_Addr
                0x022c28da                Map183_Reg
                0x022c28e2                Map21_IRQ_Cnt
                0x022c28e3                Map100_Prg3
                0x022c28e4                Map245_IRQ_Latch
                0x022c28e8                Map47_Chr5
                0x022c28ec                Map249_Spdata
                0x022c28ed                Map49_IRQ_Cnt
                0x022c28ee                Map73_IRQ_Enable
                0x022c28f0                Map1_Cnt
                0x022c28f4                Map114_IRQ_Cnt
                0x022c28f5                Map116_Reg
                0x022c28fd                Map252_IRQ_Counter
                0x022c2900                Map74_Chr4
                0x022c2904                Map64_Cmd
                0x022c2905                Map46_Regs
                0x022c2909                Map64_Prg
                0x022c290a                Map249_IRQ_Latch
                0x022c290b                Map117_IRQ_Enable2
                0x022c290c                Map187_ExtEnable
                0x022c290d                Map230_RomSw
                0x022c290e                Map74_IRQ_Present_Vbl
                0x022c290f                Map26_IRQ_Cnt
                0x022c2910                Map88_Regs
                0x022c2911                Map65_IRQ_Enable
                0x022c2912                Map74_IRQ_Latch
                0x022c2913                Map248_Prg1
                0x022c2914                Map1_HI2
                0x022c2918                Map112_Chr6
                0x022c291c                Map1_bank4
                0x022c2920                Map100_Chr2
                0x022c2921                Map115_ExChrSwitch
                0x022c2922                Map119_WeSram
                0x022c2924                Map95_Chr5
                0x022c2928                Map118_Chr2
                0x022c292c                Map248_Chr7
                0x022c292d                DRAM
                0x022c292e                Map105_Reg
                0x022c2932                Map100_Chr6
                0x022c2934                Map4_Chr5
                0x022c2938                Map116_Chr3
                0x022c2939                Map90_Mirror_Type
                0x022c293a                Map191_Chr2
                0x022c293c                Map4_Chr01
                0x022c2940                Map232_Regs
                0x022c2944                Map118_Chr6
                0x022c2948                Map191_Highbank
                0x022c294c                Map73_IRQ_Cnt
                0x022c2950                Map51_Bank
                0x022c2954                Map116_Chr7
                0x022c2955                Map25_IRQ_Latch
                0x022c2956                Map119_Chr7
                0x022c2958                Map18_IRQ_Cnt
                0x022c295a                Map48_Regs
                0x022c295b                Map83_Regs
                0x022c295e                Map134_Prg
                0x022c295f                Map16_Regs
                0x022c2962                Map18_IRQ_Enable
                0x022c2964                Map114_Chr4
                0x022c2968                Map95_Regs
                0x022c2969                Map116_IRQ_Latch
                0x022c296a                Map90_Prg_Bank_6000
                0x022c296b                Map134_Chr
                0x022c296c                Map65_IRQ_Latch
                0x022c2970                Map109_Chrmode0
                0x022c2971                Map114_IRQ_Latch
                0x022c2972                Map187_ExtMode
                0x022c2973                Map252_IRQ_Occur
                0x022c2974                Map40_Line_To_IRQ
                0x022c2978                Map134_Cmd
                0x022c297c                Map47_Chr4
                0x022c2980                Map100_IRQ_Latch
                0x022c2981                latch4
                0x022c2984                Map1_Latch
                0x022c2988                Map49_Chr23
                0x022c298c                Map187_IRQ_Counter
                0x022c298d                Map248_IRQ_Request
                0x022c298e                Map189_IRQ_Enable
                0x022c298f                Map110_Reg1
                0x022c2990                Map83_Chr_Bank
                0x022c2994                Map18_IRQ_Latch
                0x022c2996                Map249_IRQ_Counter
                0x022c2998                Map95_Prg0
                0x022c299c                Map95_Chr23
                0x022c29a0                Map248_IRQ_Latch
                0x022c29a1                Map50_IRQ_Enable
                0x022c29a2                Map115_Chr1
                0x022c29a3                Map182_IRQ_Enable
                0x022c29a4                Map51_Mode
                0x022c29a8                Map65_IRQ_Cnt
                0x022c29ac                Map44_IRQ_Enable
                0x022c29ad                Map115_Chr5
                0x022c29ae                Map252_IRQ_Enable
                0x022c29af                Map83_IRQ_Enabled
                0x022c29b0                Map116_Prg3
                0x022c29b4                Map187_Chr
                0x022c29d4                Map49_Prg1
                0x022c29d8                Map245_Chr6
                0x022c29d9                Map115_Prg0
                0x022c29da                Map245_IRQ_Request
                0x022c29db                Map90_Prg_Bank_E000
                0x022c29dc                Map4_Chr23
                0x022c29e0                Map109_Chr2
                0x022c29e4                Map49_Chr6
                0x022c29e8                Map49_Chr01
                0x022c29ec                Map44_Chr7
                0x022c29f0                Map100_Prg2
                0x022c29f1                Map4_IRQ_Cnt
                0x022c29f2                Map248_IRQ_Counter
                0x022c29f3                Map105_IRQ_Enable
                0x022c29f4                Map26_IRQ_Enable
                0x022c29f8                Map95_Chr01
                0x022c29fc                Map115_IRQ_Enable
                0x022c2a00                Map74_Chr5
                0x022c2a04                Map1_Size
                0x022c2a08                Map119_IRQ_Latch
                0x022c2a09                Map42_IRQ_Enable
                0x022c2a0c                Map1_bank1
                0x022c2a10                Map25_VBank
                0x022c2a20                Map160_IRQ_Cnt
                0x022c2a21                Map112_IRQ_Latch
                0x022c2a22                Map23_IRQ_Enable
                0x022c2a23                Map100_Reg
                0x022c2a2c                Map105_IRQ_Counter
                0x022c2a30                Map21_Regs
                0x022c2a3a                Map117_IRQ_Enable1
                0x022c2a3b                Map245_IRQ_Enable
                0x022c2a3c                Map115_Prg1L
                0x022c2a3d                Map251_Breg
                0x022c2a44                Map4_Rom_Bank
                0x022c2a48                Map112_Chr5
                0x022c2a4c                Map248_Prg0
                0x022c2a4d                Map135_Chrch
                0x022c2a4e                Map245_Prg1
                0x022c2a4f                Map74_IRQ_Cnt
                0x022c2a50                Map188_Dummy
                0x022c4a50                Map248_Chr6
                0x022c4a51                Map100_Chr1
                0x022c4a52                Map49_Regs
                0x022c4a55                Map4_IRQ_Latch
                0x022c4a56                Map100_Chr5
                0x022c4a57                Map116_Chr2
                0x022c4a58                Map118_Chr3
                0x022c4a5c                Map4_Regs
                0x022c4a64                Map248_Chr23
                0x022c4a65                Map119_Chr6
                0x022c4a66                Map191_Chr1
                0x022c4a67                Map160_Refresh_Type
                0x022c4a68                Map112_Chr23
                0x022c4a6c                Map245_Chr01
                0x022c4a70                Map74_Prg0
                0x022c4a74                Map4_Chr4
                0x022c4a78                Map118_Chr7
                0x022c4a7c                Map116_Chr6
                0x022c4a80                Map114_Chr5
                0x022c4a84                Map234_Reg
                0x022c4a88                Map112_Prg1
                0x022c4a8c                Map90_Prg_Bank_Size
                0x022c4a8d                Map119_IRQ_Counter
                0x022c4a8e                Map115_Prg0L
                0x022c4a8f                Map24_IRQ_State
                0x022c4a90                Map187_ChrMode
                0x022c4a91                Map248_Reg
                0x022c4a99                Map119_Prg1
                0x022c4a9a                Map41_Regs
                0x022c4a9c                Map1_256K_base
                0x022c4aa0                Map118_IRQ_Cnt
                0x022c4aa1                Map243_Regs
                0x022c4aa5                Map116_Prg0L
                0x022c4aa8                Map95_Chr6
                0x022c4aac                Map57_Reg
                0x022c4aad                Map43_IRQ_Enable
                0x022c4aae                Map119_IRQ_Enable
                0x022c4ab0                Map49_Chr5
                0x022c4ab4                latch1
                0x022c4ab7                Map187_IRQ_Occur
                0x022c4ab8                Map43_IRQ_Cnt
                0x022c4abc                Map67_IRQ_Enable
                0x022c4abd                Map105_Write_Count
                0x022c4abe                Map115_Chr0
                0x022c4abf                Map118_IRQ_Latch
                0x022c4ac0                Map33_Regs
                0x022c4ac8                Map95_Prg1
                0x022c4acc                Map245_WeSram
                0x022c4acd                Map189_IRQ_Latch
                0x022c4ace                Map115_Chr4
                0x022c4acf                Map1_Regs
                0x022c4ad4                Map44_Prg1
                0x022c4ad8                Map160_IRQ_Enable
                0x022c4ad9                Map90_Mirror_Mode
                0x022c4ada                Map249_Reg
                0x022c4ae4                Map49_Prg0
                0x022c4ae8                Map112_IRQ_Enable
                0x022c4ae9                Map112_Regs
                0x022c4af1                Map116_Prg2
                0x022c4af2                Map245_Chr23
                0x022c4af3                Map74_IRQ_Request
                0x022c4af4                Map249_IRQ_Request
                0x022c4af5                Map33_IRQ_Enable
                0x022c4af6                Map245_IRQ_Counter
                0x022c4af8                Map1_swap
                0x022c4afc                Map109_Chr1
                0x022c4afd                Map118_Regs
                0x022c4b08                Map47_Chr7
                0x022c4b0c                Map74_IRQ_Present
                0x022c4b0d                Map115_Prg3
                0x022c4b0e                Map100_Prg1
                0x022c4b0f                Map135_Chr1h
                0x022c4b10                Map47_IRQ_Enable
                0x022c4b11                Map135_Chr1l
                0x022c4b14                Map44_Chr6
                0x022c4b18                Map33_IRQ_Cnt
                0x022c4b19                Map245_Chr7
                0x022c4b1a                Map90_IRQ_Latch
                0x022c4b1c                Map74_Chr6
                0x022c4b20                Map47_Prg0
                0x022c4b24                Map47_Regs
                0x022c4b2c                Map82_Regs
                0x022c4b30                Map17_IRQ_Latch
                0x022c4b34                Map116_IRQ_Enable
                0x022c4b35                Map75_Regs
                0x022c4b37                Map33_Switch
                0x022c4b38                Map47_Chr01
                0x022c4b3c                Map49_IRQ_Enable
                0x022c4b3d                Map16_IRQ_Enable
                0x022c4b3e                Map24_IRQ_Latch
                0x022c4b40                Map1_bank2
                0x022c4b44                Map187_Bank
                0x022c4b4c                Map252_IRQ_Latch
                0x022c4b50                Map74_Rom_Bank
                0x022c4b54                Map185_Dummy_Chr_Rom
                0x022c4f54                Map248_IRQ_Enable
                0x022c4f55                Map248_Chr5
                0x022c4f56                Map90_Chr_High_Reg
                0x022c4f5e                Map4_IRQ_Present
                0x022c4f5f                Map191_Chr0
                0x022c4f60                Map112_Chr4
                0x022c4f64                Map105_Init_State
                0x022c4f68                Map17_IRQ_Cnt
                0x022c4f6c                Map189_IRQ_Cnt
                0x022c4f6d                Map182_Regs
                0x022c4f6e                Map21_IRQ_Enable
                0x022c4f6f                Map245_Prg0
                0x022c4f70                Map100_Chr0
                0x022c4f71                Map24_IRQ_Count
                0x022c4f72                Map100_Chr4
                0x022c4f74                Map118_Chr0
                0x022c4f78                Map116_Chr1
                0x022c4f79                Map119_Chr5
                0x022c4f7a                Map105_Bits
                0x022c4f7c                Map118_Chr4
                0x022c4f80                Map74_IRQ_Enable
                0x022c4f81                Map49_IRQ_Latch
                0x022c4f84                Map74_Prg1
                0x022c4f88                Map4_Chr7
                0x022c4f8c                Map23_Regs
                0x022c4f98                Map44_Chr23
                0x022c4f9c                Map4_IRQ_Present_Vbl
                0x022c4f9d                Map116_Chr5
                0x022c4f9e                Map191_Prg1
                0x022c4fa0                Map118_Prg1
                0x022c4fa4                Map114_Prg1
                0x022c4fa8                Map112_Prg0
                0x022c4fac                Map114_Chr6
                0x022c4fb0                Map116_ExChrSwitch
                0x022c4fb1                Map90_Nam_Low_Reg
                0x022c4fb5                Map189_Regs
                0x022c4fb6                Map119_Prg0
                0x022c4fb7                Map44_IRQ_Latch
                0x022c4fb8                Map68_Regs
                0x022c4fbc                Map252_IRQ_Clock
                0x022c4fc0                Map115_IRQ_Counter
                0x022c4fc4                Map83_IRQ_Cnt
                0x022c4fc8                Map48_IRQ_Cnt
                0x022c4fcc                Map95_Chr7
                0x022c4fd0                Map23_IRQ_Latch
                0x022c4fd1                Map118_IRQ_Enable
                0x022c4fd2                latch2
                0x022c4fd8                Map44_Chr01
                0x022c4fdc                Map69_IRQ_Cnt
                0x022c4fe0                Map16_IRQ_Latch
                0x022c4fe4                Map245_Reg
                0x022c4fec                Map44_Regs
                0x022c4ff4                Map4_IRQ_Enable
                0x022c4ff8                Map4_Prg1
                0x022c4ffc                Map49_Chr4
                0x022c5000                Map74_Chr23
                0x022c5004                Map115_Chr3
                0x022c5005                Map252_Reg
                0x022c500e                Map251_Reg
                0x022c501c                Map90_Value1
                0x022c5020                Map44_IRQ_Cnt
                0x022c5021                Map191_Reg
                0x022c502c                Map44_Prg0
                0x022c5030                Map115_Chr7
                0x022c5031                Map25_Bank_Selector
                0x022c5032                Map187_LastWrite
                0x022c5033                Map119_Chr01
                0x022c5034                Map76_Reg
                0x022c5035                Map40_IRQ_Enable
                0x022c5036                Map116_Prg1
                0x022c5037                Map135_Cmd
                0x022c5038                Map26_IRQ_Latch
                0x022c5039                Map115_Prg2
                0x022c503a                Map109_Chr0
                0x022c503b                Map74_Regs
                0x022c5043                Map100_IRQ_Cnt
                0x022c5044                Map90_Chr_Bank_Size
                0x022c5045                Map245_Chr4
                0x022c5046                Map114_IRQ_Enable
                0x022c5047                Map160_IRQ_Latch
                0x022c5048                Map47_Chr6
                0x022c504c                Map182_IRQ_Cnt
                0x022c5050                Map47_Prg1
                0x022c5054                Map44_Chr5
                0x022c5058                Map114_Chr23
                0x022c505c                Map74_Chr7
                0x022c5060                Map236_Bank
                0x022c5061                Map109_Reg
                0x022c5062                Map90_Nam_High_Reg
                0x022c5066                Map90_IRQ_Cnt
                0x022c5067                Map100_Prg0
                0x022c5068                Map116_Prg1L
                0x022c506c                Map1_bank3
                0x022c5070                Map21_IRQ_Latch
                0x022c5071                Map255_Reg
                0x022c5075                Map248_Chr4
                0x022c5076                Map47_IRQ_Latch
                0x022c5077                Map69_IRQ_Enable
                0x022c5078                Map90_Chr_Low_Reg
                0x022c5080                Map248_Chr01
                0x022c5081                Map96_Reg
                0x022c5084                Map47_Chr23
                0x022c5088                Map183_IRQ_Counter
                0x022c508c                Map112_Chr7
                0x022c5090                Map236_Mode
                0x022c5091                Map100_Chr3
                0x022c5094                Map118_Chr1
                0x022c5098                Map249_IRQ_Enable
                0x022c509c                Map47_Rom_Bank
                0x022c50a0                Map116_Chr0
                0x022c50a1                Map25_IRQ_State
                0x022c50a2                Map191_Chr3
                0x022c50a3                Map226_Reg
                0x022c50a8                Map114_Chr01
                0x022c50ac                Map4_Chr6
                0x022c50b0                Map116_Chr4
                0x022c50b4                Map118_Chr5
                0x022c50b8                Map114_Chr7
                0x022c50bc                Map119_Chr4
 *fill*         0x022c50bd        0x3 00
 COMMON         0x022c50c0     0x2e79 obj\Debug\\code\infoNES\infoNES_SRC\src\InfoNES_pAPU.o
                0x022c50c0                ApuC4d
                0x022c50c4                ApuSampleRate
                0x022c50c8                ApuC1b
                0x022c50c9                ApuC3c
                0x022c50cc                cur_event
                0x022c50d0                ApuC5CacheAddr
                0x022c50d4                ApuCyclesPerSample
                0x022c50d8                ApuTriangleMagic
                0x022c50dc                ApuC1EnvPhase
                0x022c50e0                ApuC5CacheDmaLength
                0x022c50e4                ApuCtrl
                0x022c50e5                ApuC2EnvVol
                0x022c50e8                ApuSamplesPerSync
                0x022c50ec                ApuC1EnvVol
                0x022c50f0                ApuC1SweepPhase
                0x022c50f4                ApuC2b
                0x022c50f8                ApuQuality
                0x022c50fc                ApuC3CounterStarted
                0x022c50fd                ApuC4c
                0x022c50fe                ApuC1a
                0x022c50ff                ApuC3b
                0x022c5100                ApuC5DmaLength
                0x022c5104                ApuC5Looping
                0x022c5108                ApuNoiseMagic
                0x022c510c                ApuC5Address
                0x022c5110                ApuC1Skip
                0x022c5114                ApuC2EnvPhase
                0x022c5118                ApuC4Index
                0x022c511c                ApuC5CurByte
                0x022c511e                entertime
                0x022c5120                ApuC1d
                0x022c5124                ApuC4Fdc
                0x022c5128                ApuC2a
                0x022c512c                ApuEventQueue
                0x022c706c                ApuC4b
                0x022c7070                ApuC4Skip
                0x022c7074                ApuC5DpcmValue
                0x022c7075                wave_buffers
                0x022c7ed0                ApuC2Freq
                0x022c7ed4                ApuC3a
                0x022c7ed8                ApuC1Freq
                0x022c7edc                ApuC3WriteLatency
                0x022c7ee0                ApuCycleRate
                0x022c7ee4                ApuC2d
                0x022c7ee5                ApuC5Enable
                0x022c7ee6                ApuC3Atl
                0x022c7ee7                ApuC1c
                0x022c7ee8                ApuC4EnvPhase
                0x022c7eec                ApuC2Wave
                0x022c7ef0                ApuCtrlNew
                0x022c7ef4                ApuC2Index
                0x022c7ef8                ApuC3Skip
                0x022c7efc                ApuC3d
                0x022c7efd                ApuC1Atl
                0x022c7f00                ApuC1Index
                0x022c7f04                ApuC4a
                0x022c7f08                ApuC3Index
                0x022c7f0c                ApuC2Skip
                0x022c7f10                ApuC3Llc
                0x022c7f14                ApuC1Wave
                0x022c7f18                ApuC5Freq
                0x022c7f1c                ApuC4Atl
                0x022c7f1d                ApuC4EnvVol
                0x022c7f20                ApuC2SweepPhase
                0x022c7f24                ApuC5Reg
                0x022c7f28                ApuC5Phaseacc
                0x022c7f2c                ApuC2Atl
                0x022c7f30                ApuC4Sr
                0x022c7f34                ApuPulseMagic
                0x022c7f38                ApuC2c
 *fill*         0x022c7f39        0x1 00
 COMMON         0x022c7f3a      0xd0e obj\Debug\\code\infoNES\infoNES_SRC\src\K6502.o
                0x022c7f3a                IRQ_State
                0x022c7f3b                g_byTestTable
                0x022c803b                g_ROLTable
                0x022c843b                SP
                0x022c843c                g_wPassedClocks
                0x022c843e                NMI_Wiring
                0x022c8440                PC
                0x022c8442                NMI_State
                0x022c8443                X
                0x022c8444                g_RORTable
                0x022c8844                g_LSRTable
                0x022c8a44                A
                0x022c8a45                g_ASLTable
                0x022c8c45                Y
                0x022c8c46                IRQ_Wiring
                0x022c8c47                F
 COMMON         0x022c8c48        0x6 obj\Debug\\code\key\adc_scan.o
                0x022c8c48                adc_channel_value
 *fill*         0x022c8c4e        0x2 00
 COMMON         0x022c8c50       0x1c obj\Debug\\code\start\dec_mode.o
                0x022c8c50                dec_ctrl
 COMMON         0x022c8c6c       0x34 obj\Debug\\code\start\enc_mode.o
                0x022c8c6c                g_av_in
                0x022c8c7c                enc_ctrl
 COMMON         0x022c8ca0    0x7e9a0 obj\Debug\\code\start\main.o
                0x022c8ca0                g_double_dsc_status
                0x022c8cc0                g_dbuf
                0x023475c0                disp0_info
                0x023475dc                g_dsc1_hdl
                0x023475e0                dsc1_small_ptr
                0x023475e4                dsc1_half_ptr
                0x023475e8                dsc1_all_ptr
                0x023475ec                g_ldet_info
                0x02347610                g_dsc0_hdl
                0x02347614                uart_clk_src
                0x02347618                flash_size
                0x0234761c                disp1_info
                0x02347638                reset_flag
                0x0234763c                g_sdfile_head_offset
 COMMON         0x02347640       0x10 obj\Debug\\code\start\mode_switch.o
                0x02347640                sys_status
                0x02347648                mode_ctrl
 COMMON         0x02347650       0x3c obj\Debug\\code\start\usb_mode.o
                0x02347650                uvc_ctrl_arg
                0x02347668                usb_ctrl
                0x0234767c                uac_ctl_arg
 COMMON         0x0234768c      0x400 obj\Debug\\code\tft_panel\ILI9325.o
                0x0234768c                LCDBuff
 COMMON         0x02347a8c       0x10 ..\..\..\libs\lib_ves.a(ves.o)
                0x02347a8c                ves_mux
 COMMON         0x02347a9c        0x1 ..\..\..\libs\lib_jpeg_dec.a(jpeg_dec_isr.o)
                0x02347a9c                jpeg_dec_fend
 *fill*         0x02347a9d        0x3 00
 COMMON         0x02347aa0      0x340 ..\..\..\libs\lib_jpeg_dec.a(jpeg_decode.o)
                0x02347aa0                g_jpeg_dec_fd
                0x02347be0                jpg_dec_nouse_buf
 COMMON         0x02347de0      0x170 ..\..\..\libs\lib_jpeg_enc.a(jpeg_encode_init.o)
                0x02347de0                g_jpg_fd
 COMMON         0x02347f50      0xf50 ..\..\..\libs\lib_jpeg_enc.a(Build_dynamic_huffman.o)
                0x02347f50                pSTD_AC_UV_VALUES
                0x02347ff4                Ydc_values_cnt
                0x02348028                STD_AC_Y_HT
                0x02348428                pSTD_DC_Y_VALUES
                0x02348434                UVac_values_cnt
                0x023486c0                pSTD_DC_UV_VALUES
                0x023486cc                STD_DC_Y_HT
                0x023486fc                STD_AC_UV_HT
                0x02348afc                dyh_ctrl_sem
                0x02348b0c                pSTD_AC_Y_VALUES
                0x02348bb0                Yac_values_cnt
                0x02348e3c                UVdc_values_cnt
                0x02348e70                STD_DC_UV_HT
 COMMON         0x02348ea0        0x4 ..\..\..\libs\libsd1.a(mango_dev_sd1.o)
                0x02348ea0                sd1_det_func
 COMMON         0x02348ea4        0x4 ..\..\..\libs\libsd1.a(sdmmc_init.o)
                0x02348ea4                sd1_port_out
 *fill*         0x02348ea8       0x18 00
 COMMON         0x02348ec0       0x40 ..\..\..\libs\libsd1.a(sd_host_status.o)
                0x02348ec0                sd1_host_var
 COMMON         0x02348f00        0x8 ..\..\..\libs\libsd1.a(sd_host_args.o)
                0x02348f00                sd1_cmd_detect
 COMMON         0x02348f08      0x409 ..\..\..\libs\lib_imb.a(imb_module.o)
                0x02348f08                r_gma_tab_update_flag
                0x02348f0c                osdlayer
                0x02348fac                b_gma_tab
                0x023490ac                g_gma_tab
                0x023491ac                g_gma_tab_update_flag
                0x023491b0                image
                0x023491f8                pdev
                0x023491fc                r_gma_tab
                0x023492fc                mask
                0x0234930c                img_tmp
                0x02349310                b_gma_tab_update_flag
 *fill*         0x02349311        0x1 00
 COMMON         0x02349312        0xc ..\..\..\libs\lib_imc.a(imc_rep.o)
                0x02349312                g_imc_rep
 *fill*         0x0234931e        0x2 00
 COMMON         0x02349320      0x1fc ..\..\..\libs\lib_imc.a(imc.o)
                0x02349320                g_imc_info
                0x023493d0                g_osd_info
                0x02349500                g_isp_buf
                0x02349510                isp_buf_mng
 COMMON         0x0234951c      0x134 ..\..\..\libs\lib_imc.a(imc_cut.o)
                0x0234951c                g_imc_frame_buf
                0x0234952c                g_imc_target_frame
                0x0234953c                g_imc_cut_frame
 COMMON         0x02349650       0x20 ..\..\..\libs\lib_font.a(font_out.o)
                0x02349650                g_language_mode
                0x02349654                tabfile
                0x02349664                ascfont
                0x02349668                font_putchar
                0x0234966c                font
 COMMON         0x02349670        0x6 ..\..\..\libs\lib_font.a(font_area_ctl.o)
                0x02349670                g_text_width
                0x02349672                g_amplify
                0x02349674                g_text_heigth
 *fill*         0x02349676        0x2 00
 COMMON         0x02349678       0xe0 ..\..\..\libs\lib_font.a(font_gbk.o)
                0x02349678                IsGB2312
                0x02349679                pixBuf
                0x023496e0                fontinfo
                0x0234971c                ascfontinfo
 COMMON         0x02349758        0x4 ..\..\..\libs\lib_uicon.a(dc_showres.o)
                0x02349758                g_str_sindex
                0x0234975a                screen_y_scale
                0x0234975b                screen_x_scale
 COMMON         0x0234975c       0x20 ..\..\..\libs\lib_uicon.a(ui_init.o)
                0x0234975c                resfile
                0x0234976c                styfile
 COMMON         0x0234977c       0x44 ..\..\..\libs\lib_uicon.a(ui_menu.o)
                0x0234977c                msg_fifo
                0x023497b0                menu_var
 COMMON         0x023497c0        0x6 ..\..\..\libs\lib_uicon.a(ui_text.o)
                0x023497c0                font_color
                0x023497c2                text_pos
 COMMON         0x023497c6        0x1 ..\..\..\libs\lib_uicon.a(ui_time1.o)
                0x023497c6                text_flags
 COMMON         0x023497c7        0x1 ..\..\..\libs\lib_vfs.a(fs_api.o)
                0x023497c7                gFsErrFlag
 COMMON         0x023497c8        0x8 ..\..\..\libs\lib_vfs.a(dev_Cache.o)
                0x023497c8                g_pFunEnterRW
                0x023497cc                g_pFunLeaveRW
 COMMON         0x023497d0       0x80 ..\..\..\libs\lib_audio.a(ladc.o)
                0x023497d0                g_ladc_var
 COMMON         0x02349850      0x800 ..\..\..\libs\lib_isp.a(gamma.o)
                0x02349850                ispt_gamma_r
                0x02349950                ispt_gamma_b
                0x02349a50                ispt_gamma_g_preset
                0x02349b50                gamma_polyfit
                0x02349c50                ispt_gamma_b_preset
                0x02349d50                gamma_curve2d
                0x02349e50                ispt_gamma_g
                0x02349f50                ispt_gamma_r_preset
 COMMON         0x0234a050      0x4ba ..\..\..\libs\lib_isp.a(isp0_dev.o)
                0x0234a050                isp0_sem
                0x0234a060                isp0_reg
 *fill*         0x0234a50a        0x2 00
 COMMON         0x0234a50c      0x15c ..\..\..\libs\lib_isp.a(isp_customize.o)
                0x0234a50c                p_customize_lscG
                0x0234a510                i_customize_blc_r
                0x0234a512                i_customize_lscY
                0x0234a514                i_customize_satuUV
                0x0234a516                i_customize_blc_gr
                0x0234a518                i_customize_shpnLevel
                0x0234a51c                i_customize_wb_g
                0x0234a51e                b_customize_drc
                0x0234a520                p_customize_gamma
                0x0234a524                p_customize_lscR
                0x0234a528                b_customize_shpnEnable
                0x0234a52c                p_customize_lscB
                0x0234a530                i_customize_ev
                0x0234a534                customize_gamma_tbl
                0x0234a634                p_customize_ccm3x4
                0x0234a638                b_customize_wb
                0x0234a63a                i_customize_blc_gb
                0x0234a63c                i_customize_mdLevel
                0x0234a640                b_customize_lsc
                0x0234a644                i_customize_ev2
                0x0234a648                i_customize_evMode
                0x0234a64c                i_customize_nrLevel
                0x0234a650                i_customize_shpnThreshold
                0x0234a654                e_customize_wb
                0x0234a658                b_customize_blc
                0x0234a65a                i_customize_satuY
                0x0234a65c                i_customize_lscX
                0x0234a65e                i_customize_wb_r
                0x0234a660                b_customize_satu
                0x0234a662                i_customize_shpnAmount
                0x0234a664                i_customize_wb_b
                0x0234a666                i_customize_blc_b
 COMMON         0x0234a668       0x14 ..\..\..\libs\lib_isp.a(isp_tuning.o)
                0x0234a668                ispt_height
                0x0234a66c                ispt_win_width
                0x0234a670                gIsp0_para
                0x0234a674                ispt_width
                0x0234a678                ispt_win_height
 COMMON         0x0234a67c        0x4 ..\..\..\libs\lib_isp.a(isp1_dev.o)
                0x0234a67c                p_isp1_sen_con
 COMMON         0x0234a680      0x151 ..\..\..\libs\librtos.a(os_core.o)
                0x0234a680                OSTCBPrioTbl
                0x0234a780                OSIdleCtr
                0x0234a784                idle_tcb
                0x0234a7b8                OSTime
                0x0234a7bc                OSRunning
                0x0234a7c0                OSTCBHighRdy
                0x0234a7c4                OSRdyTbl
                0x0234a7c8                OSIntNesting
                0x0234a7cc                OSTCBCur
                0x0234a7d0                OSLockNesting
 *fill*         0x0234a7d1        0x3 00
 COMMON         0x0234a7d4        0x8 ..\..\..\libs\lib_sensor.a(isp_sensor_manage.o)
                0x0234a7d4                sc1045_pclk
                0x0234a7d8                SC1045_MAX_EV_LEVEL
 COMMON         0x0234a7dc       0x1c ..\..\..\libs\lib_sensor.a(GC0308.o)
                0x0234a7dc                gc0308_iic_fun
 COMMON         0x0234a7f8       0x1c ..\..\..\libs\lib_sensor.a(GC1004.o)
                0x0234a7f8                gc1004_iic_fun
 COMMON         0x0234a814       0x1c ..\..\..\libs\lib_sensor.a(H42.o)
                0x0234a814                H42_iic_fun
 COMMON         0x0234a830       0x1c ..\..\..\libs\lib_sensor.a(NT99140.o)
                0x0234a830                NT99140_iic_fun
 COMMON         0x0234a84c       0x1c ..\..\..\libs\lib_sensor.a(NT99143.o)
                0x0234a84c                NT99143_iic_fun
 COMMON         0x0234a868       0x1c ..\..\..\libs\lib_sensor.a(OV9710.o)
                0x0234a868                ov9710_iic_fun
 COMMON         0x0234a884       0x1c ..\..\..\libs\lib_sensor.a(SC1045.o)
                0x0234a884                SC1045_iic_fun
 COMMON         0x0234a8a0       0x1c ..\..\..\libs\lib_sensor.a(gm7150.o)
                0x0234a8a0                gm7150_iic_fun
 COMMON         0x0234a8bc       0x1c ..\..\..\libs\lib_sensor.a(ps4100.o)
                0x0234a8bc                ps4100_iic_fun
                0x0234a8d8                . = (((. + 0x3) / 0x4) * 0x4)
                0x0234a8d8                _STK_BEGIN_ADDR = .
 *(.stack)
 .stack         0x0234a8d8     0x4000 obj\Debug\\code\start\startup.o
                0x0234e8d8                _STK_END_ADDR = .
                0x01fa0000                . = ORIGIN (video_ram)

.video_ram_data
                0x01fa0000        0x0

.video_ram_bss  0x01fa0000        0x0
                0x01f00000                . = ORIGIN (ram0)

.ram0_data      0x01f00000       0x3c
 *(.flushinv_icache)
 .flushinv_icache
                0x01f00000       0x3c ..\..\..\libs\libhwi.a(cache.o)
                0x01f00000                flush_all_icache

.ram0_bss       0x01f0003c     0xfc44
 *(.usb0_ep0_fifo)
 *fill*         0x01f0003c        0x4 00
 .usb0_ep0_fifo
                0x01f00040       0x40 ..\..\..\libs\lib_usb_phy.a(usb_hal.o)
 *(.usb0_ep1_fifo)
 .usb0_ep1_fifo
                0x01f00080      0x400 ..\..\..\libs\lib_usb_phy.a(usb_hal.o)
 *(.usb0_ep2_fifo)
 .usb0_ep2_fifo
                0x01f00480      0x400 ..\..\..\libs\lib_usb_phy.a(usb_hal.o)
 *(.usb0_ep3_fifo)
 .usb0_ep3_fifo
                0x01f00880      0x400 ..\..\..\libs\lib_usb_phy.a(usb_hal.o)
 *(.usb0_ep4_fifo)
 .usb0_ep4_fifo
                0x01f00c80     0x1800 ..\..\..\libs\lib_usb_phy.a(usb_hal.o)
 *(.sram)
 .sram          0x01f02480     0x7800 ..\..\..\libs\lib_imc.a(imc.o)
 .sram          0x01f09c80     0x6000 ..\..\..\libs\lib_isp.a(isp_com.o)
                0x01f09c80                isp0_sta_buf0
                0x01f0bc80                isp0_sta_buf1
                0x01f0dc80                isp0_sta_buf2
                0x021076c0                _sdram_bss_vma = ADDR (.sdram_bss)
                0x00247218                _sdram_bss_size = SIZEOF (.sdram_bss)
                0x01fa0000                _video_ram_data_vma = ADDR (.video_ram_data)
                0x021076b4                _video_ram_data_lma = (ADDR (.sdram_data) + SIZEOF (.sdram_data))
                0x00000000                _video_ram_data_size = SIZEOF (.video_ram_data)
                0x01fa0000                _video_ram_bss_vma = ADDR (.video_ram_bss)
                0x00000000                _video_ram_bss_size = SIZEOF (.video_ram_bss)
                0x01f0003c                _ram0_bss_vma = ADDR (.ram0_bss)
                0x0000fc44                _ram0_bss_size = SIZEOF (.ram0_bss)
                0x01f00000                _ram0_data_vma = ADDR (.ram0_data)
                0x021076b4                _ram0_data_lma = ((ADDR (.sdram_data) + SIZEOF (.sdram_data)) + SIZEOF (.video_ram_data))
                0x0000003c                _ram0_data_size = SIZEOF (.ram0_data)
LOAD ..\..\..\libs\lib_vds.a
LOAD ..\..\..\libs\lib_ves.a
LOAD ..\..\..\libs\lib_jpeg_dec.a
LOAD ..\..\..\libs\lib_jpeg_enc.a
LOAD ..\..\..\libs\lib_avi_unpkg.a
LOAD ..\..\..\libs\lib_avi_pkg.a
LOAD ..\..\..\libs\lib_malloc.a
LOAD ..\..\..\libs\libsd1.a
LOAD ..\..\..\libs\lib_imc_disp.a
LOAD ..\..\..\libs\lib_imb.a
LOAD ..\..\..\libs\lib_imc.a
LOAD ..\..\..\libs\lib_vm.a
LOAD ..\..\..\libs\lib_font.a
LOAD ..\..\..\libs\lib_uicon.a
LOAD ..\..\..\libs\lib_drv_lib.a
LOAD ..\..\..\libs\lib_dsc_ram.a
LOAD ..\..\..\libs\lib_vedio_ram.a
LOAD ..\..\..\libs\lib_sdfile.a
LOAD ..\..\..\libs\lib_vfs.a
LOAD ..\..\..\libs\libhwi.a
LOAD ..\..\..\libs\libspi0flash.a
LOAD ..\..\..\libs\libspi0.a
LOAD ..\..\..\libs\lib_wfile_serve.a
LOAD ..\..\..\libs\lib_audio.a
LOAD ..\..\..\libs\lib_usb_slave.a
LOAD ..\..\..\libs\lib_usb_host.a
LOAD ..\..\..\libs\lib_usb_phy.a
LOAD ..\..\..\libs\lib_isp.a
LOAD ..\..\..\libs\lib_cbuf.a
LOAD ..\..\..\libs\lib_lane.a
LOAD ..\..\..\libs\librtos.a
LOAD ..\..\..\libs\lib_irtc.a
LOAD ..\..\..\libs\lib_fbuf.a
LOAD ..\..\..\libs\lib_sensor.a
LOAD ..\..\..\libs\lib_common.a
LOAD ..\..\..\libs\lib_video_play.a
LOAD C:\JL\dv12\lib\libc.a
LOAD C:\JL\dv12\lib\libgcc.a
LOAD C:\JL\dv12\lib\libgcov.a
LOAD C:\JL\dv12\lib\libiberty.a
LOAD C:\JL\dv12\lib\libm.a
OUTPUT(main.or32 elf32-dv12)

.debug_abbrev   0x00000000    0x16adb
 .debug_abbrev  0x00000000      0x39c obj\Debug\\code\FileSelecter\FileSelecter.o
 .debug_abbrev  0x0000039c      0x348 obj\Debug\\code\FileSelecter\pb_fctrl.o
 .debug_abbrev  0x000006e4      0x2c1 obj\Debug\\code\Peripherals\G_Sensor\GMA301.o
 .debug_abbrev  0x000009a5      0x281 obj\Debug\\code\Peripherals\G_Sensor\da380.o
 .debug_abbrev  0x00000c26      0x17f obj\Debug\\code\Peripherals\G_Sensor\gravity_sensor_api.o
 .debug_abbrev  0x00000da5      0x2ad obj\Debug\\code\Peripherals\G_Sensor\gravity_sensor_manage.o
 .debug_abbrev  0x00001052       0xd3 obj\Debug\\code\Peripherals\G_Sensor\i2c.o
 .debug_abbrev  0x00001125      0x12e obj\Debug\\code\Peripherals\G_Sensor\parking_guard.o
 .debug_abbrev  0x00001253      0x2b2 obj\Debug\\code\Peripherals\G_Sensor\stk8312.o
 .debug_abbrev  0x00001505      0x358 obj\Debug\\code\Peripherals\clock.o
 .debug_abbrev  0x0000185d      0x24b obj\Debug\\code\Peripherals\timer.o
 .debug_abbrev  0x00001aa8      0x1bb obj\Debug\\code\Peripherals\uart.o
 .debug_abbrev  0x00001c63      0x1d9 obj\Debug\\code\Peripherals\user_isp_cfg.o
 .debug_abbrev  0x00001e3c       0x83 obj\Debug\\code\Peripherals\wdt.o
 .debug_abbrev  0x00001ebf      0x22b obj\Debug\\code\StorDev\dev_ctrl.o
 .debug_abbrev  0x000020ea      0x39c obj\Debug\\code\common\audio_api.o
 .debug_abbrev  0x00002486      0x13f obj\Debug\\code\common\common.o
 .debug_abbrev  0x000025c5       0x2a obj\Debug\\code\common\fcvt.o
 .debug_abbrev  0x000025ef      0x21f obj\Debug\\code\common\printf-stdarg.o
 .debug_abbrev  0x0000280e      0x191 obj\Debug\\code\common\vm_api.o
 .debug_abbrev  0x0000299f      0x236 obj\Debug\\code\disp_ctrl\lcd.o
 .debug_abbrev  0x00002bd5      0x422 obj\Debug\\code\disp_ctrl\my_ui1.o
 .debug_abbrev  0x00002ff7      0x519 obj\Debug\\code\disp_ctrl\ui_task.o
 .debug_abbrev  0x00003510       0x49 obj\Debug\\code\infoNES\NES_GAME\ddl.o
 .debug_abbrev  0x00003559       0x49 obj\Debug\\code\infoNES\NES_GAME\fj.o
 .debug_abbrev  0x000035a2       0x49 obj\Debug\\code\infoNES\NES_GAME\gef.o
 .debug_abbrev  0x000035eb       0x9d obj\Debug\\code\infoNES\infoNES_PORT\nes_port.o
 .debug_abbrev  0x00003688      0x21e obj\Debug\\code\infoNES\infoNES_SRC\src\InfoNES.o
 .debug_abbrev  0x000038a6      0x296 obj\Debug\\code\infoNES\infoNES_SRC\src\InfoNES_Mapper.o
 .debug_abbrev  0x00003b3c      0x214 obj\Debug\\code\infoNES\infoNES_SRC\src\InfoNES_pAPU.o
 .debug_abbrev  0x00003d50      0x2a1 obj\Debug\\code\infoNES\infoNES_SRC\src\K6502.o
 .debug_abbrev  0x00003ff1      0x36f obj\Debug\\code\infoNES\infoNES_System\InfoNES_System.o
 .debug_abbrev  0x00004360       0xd9 obj\Debug\\code\key\adc_scan.o
 .debug_abbrev  0x00004439      0x12f obj\Debug\\code\key\key_drv_ad.o
 .debug_abbrev  0x00004568      0x212 obj\Debug\\code\key\key_drv_manager.o
 .debug_abbrev  0x0000477a      0x12b obj\Debug\\code\key\powercheck.o
 .debug_abbrev  0x000048a5      0x26d obj\Debug\\code\start\car_fs_api.o
 .debug_abbrev  0x00004b12      0x35a obj\Debug\\code\start\dec_mode.o
 .debug_abbrev  0x00004e6c      0x431 obj\Debug\\code\start\enc_mode.o
 .debug_abbrev  0x0000529d      0x464 obj\Debug\\code\start\main.o
 .debug_abbrev  0x00005701      0x30d obj\Debug\\code\start\mode_switch.o
 .debug_abbrev  0x00005a0e      0x313 obj\Debug\\code\start\pwr_onoff.o
 .debug_abbrev  0x00005d21       0x14 obj\Debug\\code\start\reg.o
 .debug_abbrev  0x00005d35       0x14 obj\Debug\\code\start\startup.o
 .debug_abbrev  0x00005d49      0x4c3 obj\Debug\\code\start\usb_mode.o
 .debug_abbrev  0x0000620c       0x2a obj\Debug\\code\tft_panel\ILI8960.o
 .debug_abbrev  0x00006236       0x2a obj\Debug\\code\tft_panel\ILI8961.o
 .debug_abbrev  0x00006260       0x2a obj\Debug\\code\tft_panel\ILI9163.o
 .debug_abbrev  0x0000628a      0x303 obj\Debug\\code\tft_panel\ILI9325.o
 .debug_abbrev  0x0000658d       0x2a obj\Debug\\code\tft_panel\LCD_RM68116.o
 .debug_abbrev  0x000065b7       0x2a obj\Debug\\code\tft_panel\LQ026B3UX01.o
 .debug_abbrev  0x000065e1       0x2a obj\Debug\\code\tft_panel\SSD1963.o
 .debug_abbrev  0x0000660b       0x2a obj\Debug\\code\tft_panel\ST7735S.o
 .debug_abbrev  0x00006635       0x2a obj\Debug\\code\tft_panel\T15P00.o
 .debug_abbrev  0x0000665f      0x17c obj\Debug\\code\tft_panel\avout.o
 .debug_abbrev  0x000067db       0x2a obj\Debug\\code\tft_panel\disp_43inch.o
 .debug_abbrev  0x00006805       0x2a obj\Debug\\code\tft_panel\disp_8inch.o
 .debug_abbrev  0x0000682f       0x2a obj\Debug\\code\tft_panel\disp_JC4301.o
 .debug_abbrev  0x00006859       0xf3 obj\Debug\\code\tft_panel\pap.o
 .debug_abbrev  0x0000694c      0x41a obj\Debug\\code\upgrade\upgrade.o
 .debug_abbrev  0x00006d66      0x341 ..\..\..\libs\lib_vds.a(vds.o)
 .debug_abbrev  0x000070a7      0x27b ..\..\..\libs\lib_vds.a(jpeg_dec_ctl.o)
 .debug_abbrev  0x00007322      0x42c ..\..\..\libs\lib_vds.a(jpeg_dec_unpkg.o)
 .debug_abbrev  0x0000774e      0x420 ..\..\..\libs\lib_ves.a(ves.o)
 .debug_abbrev  0x00007b6e      0x31d ..\..\..\libs\lib_ves.a(avi_pkg_ctrl.o)
 .debug_abbrev  0x00007e8b      0x1f5 ..\..\..\libs\lib_ves.a(jpeg_enc_ctrl.o)
 .debug_abbrev  0x00008080      0x317 ..\..\..\libs\lib_ves.a(jpeg_pkg_ctrl.o)
 .debug_abbrev  0x00008397      0x15a ..\..\..\libs\lib_jpeg_dec.a(jpeg_dec_if.o)
 .debug_abbrev  0x000084f1      0x228 ..\..\..\libs\lib_jpeg_dec.a(jpeg_dec_isr.o)
 .debug_abbrev  0x00008719      0x340 ..\..\..\libs\lib_jpeg_dec.a(jpeg_decode.o)
 .debug_abbrev  0x00008a59      0x323 ..\..\..\libs\lib_jpeg_dec.a(jpeg_dec_head.o)
 .debug_abbrev  0x00008d7c      0x3db ..\..\..\libs\lib_jpeg_enc.a(jpeg_enc_if.o)
 .debug_abbrev  0x00009157      0x227 ..\..\..\libs\lib_jpeg_enc.a(jpeg_encode.o)
 .debug_abbrev  0x0000937e      0x276 ..\..\..\libs\lib_jpeg_enc.a(jpeg_encode_init.o)
 .debug_abbrev  0x000095f4      0x360 ..\..\..\libs\lib_jpeg_enc.a(jpeg_encode_isr.o)
 .debug_abbrev  0x00009954      0x350 ..\..\..\libs\lib_jpeg_enc.a(Build_dynamic_huffman.o)
 .debug_abbrev  0x00009ca4      0x13e ..\..\..\libs\lib_jpeg_enc.a(jpeg_abr.o)
 .debug_abbrev  0x00009de2      0x1e4 ..\..\..\libs\lib_avi_pkg.a(avi_pkg_if.o)
 .debug_abbrev  0x00009fc6      0x1f9 ..\..\..\libs\lib_avi_pkg.a(avi_pkg_dev.o)
 .debug_abbrev  0x0000a1bf      0x291 ..\..\..\libs\lib_avi_pkg.a(avi_pkg.o)
 .debug_abbrev  0x0000a450       0xd5 ..\..\..\libs\lib_avi_pkg.a(avi_pkg_head.o)
 .debug_abbrev  0x0000a525      0x289 ..\..\..\libs\lib_avi_pkg.a(avi_pkg_idx.o)
 .debug_abbrev  0x0000a7ae      0x274 ..\..\..\libs\lib_malloc.a(mem_heap.o)
 .debug_abbrev  0x0000aa22      0x2f9 ..\..\..\libs\libsd1.a(mango_dev_sd1.o)
 .debug_abbrev  0x0000ad1b      0x123 ..\..\..\libs\libsd1.a(sd_host_init.o)
 .debug_abbrev  0x0000ae3e      0x158 ..\..\..\libs\libsd1.a(sd_host_read_end.o)
 .debug_abbrev  0x0000af96       0xb9 ..\..\..\libs\libsd1.a(sd_host_unmount.o)
 .debug_abbrev  0x0000b04f      0x163 ..\..\..\libs\libsd1.a(sd_host_write_end.o)
 .debug_abbrev  0x0000b1b2      0x1bb ..\..\..\libs\libsd1.a(sdmmc_init.o)
 .debug_abbrev  0x0000b36d       0xb9 ..\..\..\libs\libsd1.a(suspend_sdmmc.o)
 .debug_abbrev  0x0000b426       0xf0 ..\..\..\libs\libsd1.a(sd_host_send_csd.o)
 .debug_abbrev  0x0000b516       0xef ..\..\..\libs\libsd1.a(sd_host_stop_trans.o)
 .debug_abbrev  0x0000b605      0x14f ..\..\..\libs\libsd1.a(sd_host_hw.o)
 .debug_abbrev  0x0000b754       0xd7 ..\..\..\libs\libsd1.a(sd_wait_idle.o)
 .debug_abbrev  0x0000b82b      0x18b ..\..\..\libs\libsd1.a(sdmmc_det.o)
 .debug_abbrev  0x0000b9b6      0x1d7 ..\..\..\libs\libsd1.a(sd_host_reg.o)
 .debug_abbrev  0x0000bb8d       0xfa ..\..\..\libs\libsd1.a(sd_send_command.o)
 .debug_abbrev  0x0000bc87      0x149 ..\..\..\libs\libsd1.a(sd_host_status.o)
 .debug_abbrev  0x0000bdd0       0x7a ..\..\..\libs\libsd1.a(sd_host_args.o)
 .debug_abbrev  0x0000be4a       0xef ..\..\..\libs\libsd1.a(sd_host_mount.o)
 .debug_abbrev  0x0000bf39      0x13e ..\..\..\libs\libsd1.a(sd_host_read.o)
 .debug_abbrev  0x0000c077      0x13b ..\..\..\libs\libsd1.a(sd_host_timeout.o)
 .debug_abbrev  0x0000c1b2      0x13e ..\..\..\libs\libsd1.a(sd_host_write.o)
 .debug_abbrev  0x0000c2f0      0x114 ..\..\..\libs\libsd1.a(sd_init.o)
 .debug_abbrev  0x0000c404      0x165 ..\..\..\libs\libsd1.a(sdmmc_host_set_bus_width.o)
 .debug_abbrev  0x0000c569       0xca ..\..\..\libs\libsd1.a(sdmmc_host_set_hispeed.o)
 .debug_abbrev  0x0000c633       0xa3 ..\..\..\libs\libsd1.a(mmc_host_send_rca.o)
 .debug_abbrev  0x0000c6d6       0xb4 ..\..\..\libs\libsd1.a(mmc_host_set_bus_width.o)
 .debug_abbrev  0x0000c78a       0xb4 ..\..\..\libs\libsd1.a(mmc_host_set_hispeed.o)
 .debug_abbrev  0x0000c83e       0x4e ..\..\..\libs\libsd1.a(sd_host_all_send_cid.o)
 .debug_abbrev  0x0000c88c       0x4e ..\..\..\libs\libsd1.a(sd_host_reset.o)
 .debug_abbrev  0x0000c8da      0x146 ..\..\..\libs\libsd1.a(sd_host_sd_status.o)
 .debug_abbrev  0x0000ca20       0x4e ..\..\..\libs\libsd1.a(sd_host_send_if_cond.o)
 .debug_abbrev  0x0000ca6e       0xb4 ..\..\..\libs\libsd1.a(sd_host_send_rca.o)
 .debug_abbrev  0x0000cb22       0x6c ..\..\..\libs\libsd1.a(sd_host_set_bus_width.o)
 .debug_abbrev  0x0000cb8e      0x121 ..\..\..\libs\libsd1.a(sd_host_set_hispeed.o)
 .debug_abbrev  0x0000ccaf       0xb4 ..\..\..\libs\libsd1.a(sd_host_switch_func.o)
 .debug_abbrev  0x0000cd63       0xb4 ..\..\..\libs\libsd1.a(sd_select_card.o)
 .debug_abbrev  0x0000ce17      0x114 ..\..\..\libs\libsd1.a(sd_send_scr.o)
 .debug_abbrev  0x0000cf2b      0x105 ..\..\..\libs\libsd1.a(sd_chk_ctl.o)
 .debug_abbrev  0x0000d030       0xe2 ..\..\..\libs\libsd1.a(sd_read_start.o)
 .debug_abbrev  0x0000d112       0xe2 ..\..\..\libs\libsd1.a(sd_write_start.o)
 .debug_abbrev  0x0000d1f4       0xe8 ..\..\..\libs\libsd1.a(sd_host_identification.o)
 .debug_abbrev  0x0000d2dc       0x4e ..\..\..\libs\libsd1.a(mmc_host_send_op_cond.o)
 .debug_abbrev  0x0000d32a       0xa3 ..\..\..\libs\libsd1.a(sd_host_app_cmd.o)
 .debug_abbrev  0x0000d3cd       0x6c ..\..\..\libs\libsd1.a(sd_host_send_op_cond.o)
 .debug_abbrev  0x0000d439      0x462 ..\..\..\libs\lib_imb.a(imb_module.o)
 .debug_abbrev  0x0000d89b       0xd2 ..\..\..\libs\lib_imb.a(cve_cfg.o)
 .debug_abbrev  0x0000d96d      0x1dd ..\..\..\libs\lib_imb.a(imb_isr.o)
 .debug_abbrev  0x0000db4a      0x45c ..\..\..\libs\lib_vm.a(vm.o)
 .debug_abbrev  0x0000dfa6      0x243 ..\..\..\libs\lib_font.a(font_other_language.o)
 .debug_abbrev  0x0000e1e9      0x1d9 ..\..\..\libs\lib_font.a(font_out.o)
 .debug_abbrev  0x0000e3c2      0x1c3 ..\..\..\libs\lib_font.a(font_sjis.o)
 .debug_abbrev  0x0000e585      0x105 ..\..\..\libs\lib_font.a(font_area_ctl.o)
 .debug_abbrev  0x0000e68a      0x143 ..\..\..\libs\lib_font.a(font_ascii.o)
 .debug_abbrev  0x0000e7cd      0x1e5 ..\..\..\libs\lib_font.a(font_big5.o)
 .debug_abbrev  0x0000e9b2      0x232 ..\..\..\libs\lib_font.a(font_gbk.o)
 .debug_abbrev  0x0000ebe4      0x1ce ..\..\..\libs\lib_font.a(font_ksc.o)
 .debug_abbrev  0x0000edb2      0x37a ..\..\..\libs\lib_uicon.a(dc_showres.o)
 .debug_abbrev  0x0000f12c      0x17c ..\..\..\libs\lib_uicon.a(ui_get_info.o)
 .debug_abbrev  0x0000f2a8      0x129 ..\..\..\libs\lib_uicon.a(ui_init.o)
 .debug_abbrev  0x0000f3d1      0x270 ..\..\..\libs\lib_uicon.a(ui_layer.o)
 .debug_abbrev  0x0000f641      0x1aa ..\..\..\libs\lib_uicon.a(ui_menu.o)
 .debug_abbrev  0x0000f7eb      0x247 ..\..\..\libs\lib_uicon.a(ui_menub.o)
 .debug_abbrev  0x0000fa32      0x1de ..\..\..\libs\lib_uicon.a(ui_number.o)
 .debug_abbrev  0x0000fc10      0x15f ..\..\..\libs\lib_uicon.a(ui_pic.o)
 .debug_abbrev  0x0000fd6f       0xd0 ..\..\..\libs\lib_uicon.a(ui_sdfs.o)
 .debug_abbrev  0x0000fe3f      0x353 ..\..\..\libs\lib_uicon.a(ui_text.o)
 .debug_abbrev  0x00010192      0x1a0 ..\..\..\libs\lib_uicon.a(ui_time.o)
 .debug_abbrev  0x00010332      0x17f ..\..\..\libs\lib_uicon.a(ui_time1.o)
 .debug_abbrev  0x000104b1      0x455 ..\..\..\libs\lib_drv_lib.a(drv_manage.o)
 .debug_abbrev  0x00010906      0x196 ..\..\..\libs\lib_dsc_ram.a(dsc_ram.o)
 .debug_abbrev  0x00010a9c      0x268 ..\..\..\libs\lib_vedio_ram.a(yuv_ram.o)
 .debug_abbrev  0x00010d04      0x3a2 ..\..\..\libs\lib_vfs.a(vfs.o)
 .debug_abbrev  0x000110a6      0x14a ..\..\..\libs\lib_vfs.a(vfs_init.o)
 .debug_abbrev  0x000111f0      0x2e4 ..\..\..\libs\lib_vfs.a(GenfsInc.o)
 .debug_abbrev  0x000114d4      0x3a5 ..\..\..\libs\lib_vfs.a(ff.o)
 .debug_abbrev  0x00011879      0x15d ..\..\..\libs\lib_vfs.a(dev_Mount.o)
 .debug_abbrev  0x000119d6      0x145 ..\..\..\libs\lib_vfs.a(dev_cache_alloc.o)
 .debug_abbrev  0x00011b1b      0x10c ..\..\..\libs\lib_vfs.a(dev_cache_flush.o)
 .debug_abbrev  0x00011c27      0x147 ..\..\..\libs\lib_vfs.a(dev_cache_read_only.o)
 .debug_abbrev  0x00011d6e      0x166 ..\..\..\libs\lib_vfs.a(dev_cache_write_dev.o)
 .debug_abbrev  0x00011ed4       0x6e ..\..\..\libs\lib_vfs.a(fs_api.o)
 .debug_abbrev  0x00011f42       0xae ..\..\..\libs\lib_vfs.a(dev_Cache.o)
 .debug_abbrev  0x00011ff0       0xbb ..\..\..\libs\libhwi.a(cache.o)
 .debug_abbrev  0x000120ab      0x219 ..\..\..\libs\libhwi.a(HWI.o)
 .debug_abbrev  0x000122c4      0x1ea ..\..\..\libs\libspi0flash.a(mango_dev_spi0flash.o)
 .debug_abbrev  0x000124ae      0x298 ..\..\..\libs\libspi0flash.a(spi0flash.o)
 .debug_abbrev  0x00012746      0x22d ..\..\..\libs\libspi0.a(spi0.o)
 .debug_abbrev  0x00012973      0x207 ..\..\..\libs\lib_audio.a(ladc.o)
 .debug_abbrev  0x00012b7a      0x168 ..\..\..\libs\lib_audio.a(audio.o)
 .debug_abbrev  0x00012ce2      0x17c ..\..\..\libs\lib_audio.a(dac.o)
 .debug_abbrev  0x00012e5e      0x317 ..\..\..\libs\lib_usb_slave.a(usb_slave_main.o)
 .debug_abbrev  0x00013175      0x3d5 ..\..\..\libs\lib_usb_slave.a(msd2video_ctrl.o)
 .debug_abbrev  0x0001354a      0x2e9 ..\..\..\libs\lib_usb_slave.a(msd_dev_update.o)
 .debug_abbrev  0x00013833      0x41d ..\..\..\libs\lib_usb_slave.a(msd_main.o)
 .debug_abbrev  0x00013c50      0x2f3 ..\..\..\libs\lib_usb_slave.a(video_main.o)
 .debug_abbrev  0x00013f43      0x199 ..\..\..\libs\lib_usb_slave.a(audio_main.o)
 .debug_abbrev  0x000140dc      0x204 ..\..\..\libs\lib_usb_slave.a(core_descriptor.o)
 .debug_abbrev  0x000142e0      0x1b6 ..\..\..\libs\lib_usb_slave.a(usb_phy.o)
 .debug_abbrev  0x00014496      0x2d2 ..\..\..\libs\lib_usb_slave.a(usb_setup.o)
 .debug_abbrev  0x00014768       0x61 ..\..\..\libs\lib_usb_slave.a(msd_descriptor.o)
 .debug_abbrev  0x000147c9       0xa1 ..\..\..\libs\lib_usb_slave.a(video_descriptor.o)
 .debug_abbrev  0x0001486a       0xad ..\..\..\libs\lib_usb_slave.a(audio_descriptor.o)
 .debug_abbrev  0x00014917      0x2b3 ..\..\..\libs\librtos.a(os_core.o)
 .debug_abbrev  0x00014bca      0x189 ..\..\..\libs\librtos.a(os_mutex.o)
 .debug_abbrev  0x00014d53      0x1fd ..\..\..\libs\librtos.a(os_sem.o)
 .debug_abbrev  0x00014f50      0x35f ..\..\..\libs\librtos.a(os_task.o)
 .debug_abbrev  0x000152af      0x185 ..\..\..\libs\librtos.a(os_time.o)
 .debug_abbrev  0x00015434      0x28a ..\..\..\libs\librtos.a(os_api.o)
 .debug_abbrev  0x000156be       0x14 ..\..\..\libs\librtos.a(os_cpu.o)
 .debug_abbrev  0x000156d2      0x167 ..\..\..\libs\librtos.a(os_cpu_c.o)
 .debug_abbrev  0x00015839      0x1bc ..\..\..\libs\lib_common.a(time.o)
 .debug_abbrev  0x000159f5      0x2db ..\..\..\libs\lib_common.a(Vsnprintf.o)
 .debug_abbrev  0x00015cd0       0x71 C:\JL\dv12\lib\libc.a(lib_a-isalnum.o)
 .debug_abbrev  0x00015d41       0x7a C:\JL\dv12\lib\libc.a(lib_a-memcmp.o)
 .debug_abbrev  0x00015dbb       0xa6 C:\JL\dv12\lib\libc.a(lib_a-memcpy.o)
 .debug_abbrev  0x00015e61       0xa6 C:\JL\dv12\lib\libc.a(lib_a-memmove.o)
 .debug_abbrev  0x00015f07       0xa9 C:\JL\dv12\lib\libc.a(lib_a-memset.o)
 .debug_abbrev  0x00015fb0       0x87 C:\JL\dv12\lib\libc.a(lib_a-strcat.o)
 .debug_abbrev  0x00016037       0x6f C:\JL\dv12\lib\libc.a(lib_a-strcmp.o)
 .debug_abbrev  0x000160a6       0x7e C:\JL\dv12\lib\libc.a(lib_a-strcpy.o)
 .debug_abbrev  0x00016124       0x7c C:\JL\dv12\lib\libc.a(lib_a-strlen.o)
 .debug_abbrev  0x000161a0       0x7c C:\JL\dv12\lib\libc.a(lib_a-strncmp.o)
 .debug_abbrev  0x0001621c       0x9a C:\JL\dv12\lib\libc.a(lib_a-strncpy.o)
 .debug_abbrev  0x000162b6       0x7a C:\JL\dv12\lib\libc.a(lib_a-strnlen.o)
 .debug_abbrev  0x00016330       0x5f C:\JL\dv12\lib\libc.a(lib_a-ctype_.o)
 .debug_abbrev  0x0001638f       0x14 C:\JL\dv12\lib\libgcc.a(_umodsi3.o)
 .debug_abbrev  0x000163a3       0x14 C:\JL\dv12\lib\libgcc.a(_modsi3.o)
 .debug_abbrev  0x000163b7       0x14 C:\JL\dv12\lib\libgcc.a(_muldi3.o)
 .debug_abbrev  0x000163cb       0x14 C:\JL\dv12\lib\libgcc.a(_umulsi3_highpart.o)
 .debug_abbrev  0x000163df       0xfd C:\JL\dv12\lib\libgcc.a(_lshrdi3.o)
 .debug_abbrev  0x000164dc      0x19c C:\JL\dv12\lib\libgcc.a(_divdi3.o)
 .debug_abbrev  0x00016678      0x11b C:\JL\dv12\lib\libgcc.a(divsf3.o)
 .debug_abbrev  0x00016793      0x116 C:\JL\dv12\lib\libgcc.a(fixunssfsi.o)
 .debug_abbrev  0x000168a9      0x114 C:\JL\dv12\lib\libgcc.a(floatunsisf.o)
 .debug_abbrev  0x000169bd       0x61 C:\JL\dv12\lib\libgcc.a(_clz.o)
 .debug_abbrev  0x00016a1e       0xbd C:\JL\dv12\lib\libgcc.a(_clzsi2.o)

.debug_info     0x00000000    0x8271f
 .debug_info    0x00000000     0x20bb obj\Debug\\code\FileSelecter\FileSelecter.o
 .debug_info    0x000020bb     0x1573 obj\Debug\\code\FileSelecter\pb_fctrl.o
 .debug_info    0x0000362e      0x9d9 obj\Debug\\code\Peripherals\G_Sensor\GMA301.o
 .debug_info    0x00004007      0x937 obj\Debug\\code\Peripherals\G_Sensor\da380.o
 .debug_info    0x0000493e      0x49f obj\Debug\\code\Peripherals\G_Sensor\gravity_sensor_api.o
 .debug_info    0x00004ddd      0xb30 obj\Debug\\code\Peripherals\G_Sensor\gravity_sensor_manage.o
 .debug_info    0x0000590d      0x180 obj\Debug\\code\Peripherals\G_Sensor\i2c.o
 .debug_info    0x00005a8d      0x319 obj\Debug\\code\Peripherals\G_Sensor\parking_guard.o
 .debug_info    0x00005da6      0xa67 obj\Debug\\code\Peripherals\G_Sensor\stk8312.o
 .debug_info    0x0000680d      0xb82 obj\Debug\\code\Peripherals\clock.o
 .debug_info    0x0000738f      0x4e2 obj\Debug\\code\Peripherals\timer.o
 .debug_info    0x00007871      0x796 obj\Debug\\code\Peripherals\uart.o
 .debug_info    0x00008007      0x8c4 obj\Debug\\code\Peripherals\user_isp_cfg.o
 .debug_info    0x000088cb       0xd7 obj\Debug\\code\Peripherals\wdt.o
 .debug_info    0x000089a2      0xf42 obj\Debug\\code\StorDev\dev_ctrl.o
 .debug_info    0x000098e4     0x1c4f obj\Debug\\code\common\audio_api.o
 .debug_info    0x0000b533      0x3ab obj\Debug\\code\common\common.o
 .debug_info    0x0000b8de       0x88 obj\Debug\\code\common\fcvt.o
 .debug_info    0x0000b966      0x53e obj\Debug\\code\common\printf-stdarg.o
 .debug_info    0x0000bea4      0x7ad obj\Debug\\code\common\vm_api.o
 .debug_info    0x0000c651      0x926 obj\Debug\\code\disp_ctrl\lcd.o
 .debug_info    0x0000cf77     0x3bf4 obj\Debug\\code\disp_ctrl\my_ui1.o
 .debug_info    0x00010b6b     0x3bf4 obj\Debug\\code\disp_ctrl\ui_task.o
 .debug_info    0x0001475f       0x7c obj\Debug\\code\infoNES\NES_GAME\ddl.o
 .debug_info    0x000147db       0x7c obj\Debug\\code\infoNES\NES_GAME\fj.o
 .debug_info    0x00014857       0x7c obj\Debug\\code\infoNES\NES_GAME\gef.o
 .debug_info    0x000148d3      0x10f obj\Debug\\code\infoNES\infoNES_PORT\nes_port.o
 .debug_info    0x000149e2      0xeb7 obj\Debug\\code\infoNES\infoNES_SRC\src\InfoNES.o
 .debug_info    0x00015899     0x7c1c obj\Debug\\code\infoNES\infoNES_SRC\src\InfoNES_Mapper.o
 .debug_info    0x0001d4b5     0x18bd obj\Debug\\code\infoNES\infoNES_SRC\src\InfoNES_pAPU.o
 .debug_info    0x0001ed72      0xe6f obj\Debug\\code\infoNES\infoNES_SRC\src\K6502.o
 .debug_info    0x0001fbe1      0xa43 obj\Debug\\code\infoNES\infoNES_System\InfoNES_System.o
 .debug_info    0x00020624      0x121 obj\Debug\\code\key\adc_scan.o
 .debug_info    0x00020745      0x424 obj\Debug\\code\key\key_drv_ad.o
 .debug_info    0x00020b69      0x689 obj\Debug\\code\key\key_drv_manager.o
 .debug_info    0x000211f2      0x1dd obj\Debug\\code\key\powercheck.o
 .debug_info    0x000213cf     0x10bc obj\Debug\\code\start\car_fs_api.o
 .debug_info    0x0002248b     0x2539 obj\Debug\\code\start\dec_mode.o
 .debug_info    0x000249c4     0x2f72 obj\Debug\\code\start\enc_mode.o
 .debug_info    0x00027936     0x2525 obj\Debug\\code\start\main.o
 .debug_info    0x00029e5b     0x201d obj\Debug\\code\start\mode_switch.o
 .debug_info    0x0002be78     0x16aa obj\Debug\\code\start\pwr_onoff.o
 .debug_info    0x0002d522       0x72 obj\Debug\\code\start\reg.o
 .debug_info    0x0002d594       0x76 obj\Debug\\code\start\startup.o
 .debug_info    0x0002d60a     0x2606 obj\Debug\\code\start\usb_mode.o
 .debug_info    0x0002fc10       0x57 obj\Debug\\code\tft_panel\ILI8960.o
 .debug_info    0x0002fc67       0x57 obj\Debug\\code\tft_panel\ILI8961.o
 .debug_info    0x0002fcbe       0x57 obj\Debug\\code\tft_panel\ILI9163.o
 .debug_info    0x0002fd15      0x9fd obj\Debug\\code\tft_panel\ILI9325.o
 .debug_info    0x00030712       0x50 obj\Debug\\code\tft_panel\LCD_RM68116.o
 .debug_info    0x00030762       0x57 obj\Debug\\code\tft_panel\LQ026B3UX01.o
 .debug_info    0x000307b9       0x57 obj\Debug\\code\tft_panel\SSD1963.o
 .debug_info    0x00030810       0x57 obj\Debug\\code\tft_panel\ST7735S.o
 .debug_info    0x00030867       0x57 obj\Debug\\code\tft_panel\T15P00.o
 .debug_info    0x000308be      0x6e8 obj\Debug\\code\tft_panel\avout.o
 .debug_info    0x00030fa6       0x57 obj\Debug\\code\tft_panel\disp_43inch.o
 .debug_info    0x00030ffd       0x57 obj\Debug\\code\tft_panel\disp_8inch.o
 .debug_info    0x00031054       0x57 obj\Debug\\code\tft_panel\disp_JC4301.o
 .debug_info    0x000310ab      0x15e obj\Debug\\code\tft_panel\pap.o
 .debug_info    0x00031209     0x1974 obj\Debug\\code\upgrade\upgrade.o
 .debug_info    0x00032b7d     0x21cb ..\..\..\libs\lib_vds.a(vds.o)
 .debug_info    0x00034d48     0x1abd ..\..\..\libs\lib_vds.a(jpeg_dec_ctl.o)
 .debug_info    0x00036805     0x2d20 ..\..\..\libs\lib_vds.a(jpeg_dec_unpkg.o)
 .debug_info    0x00039525     0x3975 ..\..\..\libs\lib_ves.a(ves.o)
 .debug_info    0x0003ce9a     0x19a6 ..\..\..\libs\lib_ves.a(avi_pkg_ctrl.o)
 .debug_info    0x0003e840     0x10c4 ..\..\..\libs\lib_ves.a(jpeg_enc_ctrl.o)
 .debug_info    0x0003f904     0x11a5 ..\..\..\libs\lib_ves.a(jpeg_pkg_ctrl.o)
 .debug_info    0x00040aa9      0x4a9 ..\..\..\libs\lib_jpeg_dec.a(jpeg_dec_if.o)
 .debug_info    0x00040f52      0xc70 ..\..\..\libs\lib_jpeg_dec.a(jpeg_dec_isr.o)
 .debug_info    0x00041bc2     0x11ed ..\..\..\libs\lib_jpeg_dec.a(jpeg_decode.o)
 .debug_info    0x00042daf      0xf31 ..\..\..\libs\lib_jpeg_dec.a(jpeg_dec_head.o)
 .debug_info    0x00043ce0     0x1178 ..\..\..\libs\lib_jpeg_enc.a(jpeg_enc_if.o)
 .debug_info    0x00044e58      0xc7d ..\..\..\libs\lib_jpeg_enc.a(jpeg_encode.o)
 .debug_info    0x00045ad5      0xdb8 ..\..\..\libs\lib_jpeg_enc.a(jpeg_encode_init.o)
 .debug_info    0x0004688d     0x1029 ..\..\..\libs\lib_jpeg_enc.a(jpeg_encode_isr.o)
 .debug_info    0x000478b6     0x17b5 ..\..\..\libs\lib_jpeg_enc.a(Build_dynamic_huffman.o)
 .debug_info    0x0004906b      0x24c ..\..\..\libs\lib_jpeg_enc.a(jpeg_abr.o)
 .debug_info    0x000492b7      0xbfc ..\..\..\libs\lib_avi_pkg.a(avi_pkg_if.o)
 .debug_info    0x00049eb3      0xeb9 ..\..\..\libs\lib_avi_pkg.a(avi_pkg_dev.o)
 .debug_info    0x0004ad6c     0x18e5 ..\..\..\libs\lib_avi_pkg.a(avi_pkg.o)
 .debug_info    0x0004c651      0x5a6 ..\..\..\libs\lib_avi_pkg.a(avi_pkg_head.o)
 .debug_info    0x0004cbf7     0x15b3 ..\..\..\libs\lib_avi_pkg.a(avi_pkg_idx.o)
 .debug_info    0x0004e1aa      0x915 ..\..\..\libs\lib_malloc.a(mem_heap.o)
 .debug_info    0x0004eabf      0xe09 ..\..\..\libs\libsd1.a(mango_dev_sd1.o)
 .debug_info    0x0004f8c8      0x3b1 ..\..\..\libs\libsd1.a(sd_host_init.o)
 .debug_info    0x0004fc79      0x374 ..\..\..\libs\libsd1.a(sd_host_read_end.o)
 .debug_info    0x0004ffed      0x2d7 ..\..\..\libs\libsd1.a(sd_host_unmount.o)
 .debug_info    0x000502c4      0x391 ..\..\..\libs\libsd1.a(sd_host_write_end.o)
 .debug_info    0x00050655      0x55a ..\..\..\libs\libsd1.a(sdmmc_init.o)
 .debug_info    0x00050baf      0x2bc ..\..\..\libs\libsd1.a(suspend_sdmmc.o)
 .debug_info    0x00050e6b      0x269 ..\..\..\libs\libsd1.a(sd_host_send_csd.o)
 .debug_info    0x000510d4      0x2d3 ..\..\..\libs\libsd1.a(sd_host_stop_trans.o)
 .debug_info    0x000513a7      0x407 ..\..\..\libs\libsd1.a(sd_host_hw.o)
 .debug_info    0x000517ae      0x359 ..\..\..\libs\libsd1.a(sd_wait_idle.o)
 .debug_info    0x00051b07      0x50f ..\..\..\libs\libsd1.a(sdmmc_det.o)
 .debug_info    0x00052016      0x856 ..\..\..\libs\libsd1.a(sd_host_reg.o)
 .debug_info    0x0005286c      0x2d9 ..\..\..\libs\libsd1.a(sd_send_command.o)
 .debug_info    0x00052b45      0x29a ..\..\..\libs\libsd1.a(sd_host_status.o)
 .debug_info    0x00052ddf      0x100 ..\..\..\libs\libsd1.a(sd_host_args.o)
 .debug_info    0x00052edf      0x387 ..\..\..\libs\libsd1.a(sd_host_mount.o)
 .debug_info    0x00053266      0x422 ..\..\..\libs\libsd1.a(sd_host_read.o)
 .debug_info    0x00053688      0x347 ..\..\..\libs\libsd1.a(sd_host_timeout.o)
 .debug_info    0x000539cf      0x422 ..\..\..\libs\libsd1.a(sd_host_write.o)
 .debug_info    0x00053df1      0x32b ..\..\..\libs\libsd1.a(sd_init.o)
 .debug_info    0x0005411c      0x4e2 ..\..\..\libs\libsd1.a(sdmmc_host_set_bus_width.o)
 .debug_info    0x000545fe      0x3a1 ..\..\..\libs\libsd1.a(sdmmc_host_set_hispeed.o)
 .debug_info    0x0005499f      0x1e4 ..\..\..\libs\libsd1.a(mmc_host_send_rca.o)
 .debug_info    0x00054b83      0x1f7 ..\..\..\libs\libsd1.a(mmc_host_set_bus_width.o)
 .debug_info    0x00054d7a      0x1f7 ..\..\..\libs\libsd1.a(mmc_host_set_hispeed.o)
 .debug_info    0x00054f71       0x79 ..\..\..\libs\libsd1.a(sd_host_all_send_cid.o)
 .debug_info    0x00054fea       0x79 ..\..\..\libs\libsd1.a(sd_host_reset.o)
 .debug_info    0x00055063      0x342 ..\..\..\libs\libsd1.a(sd_host_sd_status.o)
 .debug_info    0x000553a5       0x79 ..\..\..\libs\libsd1.a(sd_host_send_if_cond.o)
 .debug_info    0x0005541e      0x1f7 ..\..\..\libs\libsd1.a(sd_host_send_rca.o)
 .debug_info    0x00055615       0x99 ..\..\..\libs\libsd1.a(sd_host_set_bus_width.o)
 .debug_info    0x000556ae      0x277 ..\..\..\libs\libsd1.a(sd_host_set_hispeed.o)
 .debug_info    0x00055925       0xf5 ..\..\..\libs\libsd1.a(sd_host_switch_func.o)
 .debug_info    0x00055a1a      0x1f8 ..\..\..\libs\libsd1.a(sd_select_card.o)
 .debug_info    0x00055c12      0x273 ..\..\..\libs\libsd1.a(sd_send_scr.o)
 .debug_info    0x00055e85      0x2fa ..\..\..\libs\libsd1.a(sd_chk_ctl.o)
 .debug_info    0x0005617f      0x24a ..\..\..\libs\libsd1.a(sd_read_start.o)
 .debug_info    0x000563c9      0x24a ..\..\..\libs\libsd1.a(sd_write_start.o)
 .debug_info    0x00056613      0x304 ..\..\..\libs\libsd1.a(sd_host_identification.o)
 .debug_info    0x00056917       0x79 ..\..\..\libs\libsd1.a(mmc_host_send_op_cond.o)
 .debug_info    0x00056990      0x1e4 ..\..\..\libs\libsd1.a(sd_host_app_cmd.o)
 .debug_info    0x00056b74       0xb3 ..\..\..\libs\libsd1.a(sd_host_send_op_cond.o)
 .debug_info    0x00056c27     0x1508 ..\..\..\libs\lib_imb.a(imb_module.o)
 .debug_info    0x0005812f      0x154 ..\..\..\libs\lib_imb.a(cve_cfg.o)
 .debug_info    0x00058283      0xa17 ..\..\..\libs\lib_imb.a(imb_isr.o)
 .debug_info    0x00058c9a     0x1404 ..\..\..\libs\lib_vm.a(vm.o)
 .debug_info    0x0005a09e      0x88d ..\..\..\libs\lib_font.a(font_other_language.o)
 .debug_info    0x0005a92b      0x67c ..\..\..\libs\lib_font.a(font_out.o)
 .debug_info    0x0005afa7      0x734 ..\..\..\libs\lib_font.a(font_sjis.o)
 .debug_info    0x0005b6db      0x1c9 ..\..\..\libs\lib_font.a(font_area_ctl.o)
 .debug_info    0x0005b8a4      0x294 ..\..\..\libs\lib_font.a(font_ascii.o)
 .debug_info    0x0005bb38      0x670 ..\..\..\libs\lib_font.a(font_big5.o)
 .debug_info    0x0005c1a8      0x84c ..\..\..\libs\lib_font.a(font_gbk.o)
 .debug_info    0x0005c9f4      0x675 ..\..\..\libs\lib_font.a(font_ksc.o)
 .debug_info    0x0005d069     0x1824 ..\..\..\libs\lib_uicon.a(dc_showres.o)
 .debug_info    0x0005e88d      0xa5a ..\..\..\libs\lib_uicon.a(ui_get_info.o)
 .debug_info    0x0005f2e7      0x1f4 ..\..\..\libs\lib_uicon.a(ui_init.o)
 .debug_info    0x0005f4db      0xd36 ..\..\..\libs\lib_uicon.a(ui_layer.o)
 .debug_info    0x00060211      0x44b ..\..\..\libs\lib_uicon.a(ui_menu.o)
 .debug_info    0x0006065c      0xb05 ..\..\..\libs\lib_uicon.a(ui_menub.o)
 .debug_info    0x00061161      0x3ce ..\..\..\libs\lib_uicon.a(ui_number.o)
 .debug_info    0x0006152f      0x46e ..\..\..\libs\lib_uicon.a(ui_pic.o)
 .debug_info    0x0006199d      0x1b4 ..\..\..\libs\lib_uicon.a(ui_sdfs.o)
 .debug_info    0x00061b51      0xe83 ..\..\..\libs\lib_uicon.a(ui_text.o)
 .debug_info    0x000629d4      0x3f7 ..\..\..\libs\lib_uicon.a(ui_time.o)
 .debug_info    0x00062dcb      0x417 ..\..\..\libs\lib_uicon.a(ui_time1.o)
 .debug_info    0x000631e2     0x1e91 ..\..\..\libs\lib_drv_lib.a(drv_manage.o)
 .debug_info    0x00065073      0x48f ..\..\..\libs\lib_dsc_ram.a(dsc_ram.o)
 .debug_info    0x00065502      0x5f3 ..\..\..\libs\lib_vedio_ram.a(yuv_ram.o)
 .debug_info    0x00065af5     0x29ed ..\..\..\libs\lib_vfs.a(vfs.o)
 .debug_info    0x000684e2      0x735 ..\..\..\libs\lib_vfs.a(vfs_init.o)
 .debug_info    0x00068c17     0x1715 ..\..\..\libs\lib_vfs.a(GenfsInc.o)
 .debug_info    0x0006a32c     0x257a ..\..\..\libs\lib_vfs.a(ff.o)
 .debug_info    0x0006c8a6      0x41e ..\..\..\libs\lib_vfs.a(dev_Mount.o)
 .debug_info    0x0006ccc4      0x332 ..\..\..\libs\lib_vfs.a(dev_cache_alloc.o)
 .debug_info    0x0006cff6      0x20f ..\..\..\libs\lib_vfs.a(dev_cache_flush.o)
 .debug_info    0x0006d205      0x332 ..\..\..\libs\lib_vfs.a(dev_cache_read_only.o)
 .debug_info    0x0006d537      0x304 ..\..\..\libs\lib_vfs.a(dev_cache_write_dev.o)
 .debug_info    0x0006d83b       0xa2 ..\..\..\libs\lib_vfs.a(fs_api.o)
 .debug_info    0x0006d8dd      0x107 ..\..\..\libs\lib_vfs.a(dev_Cache.o)
 .debug_info    0x0006d9e4      0x190 ..\..\..\libs\libhwi.a(cache.o)
 .debug_info    0x0006db74      0x428 ..\..\..\libs\libhwi.a(HWI.o)
 .debug_info    0x0006df9c      0x6ac ..\..\..\libs\libspi0flash.a(mango_dev_spi0flash.o)
 .debug_info    0x0006e648      0x8b0 ..\..\..\libs\libspi0flash.a(spi0flash.o)
 .debug_info    0x0006eef8      0x676 ..\..\..\libs\libspi0.a(spi0.o)
 .debug_info    0x0006f56e      0x567 ..\..\..\libs\lib_audio.a(ladc.o)
 .debug_info    0x0006fad5      0x3ce ..\..\..\libs\lib_audio.a(audio.o)
 .debug_info    0x0006fea3      0x2b6 ..\..\..\libs\lib_audio.a(dac.o)
 .debug_info    0x00070159     0x125a ..\..\..\libs\lib_usb_slave.a(usb_slave_main.o)
 .debug_info    0x000713b3     0x19b3 ..\..\..\libs\lib_usb_slave.a(msd2video_ctrl.o)
 .debug_info    0x00072d66     0x15e0 ..\..\..\libs\lib_usb_slave.a(msd_dev_update.o)
 .debug_info    0x00074346     0x1d13 ..\..\..\libs\lib_usb_slave.a(msd_main.o)
 .debug_info    0x00076059     0x1a6a ..\..\..\libs\lib_usb_slave.a(video_main.o)
 .debug_info    0x00077ac3      0x941 ..\..\..\libs\lib_usb_slave.a(audio_main.o)
 .debug_info    0x00078404     0x10dd ..\..\..\libs\lib_usb_slave.a(core_descriptor.o)
 .debug_info    0x000794e1      0xe5c ..\..\..\libs\lib_usb_slave.a(usb_phy.o)
 .debug_info    0x0007a33d     0x15f5 ..\..\..\libs\lib_usb_slave.a(usb_setup.o)
 .debug_info    0x0007b932       0x93 ..\..\..\libs\lib_usb_slave.a(msd_descriptor.o)
 .debug_info    0x0007b9c5      0x137 ..\..\..\libs\lib_usb_slave.a(video_descriptor.o)
 .debug_info    0x0007bafc      0x1a1 ..\..\..\libs\lib_usb_slave.a(audio_descriptor.o)
 .debug_info    0x0007bc9d      0xac0 ..\..\..\libs\librtos.a(os_core.o)
 .debug_info    0x0007c75d      0x661 ..\..\..\libs\librtos.a(os_mutex.o)
 .debug_info    0x0007cdbe      0x67f ..\..\..\libs\librtos.a(os_sem.o)
 .debug_info    0x0007d43d     0x10b0 ..\..\..\libs\librtos.a(os_task.o)
 .debug_info    0x0007e4ed      0x568 ..\..\..\libs\librtos.a(os_time.o)
 .debug_info    0x0007ea55      0x861 ..\..\..\libs\librtos.a(os_api.o)
 .debug_info    0x0007f2b6       0x77 ..\..\..\libs\librtos.a(os_cpu.o)
 .debug_info    0x0007f32d      0x1ea ..\..\..\libs\librtos.a(os_cpu_c.o)
 .debug_info    0x0007f517      0x5aa ..\..\..\libs\lib_common.a(time.o)
 .debug_info    0x0007fac1      0xcaf ..\..\..\libs\lib_common.a(Vsnprintf.o)
 .debug_info    0x00080770       0x80 C:\JL\dv12\lib\libc.a(lib_a-isalnum.o)
 .debug_info    0x000807f0      0x10c C:\JL\dv12\lib\libc.a(lib_a-memcmp.o)
 .debug_info    0x000808fc      0x12a C:\JL\dv12\lib\libc.a(lib_a-memcpy.o)
 .debug_info    0x00080a26      0x12a C:\JL\dv12\lib\libc.a(lib_a-memmove.o)
 .debug_info    0x00080b50      0x111 C:\JL\dv12\lib\libc.a(lib_a-memset.o)
 .debug_info    0x00080c61       0xe6 C:\JL\dv12\lib\libc.a(lib_a-strcat.o)
 .debug_info    0x00080d47       0xd6 C:\JL\dv12\lib\libc.a(lib_a-strcmp.o)
 .debug_info    0x00080e1d      0x109 C:\JL\dv12\lib\libc.a(lib_a-strcpy.o)
 .debug_info    0x00080f26       0xd6 C:\JL\dv12\lib\libc.a(lib_a-strlen.o)
 .debug_info    0x00080ffc       0xee C:\JL\dv12\lib\libc.a(lib_a-strncmp.o)
 .debug_info    0x000810ea      0x11d C:\JL\dv12\lib\libc.a(lib_a-strncpy.o)
 .debug_info    0x00081207       0xca C:\JL\dv12\lib\libc.a(lib_a-strnlen.o)
 .debug_info    0x000812d1       0x9c C:\JL\dv12\lib\libc.a(lib_a-ctype_.o)
 .debug_info    0x0008136d       0xbb C:\JL\dv12\lib\libgcc.a(_umodsi3.o)
 .debug_info    0x00081428       0xbb C:\JL\dv12\lib\libgcc.a(_modsi3.o)
 .debug_info    0x000814e3       0xbb C:\JL\dv12\lib\libgcc.a(_muldi3.o)
 .debug_info    0x0008159e       0xbb C:\JL\dv12\lib\libgcc.a(_umulsi3_highpart.o)
 .debug_info    0x00081659      0x191 C:\JL\dv12\lib\libgcc.a(_lshrdi3.o)
 .debug_info    0x000817ea      0x767 C:\JL\dv12\lib\libgcc.a(_divdi3.o)
 .debug_info    0x00081f51      0x2a8 C:\JL\dv12\lib\libgcc.a(divsf3.o)
 .debug_info    0x000821f9      0x187 C:\JL\dv12\lib\libgcc.a(fixunssfsi.o)
 .debug_info    0x00082380      0x1ab C:\JL\dv12\lib\libgcc.a(floatunsisf.o)
 .debug_info    0x0008252b       0xbb C:\JL\dv12\lib\libgcc.a(_clz.o)
 .debug_info    0x000825e6      0x139 C:\JL\dv12\lib\libgcc.a(_clzsi2.o)

.debug_line     0x00000000    0x1de8c
 .debug_line    0x00000000      0x5c0 obj\Debug\\code\FileSelecter\FileSelecter.o
 .debug_line    0x000005c0      0x39b obj\Debug\\code\FileSelecter\pb_fctrl.o
 .debug_line    0x0000095b      0x288 obj\Debug\\code\Peripherals\G_Sensor\GMA301.o
 .debug_line    0x00000be3      0x201 obj\Debug\\code\Peripherals\G_Sensor\da380.o
 .debug_line    0x00000de4      0x111 obj\Debug\\code\Peripherals\G_Sensor\gravity_sensor_api.o
 .debug_line    0x00000ef5      0x272 obj\Debug\\code\Peripherals\G_Sensor\gravity_sensor_manage.o
 .debug_line    0x00001167      0x124 obj\Debug\\code\Peripherals\G_Sensor\i2c.o
 .debug_line    0x0000128b       0xee obj\Debug\\code\Peripherals\G_Sensor\parking_guard.o
 .debug_line    0x00001379      0x1fa obj\Debug\\code\Peripherals\G_Sensor\stk8312.o
 .debug_line    0x00001573      0x34c obj\Debug\\code\Peripherals\clock.o
 .debug_line    0x000018bf      0x145 obj\Debug\\code\Peripherals\timer.o
 .debug_line    0x00001a04       0xdd obj\Debug\\code\Peripherals\uart.o
 .debug_line    0x00001ae1      0x161 obj\Debug\\code\Peripherals\user_isp_cfg.o
 .debug_line    0x00001c42       0x8c obj\Debug\\code\Peripherals\wdt.o
 .debug_line    0x00001cce      0x1c3 obj\Debug\\code\StorDev\dev_ctrl.o
 .debug_line    0x00001e91      0x294 obj\Debug\\code\common\audio_api.o
 .debug_line    0x00002125      0x12f obj\Debug\\code\common\common.o
 .debug_line    0x00002254       0x1d obj\Debug\\code\common\fcvt.o
 .debug_line    0x00002271      0x215 obj\Debug\\code\common\printf-stdarg.o
 .debug_line    0x00002486      0x173 obj\Debug\\code\common\vm_api.o
 .debug_line    0x000025f9      0x130 obj\Debug\\code\disp_ctrl\lcd.o
 .debug_line    0x00002729      0x8b8 obj\Debug\\code\disp_ctrl\my_ui1.o
 .debug_line    0x00002fe1      0xb51 obj\Debug\\code\disp_ctrl\ui_task.o
 .debug_line    0x00003b32       0x3f obj\Debug\\code\infoNES\NES_GAME\ddl.o
 .debug_line    0x00003b71       0x3e obj\Debug\\code\infoNES\NES_GAME\fj.o
 .debug_line    0x00003baf       0x3f obj\Debug\\code\infoNES\NES_GAME\gef.o
 .debug_line    0x00003bee       0x82 obj\Debug\\code\infoNES\infoNES_PORT\nes_port.o
 .debug_line    0x00003c70      0x5bc obj\Debug\\code\infoNES\infoNES_SRC\src\InfoNES.o
 .debug_line    0x0000422c     0x5643 obj\Debug\\code\infoNES\infoNES_SRC\src\InfoNES_Mapper.o
 .debug_line    0x0000986f      0x5cf obj\Debug\\code\infoNES\infoNES_SRC\src\InfoNES_pAPU.o
 .debug_line    0x00009e3e      0x936 obj\Debug\\code\infoNES\infoNES_SRC\src\K6502.o
 .debug_line    0x0000a774      0x213 obj\Debug\\code\infoNES\infoNES_System\InfoNES_System.o
 .debug_line    0x0000a987       0x9e obj\Debug\\code\key\adc_scan.o
 .debug_line    0x0000aa25       0xbb obj\Debug\\code\key\key_drv_ad.o
 .debug_line    0x0000aae0      0x18b obj\Debug\\code\key\key_drv_manager.o
 .debug_line    0x0000ac6b       0xb1 obj\Debug\\code\key\powercheck.o
 .debug_line    0x0000ad1c      0x1e5 obj\Debug\\code\start\car_fs_api.o
 .debug_line    0x0000af01      0x5de obj\Debug\\code\start\dec_mode.o
 .debug_line    0x0000b4df      0xa87 obj\Debug\\code\start\enc_mode.o
 .debug_line    0x0000bf66      0x447 obj\Debug\\code\start\main.o
 .debug_line    0x0000c3ad      0x3e8 obj\Debug\\code\start\mode_switch.o
 .debug_line    0x0000c795      0x3d0 obj\Debug\\code\start\pwr_onoff.o
 .debug_line    0x0000cb65       0x8a obj\Debug\\code\start\reg.o
 .debug_line    0x0000cbef       0x96 obj\Debug\\code\start\startup.o
 .debug_line    0x0000cc85      0x440 obj\Debug\\code\start\usb_mode.o
 .debug_line    0x0000d0c5       0x1d obj\Debug\\code\tft_panel\ILI8960.o
 .debug_line    0x0000d0e2       0x1d obj\Debug\\code\tft_panel\ILI8961.o
 .debug_line    0x0000d0ff       0x1d obj\Debug\\code\tft_panel\ILI9163.o
 .debug_line    0x0000d11c      0x2ae obj\Debug\\code\tft_panel\ILI9325.o
 .debug_line    0x0000d3ca       0x1d obj\Debug\\code\tft_panel\LCD_RM68116.o
 .debug_line    0x0000d3e7       0x1d obj\Debug\\code\tft_panel\LQ026B3UX01.o
 .debug_line    0x0000d404       0x1d obj\Debug\\code\tft_panel\SSD1963.o
 .debug_line    0x0000d421       0x1d obj\Debug\\code\tft_panel\ST7735S.o
 .debug_line    0x0000d43e       0x1d obj\Debug\\code\tft_panel\T15P00.o
 .debug_line    0x0000d45b      0x125 obj\Debug\\code\tft_panel\avout.o
 .debug_line    0x0000d580       0x1d obj\Debug\\code\tft_panel\disp_43inch.o
 .debug_line    0x0000d59d       0x1d obj\Debug\\code\tft_panel\disp_8inch.o
 .debug_line    0x0000d5ba       0x1d obj\Debug\\code\tft_panel\disp_JC4301.o
 .debug_line    0x0000d5d7      0x198 obj\Debug\\code\tft_panel\pap.o
 .debug_line    0x0000d76f      0x363 obj\Debug\\code\upgrade\upgrade.o
 .debug_line    0x0000dad2      0x2c2 ..\..\..\libs\lib_vds.a(vds.o)
 .debug_line    0x0000dd94      0x20f ..\..\..\libs\lib_vds.a(jpeg_dec_ctl.o)
 .debug_line    0x0000dfa3      0x34f ..\..\..\libs\lib_vds.a(jpeg_dec_unpkg.o)
 .debug_line    0x0000e2f2      0x4f3 ..\..\..\libs\lib_ves.a(ves.o)
 .debug_line    0x0000e7e5      0x21d ..\..\..\libs\lib_ves.a(avi_pkg_ctrl.o)
 .debug_line    0x0000ea02      0x123 ..\..\..\libs\lib_ves.a(jpeg_enc_ctrl.o)
 .debug_line    0x0000eb25      0x1ba ..\..\..\libs\lib_ves.a(jpeg_pkg_ctrl.o)
 .debug_line    0x0000ecdf       0xcd ..\..\..\libs\lib_jpeg_dec.a(jpeg_dec_if.o)
 .debug_line    0x0000edac      0x17a ..\..\..\libs\lib_jpeg_dec.a(jpeg_dec_isr.o)
 .debug_line    0x0000ef26      0x3b6 ..\..\..\libs\lib_jpeg_dec.a(jpeg_decode.o)
 .debug_line    0x0000f2dc      0x28e ..\..\..\libs\lib_jpeg_dec.a(jpeg_dec_head.o)
 .debug_line    0x0000f56a      0x1b1 ..\..\..\libs\lib_jpeg_enc.a(jpeg_enc_if.o)
 .debug_line    0x0000f71b      0x160 ..\..\..\libs\lib_jpeg_enc.a(jpeg_encode.o)
 .debug_line    0x0000f87b      0x21c ..\..\..\libs\lib_jpeg_enc.a(jpeg_encode_init.o)
 .debug_line    0x0000fa97      0x252 ..\..\..\libs\lib_jpeg_enc.a(jpeg_encode_isr.o)
 .debug_line    0x0000fce9      0x51e ..\..\..\libs\lib_jpeg_enc.a(Build_dynamic_huffman.o)
 .debug_line    0x00010207       0xc5 ..\..\..\libs\lib_jpeg_enc.a(jpeg_abr.o)
 .debug_line    0x000102cc       0xfa ..\..\..\libs\lib_avi_pkg.a(avi_pkg_if.o)
 .debug_line    0x000103c6      0x14e ..\..\..\libs\lib_avi_pkg.a(avi_pkg_dev.o)
 .debug_line    0x00010514      0x26d ..\..\..\libs\lib_avi_pkg.a(avi_pkg.o)
 .debug_line    0x00010781       0x7d ..\..\..\libs\lib_avi_pkg.a(avi_pkg_head.o)
 .debug_line    0x000107fe      0x2e3 ..\..\..\libs\lib_avi_pkg.a(avi_pkg_idx.o)
 .debug_line    0x00010ae1      0x301 ..\..\..\libs\lib_malloc.a(mem_heap.o)
 .debug_line    0x00010de2      0x20a ..\..\..\libs\libsd1.a(mango_dev_sd1.o)
 .debug_line    0x00010fec       0xf2 ..\..\..\libs\libsd1.a(sd_host_init.o)
 .debug_line    0x000110de      0x102 ..\..\..\libs\libsd1.a(sd_host_read_end.o)
 .debug_line    0x000111e0       0xba ..\..\..\libs\libsd1.a(sd_host_unmount.o)
 .debug_line    0x0001129a      0x104 ..\..\..\libs\libsd1.a(sd_host_write_end.o)
 .debug_line    0x0001139e      0x156 ..\..\..\libs\libsd1.a(sdmmc_init.o)
 .debug_line    0x000114f4       0xbe ..\..\..\libs\libsd1.a(suspend_sdmmc.o)
 .debug_line    0x000115b2       0xd5 ..\..\..\libs\libsd1.a(sd_host_send_csd.o)
 .debug_line    0x00011687       0xd3 ..\..\..\libs\libsd1.a(sd_host_stop_trans.o)
 .debug_line    0x0001175a      0x12b ..\..\..\libs\libsd1.a(sd_host_hw.o)
 .debug_line    0x00011885       0xbe ..\..\..\libs\libsd1.a(sd_wait_idle.o)
 .debug_line    0x00011943      0x131 ..\..\..\libs\libsd1.a(sdmmc_det.o)
 .debug_line    0x00011a74      0x1ab ..\..\..\libs\libsd1.a(sd_host_reg.o)
 .debug_line    0x00011c1f       0xea ..\..\..\libs\libsd1.a(sd_send_command.o)
 .debug_line    0x00011d09       0xc3 ..\..\..\libs\libsd1.a(sd_host_status.o)
 .debug_line    0x00011dcc       0x8f ..\..\..\libs\libsd1.a(sd_host_args.o)
 .debug_line    0x00011e5b       0xdc ..\..\..\libs\libsd1.a(sd_host_mount.o)
 .debug_line    0x00011f37       0xef ..\..\..\libs\libsd1.a(sd_host_read.o)
 .debug_line    0x00012026       0xd6 ..\..\..\libs\libsd1.a(sd_host_timeout.o)
 .debug_line    0x000120fc       0xf0 ..\..\..\libs\libsd1.a(sd_host_write.o)
 .debug_line    0x000121ec       0xce ..\..\..\libs\libsd1.a(sd_init.o)
 .debug_line    0x000122ba      0x17f ..\..\..\libs\libsd1.a(sdmmc_host_set_bus_width.o)
 .debug_line    0x00012439       0xdc ..\..\..\libs\libsd1.a(sdmmc_host_set_hispeed.o)
 .debug_line    0x00012515       0xa4 ..\..\..\libs\libsd1.a(mmc_host_send_rca.o)
 .debug_line    0x000125b9       0xb2 ..\..\..\libs\libsd1.a(mmc_host_set_bus_width.o)
 .debug_line    0x0001266b       0xb0 ..\..\..\libs\libsd1.a(mmc_host_set_hispeed.o)
 .debug_line    0x0001271b       0x79 ..\..\..\libs\libsd1.a(sd_host_all_send_cid.o)
 .debug_line    0x00012794       0x72 ..\..\..\libs\libsd1.a(sd_host_reset.o)
 .debug_line    0x00012806       0xf0 ..\..\..\libs\libsd1.a(sd_host_sd_status.o)
 .debug_line    0x000128f6       0x79 ..\..\..\libs\libsd1.a(sd_host_send_if_cond.o)
 .debug_line    0x0001296f       0xa7 ..\..\..\libs\libsd1.a(sd_host_send_rca.o)
 .debug_line    0x00012a16       0x82 ..\..\..\libs\libsd1.a(sd_host_set_bus_width.o)
 .debug_line    0x00012a98       0xd0 ..\..\..\libs\libsd1.a(sd_host_set_hispeed.o)
 .debug_line    0x00012b68       0xa0 ..\..\..\libs\libsd1.a(sd_host_switch_func.o)
 .debug_line    0x00012c08       0xa2 ..\..\..\libs\libsd1.a(sd_select_card.o)
 .debug_line    0x00012caa       0xd9 ..\..\..\libs\libsd1.a(sd_send_scr.o)
 .debug_line    0x00012d83       0xbe ..\..\..\libs\libsd1.a(sd_chk_ctl.o)
 .debug_line    0x00012e41       0xaa ..\..\..\libs\libsd1.a(sd_read_start.o)
 .debug_line    0x00012eeb       0xab ..\..\..\libs\libsd1.a(sd_write_start.o)
 .debug_line    0x00012f96       0xf4 ..\..\..\libs\libsd1.a(sd_host_identification.o)
 .debug_line    0x0001308a       0x7a ..\..\..\libs\libsd1.a(mmc_host_send_op_cond.o)
 .debug_line    0x00013104       0xa1 ..\..\..\libs\libsd1.a(sd_host_app_cmd.o)
 .debug_line    0x000131a5       0x87 ..\..\..\libs\libsd1.a(sd_host_send_op_cond.o)
 .debug_line    0x0001322c      0x466 ..\..\..\libs\lib_imb.a(imb_module.o)
 .debug_line    0x00013692       0xe5 ..\..\..\libs\lib_imb.a(cve_cfg.o)
 .debug_line    0x00013777      0x17e ..\..\..\libs\lib_imb.a(imb_isr.o)
 .debug_line    0x000138f5      0x410 ..\..\..\libs\lib_vm.a(vm.o)
 .debug_line    0x00013d05      0x244 ..\..\..\libs\lib_font.a(font_other_language.o)
 .debug_line    0x00013f49      0x134 ..\..\..\libs\lib_font.a(font_out.o)
 .debug_line    0x0001407d      0x27b ..\..\..\libs\lib_font.a(font_sjis.o)
 .debug_line    0x000142f8       0x9d ..\..\..\libs\lib_font.a(font_area_ctl.o)
 .debug_line    0x00014395       0xf6 ..\..\..\libs\lib_font.a(font_ascii.o)
 .debug_line    0x0001448b      0x1f0 ..\..\..\libs\lib_font.a(font_big5.o)
 .debug_line    0x0001467b      0x2bb ..\..\..\libs\lib_font.a(font_gbk.o)
 .debug_line    0x00014936      0x1fa ..\..\..\libs\lib_font.a(font_ksc.o)
 .debug_line    0x00014b30      0xbce ..\..\..\libs\lib_uicon.a(dc_showres.o)
 .debug_line    0x000156fe      0x144 ..\..\..\libs\lib_uicon.a(ui_get_info.o)
 .debug_line    0x00015842       0xb0 ..\..\..\libs\lib_uicon.a(ui_init.o)
 .debug_line    0x000158f2      0x33b ..\..\..\libs\lib_uicon.a(ui_layer.o)
 .debug_line    0x00015c2d       0xbe ..\..\..\libs\lib_uicon.a(ui_menu.o)
 .debug_line    0x00015ceb      0x3dc ..\..\..\libs\lib_uicon.a(ui_menub.o)
 .debug_line    0x000160c7      0x106 ..\..\..\libs\lib_uicon.a(ui_number.o)
 .debug_line    0x000161cd      0x1cb ..\..\..\libs\lib_uicon.a(ui_pic.o)
 .debug_line    0x00016398       0x6b ..\..\..\libs\lib_uicon.a(ui_sdfs.o)
 .debug_line    0x00016403      0x38c ..\..\..\libs\lib_uicon.a(ui_text.o)
 .debug_line    0x0001678f      0x158 ..\..\..\libs\lib_uicon.a(ui_time.o)
 .debug_line    0x000168e7      0x1c5 ..\..\..\libs\lib_uicon.a(ui_time1.o)
 .debug_line    0x00016aac      0x556 ..\..\..\libs\lib_drv_lib.a(drv_manage.o)
 .debug_line    0x00017002      0x127 ..\..\..\libs\lib_dsc_ram.a(dsc_ram.o)
 .debug_line    0x00017129      0x16b ..\..\..\libs\lib_vedio_ram.a(yuv_ram.o)
 .debug_line    0x00017294      0x7ad ..\..\..\libs\lib_vfs.a(vfs.o)
 .debug_line    0x00017a41       0x9d ..\..\..\libs\lib_vfs.a(vfs_init.o)
 .debug_line    0x00017ade      0x206 ..\..\..\libs\lib_vfs.a(GenfsInc.o)
 .debug_line    0x00017ce4      0xcce ..\..\..\libs\lib_vfs.a(ff.o)
 .debug_line    0x000189b2      0x117 ..\..\..\libs\lib_vfs.a(dev_Mount.o)
 .debug_line    0x00018ac9       0xd7 ..\..\..\libs\lib_vfs.a(dev_cache_alloc.o)
 .debug_line    0x00018ba0       0xb2 ..\..\..\libs\lib_vfs.a(dev_cache_flush.o)
 .debug_line    0x00018c52       0xbd ..\..\..\libs\lib_vfs.a(dev_cache_read_only.o)
 .debug_line    0x00018d0f       0xc3 ..\..\..\libs\lib_vfs.a(dev_cache_write_dev.o)
 .debug_line    0x00018dd2       0x87 ..\..\..\libs\lib_vfs.a(fs_api.o)
 .debug_line    0x00018e59       0x91 ..\..\..\libs\lib_vfs.a(dev_Cache.o)
 .debug_line    0x00018eea       0xa8 ..\..\..\libs\libhwi.a(cache.o)
 .debug_line    0x00018f92      0x10c ..\..\..\libs\libhwi.a(HWI.o)
 .debug_line    0x0001909e      0x127 ..\..\..\libs\libspi0flash.a(mango_dev_spi0flash.o)
 .debug_line    0x000191c5      0x2d2 ..\..\..\libs\libspi0flash.a(spi0flash.o)
 .debug_line    0x00019497      0x194 ..\..\..\libs\libspi0.a(spi0.o)
 .debug_line    0x0001962b      0x1a2 ..\..\..\libs\lib_audio.a(ladc.o)
 .debug_line    0x000197cd       0xaa ..\..\..\libs\lib_audio.a(audio.o)
 .debug_line    0x00019877       0xd5 ..\..\..\libs\lib_audio.a(dac.o)
 .debug_line    0x0001994c      0x2a8 ..\..\..\libs\lib_usb_slave.a(usb_slave_main.o)
 .debug_line    0x00019bf4      0x384 ..\..\..\libs\lib_usb_slave.a(msd2video_ctrl.o)
 .debug_line    0x00019f78      0x269 ..\..\..\libs\lib_usb_slave.a(msd_dev_update.o)
 .debug_line    0x0001a1e1      0x49a ..\..\..\libs\lib_usb_slave.a(msd_main.o)
 .debug_line    0x0001a67b      0x460 ..\..\..\libs\lib_usb_slave.a(video_main.o)
 .debug_line    0x0001aadb      0x109 ..\..\..\libs\lib_usb_slave.a(audio_main.o)
 .debug_line    0x0001abe4      0x31a ..\..\..\libs\lib_usb_slave.a(core_descriptor.o)
 .debug_line    0x0001aefe      0x1b6 ..\..\..\libs\lib_usb_slave.a(usb_phy.o)
 .debug_line    0x0001b0b4      0x578 ..\..\..\libs\lib_usb_slave.a(usb_setup.o)
 .debug_line    0x0001b62c       0x5c ..\..\..\libs\lib_usb_slave.a(msd_descriptor.o)
 .debug_line    0x0001b688       0x91 ..\..\..\libs\lib_usb_slave.a(video_descriptor.o)
 .debug_line    0x0001b719       0x96 ..\..\..\libs\lib_usb_slave.a(audio_descriptor.o)
 .debug_line    0x0001b7af      0x25f ..\..\..\libs\librtos.a(os_core.o)
 .debug_line    0x0001ba0e      0x142 ..\..\..\libs\librtos.a(os_mutex.o)
 .debug_line    0x0001bb50      0x122 ..\..\..\libs\librtos.a(os_sem.o)
 .debug_line    0x0001bc72      0x35e ..\..\..\libs\librtos.a(os_task.o)
 .debug_line    0x0001bfd0       0xc3 ..\..\..\libs\librtos.a(os_time.o)
 .debug_line    0x0001c093      0x10b ..\..\..\libs\librtos.a(os_api.o)
 .debug_line    0x0001c19e       0xcc ..\..\..\libs\librtos.a(os_cpu.o)
 .debug_line    0x0001c26a       0xd0 ..\..\..\libs\librtos.a(os_cpu_c.o)
 .debug_line    0x0001c33a      0x1a7 ..\..\..\libs\lib_common.a(time.o)
 .debug_line    0x0001c4e1      0x357 ..\..\..\libs\lib_common.a(Vsnprintf.o)
 .debug_line    0x0001c838       0xb8 C:\JL\dv12\lib\libc.a(lib_a-isalnum.o)
 .debug_line    0x0001c8f0      0x13c C:\JL\dv12\lib\libc.a(lib_a-memcmp.o)
 .debug_line    0x0001ca2c      0x13e C:\JL\dv12\lib\libc.a(lib_a-memcpy.o)
 .debug_line    0x0001cb6a      0x162 C:\JL\dv12\lib\libc.a(lib_a-memmove.o)
 .debug_line    0x0001cccc      0x161 C:\JL\dv12\lib\libc.a(lib_a-memset.o)
 .debug_line    0x0001ce2d       0xe1 C:\JL\dv12\lib\libc.a(lib_a-strcat.o)
 .debug_line    0x0001cf0e       0xfd C:\JL\dv12\lib\libc.a(lib_a-strcmp.o)
 .debug_line    0x0001d00b       0xe2 C:\JL\dv12\lib\libc.a(lib_a-strcpy.o)
 .debug_line    0x0001d0ed      0x159 C:\JL\dv12\lib\libc.a(lib_a-strlen.o)
 .debug_line    0x0001d246      0x174 C:\JL\dv12\lib\libc.a(lib_a-strncmp.o)
 .debug_line    0x0001d3ba      0x142 C:\JL\dv12\lib\libc.a(lib_a-strncpy.o)
 .debug_line    0x0001d4fc      0x11a C:\JL\dv12\lib\libc.a(lib_a-strnlen.o)
 .debug_line    0x0001d616       0xa2 C:\JL\dv12\lib\libc.a(lib_a-ctype_.o)
 .debug_line    0x0001d6b8       0x85 C:\JL\dv12\lib\libgcc.a(_umodsi3.o)
 .debug_line    0x0001d73d       0x84 C:\JL\dv12\lib\libgcc.a(_modsi3.o)
 .debug_line    0x0001d7c1       0x8d C:\JL\dv12\lib\libgcc.a(_muldi3.o)
 .debug_line    0x0001d84e       0x83 C:\JL\dv12\lib\libgcc.a(_umulsi3_highpart.o)
 .debug_line    0x0001d8d1       0x8d C:\JL\dv12\lib\libgcc.a(_lshrdi3.o)
 .debug_line    0x0001d95e      0x121 C:\JL\dv12\lib\libgcc.a(_divdi3.o)
 .debug_line    0x0001da7f      0x14e C:\JL\dv12\lib\libgcc.a(divsf3.o)
 .debug_line    0x0001dbcd       0xcc C:\JL\dv12\lib\libgcc.a(fixunssfsi.o)
 .debug_line    0x0001dc99       0xdf C:\JL\dv12\lib\libgcc.a(floatunsisf.o)
 .debug_line    0x0001dd78       0x69 C:\JL\dv12\lib\libgcc.a(_clz.o)
 .debug_line    0x0001dde1       0xab C:\JL\dv12\lib\libgcc.a(_clzsi2.o)

.debug_frame    0x00000000     0xe2f8
 .debug_frame   0x00000000      0x324 obj\Debug\\code\FileSelecter\FileSelecter.o
 .debug_frame   0x00000324      0x260 obj\Debug\\code\FileSelecter\pb_fctrl.o
 .debug_frame   0x00000584      0x17c obj\Debug\\code\Peripherals\G_Sensor\GMA301.o
 .debug_frame   0x00000700      0x154 obj\Debug\\code\Peripherals\G_Sensor\da380.o
 .debug_frame   0x00000854       0x80 obj\Debug\\code\Peripherals\G_Sensor\gravity_sensor_api.o
 .debug_frame   0x000008d4      0x13c obj\Debug\\code\Peripherals\G_Sensor\gravity_sensor_manage.o
 .debug_frame   0x00000a10      0x138 obj\Debug\\code\Peripherals\G_Sensor\i2c.o
 .debug_frame   0x00000b48       0x28 obj\Debug\\code\Peripherals\G_Sensor\parking_guard.o
 .debug_frame   0x00000b70      0x1a4 obj\Debug\\code\Peripherals\G_Sensor\stk8312.o
 .debug_frame   0x00000d14      0x2ac obj\Debug\\code\Peripherals\clock.o
 .debug_frame   0x00000fc0      0x140 obj\Debug\\code\Peripherals\timer.o
 .debug_frame   0x00001100      0x168 obj\Debug\\code\Peripherals\uart.o
 .debug_frame   0x00001268       0x7c obj\Debug\\code\Peripherals\user_isp_cfg.o
 .debug_frame   0x000012e4       0x3c obj\Debug\\code\Peripherals\wdt.o
 .debug_frame   0x00001320       0xc4 obj\Debug\\code\StorDev\dev_ctrl.o
 .debug_frame   0x000013e4      0x23c obj\Debug\\code\common\audio_api.o
 .debug_frame   0x00001620       0xe4 obj\Debug\\code\common\common.o
 .debug_frame   0x00001704      0x130 obj\Debug\\code\common\printf-stdarg.o
 .debug_frame   0x00001834       0x70 obj\Debug\\code\common\vm_api.o
 .debug_frame   0x000018a4       0xf4 obj\Debug\\code\disp_ctrl\lcd.o
 .debug_frame   0x00001998      0x63c obj\Debug\\code\disp_ctrl\my_ui1.o
 .debug_frame   0x00001fd4      0x638 obj\Debug\\code\disp_ctrl\ui_task.o
 .debug_frame   0x0000260c       0x3c obj\Debug\\code\infoNES\infoNES_PORT\nes_port.o
 .debug_frame   0x00002648      0x1a0 obj\Debug\\code\infoNES\infoNES_SRC\src\InfoNES.o
 .debug_frame   0x000027e8     0x2f98 obj\Debug\\code\infoNES\infoNES_SRC\src\InfoNES_Mapper.o
 .debug_frame   0x00005780      0x364 obj\Debug\\code\infoNES\infoNES_SRC\src\InfoNES_pAPU.o
 .debug_frame   0x00005ae4      0x168 obj\Debug\\code\infoNES\infoNES_SRC\src\K6502.o
 .debug_frame   0x00005c4c      0x1b8 obj\Debug\\code\infoNES\infoNES_System\InfoNES_System.o
 .debug_frame   0x00005e04       0x30 obj\Debug\\code\key\adc_scan.o
 .debug_frame   0x00005e34       0x54 obj\Debug\\code\key\key_drv_ad.o
 .debug_frame   0x00005e88       0x7c obj\Debug\\code\key\key_drv_manager.o
 .debug_frame   0x00005f04       0x60 obj\Debug\\code\key\powercheck.o
 .debug_frame   0x00005f64      0x2cc obj\Debug\\code\start\car_fs_api.o
 .debug_frame   0x00006230      0x168 obj\Debug\\code\start\dec_mode.o
 .debug_frame   0x00006398      0x224 obj\Debug\\code\start\enc_mode.o
 .debug_frame   0x000065bc      0x160 obj\Debug\\code\start\main.o
 .debug_frame   0x0000671c       0xc8 obj\Debug\\code\start\mode_switch.o
 .debug_frame   0x000067e4      0x198 obj\Debug\\code\start\pwr_onoff.o
 .debug_frame   0x0000697c      0x20c obj\Debug\\code\start\usb_mode.o
 .debug_frame   0x00006b88      0x270 obj\Debug\\code\tft_panel\ILI9325.o
 .debug_frame   0x00006df8       0x3c obj\Debug\\code\tft_panel\avout.o
 .debug_frame   0x00006e34       0x88 obj\Debug\\code\tft_panel\pap.o
 .debug_frame   0x00006ebc      0x168 obj\Debug\\code\upgrade\upgrade.o
 .debug_frame   0x00007024       0x9c ..\..\..\libs\lib_vds.a(vds.o)
 .debug_frame   0x000070c0      0x114 ..\..\..\libs\lib_vds.a(jpeg_dec_ctl.o)
 .debug_frame   0x000071d4      0x1e0 ..\..\..\libs\lib_vds.a(jpeg_dec_unpkg.o)
 .debug_frame   0x000073b4      0x26c ..\..\..\libs\lib_ves.a(ves.o)
 .debug_frame   0x00007620      0x13c ..\..\..\libs\lib_ves.a(avi_pkg_ctrl.o)
 .debug_frame   0x0000775c       0x64 ..\..\..\libs\lib_ves.a(jpeg_enc_ctrl.o)
 .debug_frame   0x000077c0      0x164 ..\..\..\libs\lib_ves.a(jpeg_pkg_ctrl.o)
 .debug_frame   0x00007924       0x78 ..\..\..\libs\lib_jpeg_dec.a(jpeg_dec_if.o)
 .debug_frame   0x0000799c       0xf4 ..\..\..\libs\lib_jpeg_dec.a(jpeg_dec_isr.o)
 .debug_frame   0x00007a90      0x138 ..\..\..\libs\lib_jpeg_dec.a(jpeg_decode.o)
 .debug_frame   0x00007bc8      0x194 ..\..\..\libs\lib_jpeg_dec.a(jpeg_dec_head.o)
 .debug_frame   0x00007d5c      0x1b0 ..\..\..\libs\lib_jpeg_enc.a(jpeg_enc_if.o)
 .debug_frame   0x00007f0c       0x94 ..\..\..\libs\lib_jpeg_enc.a(jpeg_encode.o)
 .debug_frame   0x00007fa0       0xb8 ..\..\..\libs\lib_jpeg_enc.a(jpeg_encode_init.o)
 .debug_frame   0x00008058      0x188 ..\..\..\libs\lib_jpeg_enc.a(jpeg_encode_isr.o)
 .debug_frame   0x000081e0      0x2c4 ..\..\..\libs\lib_jpeg_enc.a(Build_dynamic_huffman.o)
 .debug_frame   0x000084a4       0x58 ..\..\..\libs\lib_jpeg_enc.a(jpeg_abr.o)
 .debug_frame   0x000084fc       0x90 ..\..\..\libs\lib_avi_pkg.a(avi_pkg_if.o)
 .debug_frame   0x0000858c      0x160 ..\..\..\libs\lib_avi_pkg.a(avi_pkg_dev.o)
 .debug_frame   0x000086ec      0x12c ..\..\..\libs\lib_avi_pkg.a(avi_pkg.o)
 .debug_frame   0x00008818       0x20 ..\..\..\libs\lib_avi_pkg.a(avi_pkg_head.o)
 .debug_frame   0x00008838       0xc0 ..\..\..\libs\lib_avi_pkg.a(avi_pkg_idx.o)
 .debug_frame   0x000088f8       0xe8 ..\..\..\libs\lib_malloc.a(mem_heap.o)
 .debug_frame   0x000089e0      0x1e0 ..\..\..\libs\libsd1.a(mango_dev_sd1.o)
 .debug_frame   0x00008bc0       0x5c ..\..\..\libs\libsd1.a(sd_host_init.o)
 .debug_frame   0x00008c1c       0x3c ..\..\..\libs\libsd1.a(sd_host_read_end.o)
 .debug_frame   0x00008c58       0x28 ..\..\..\libs\libsd1.a(sd_host_unmount.o)
 .debug_frame   0x00008c80       0x3c ..\..\..\libs\libsd1.a(sd_host_write_end.o)
 .debug_frame   0x00008cbc       0x7c ..\..\..\libs\libsd1.a(sdmmc_init.o)
 .debug_frame   0x00008d38       0x28 ..\..\..\libs\libsd1.a(suspend_sdmmc.o)
 .debug_frame   0x00008d60       0x48 ..\..\..\libs\libsd1.a(sd_host_send_csd.o)
 .debug_frame   0x00008da8       0x38 ..\..\..\libs\libsd1.a(sd_host_stop_trans.o)
 .debug_frame   0x00008de0       0x94 ..\..\..\libs\libsd1.a(sd_host_hw.o)
 .debug_frame   0x00008e74       0x34 ..\..\..\libs\libsd1.a(sd_wait_idle.o)
 .debug_frame   0x00008ea8       0xa0 ..\..\..\libs\libsd1.a(sdmmc_det.o)
 .debug_frame   0x00008f48      0x2a0 ..\..\..\libs\libsd1.a(sd_host_reg.o)
 .debug_frame   0x000091e8       0x3c ..\..\..\libs\libsd1.a(sd_send_command.o)
 .debug_frame   0x00009224       0x34 ..\..\..\libs\libsd1.a(sd_host_status.o)
 .debug_frame   0x00009258       0x38 ..\..\..\libs\libsd1.a(sd_host_mount.o)
 .debug_frame   0x00009290       0x40 ..\..\..\libs\libsd1.a(sd_host_read.o)
 .debug_frame   0x000092d0       0x44 ..\..\..\libs\libsd1.a(sd_host_timeout.o)
 .debug_frame   0x00009314       0x40 ..\..\..\libs\libsd1.a(sd_host_write.o)
 .debug_frame   0x00009354       0x3c ..\..\..\libs\libsd1.a(sd_init.o)
 .debug_frame   0x00009390       0x40 ..\..\..\libs\libsd1.a(sdmmc_host_set_bus_width.o)
 .debug_frame   0x000093d0       0x34 ..\..\..\libs\libsd1.a(sdmmc_host_set_hispeed.o)
 .debug_frame   0x00009404       0x20 ..\..\..\libs\libsd1.a(mmc_host_send_rca.o)
 .debug_frame   0x00009424       0x30 ..\..\..\libs\libsd1.a(mmc_host_set_bus_width.o)
 .debug_frame   0x00009454       0x30 ..\..\..\libs\libsd1.a(mmc_host_set_hispeed.o)
 .debug_frame   0x00009484       0x20 ..\..\..\libs\libsd1.a(sd_host_all_send_cid.o)
 .debug_frame   0x000094a4       0x20 ..\..\..\libs\libsd1.a(sd_host_reset.o)
 .debug_frame   0x000094c4       0x38 ..\..\..\libs\libsd1.a(sd_host_sd_status.o)
 .debug_frame   0x000094fc       0x20 ..\..\..\libs\libsd1.a(sd_host_send_if_cond.o)
 .debug_frame   0x0000951c       0x28 ..\..\..\libs\libsd1.a(sd_host_send_rca.o)
 .debug_frame   0x00009544       0x38 ..\..\..\libs\libsd1.a(sd_host_set_bus_width.o)
 .debug_frame   0x0000957c       0x3c ..\..\..\libs\libsd1.a(sd_host_set_hispeed.o)
 .debug_frame   0x000095b8       0x38 ..\..\..\libs\libsd1.a(sd_host_switch_func.o)
 .debug_frame   0x000095f0       0x20 ..\..\..\libs\libsd1.a(sd_select_card.o)
 .debug_frame   0x00009610       0x38 ..\..\..\libs\libsd1.a(sd_send_scr.o)
 .debug_frame   0x00009648       0x34 ..\..\..\libs\libsd1.a(sd_chk_ctl.o)
 .debug_frame   0x0000967c       0x34 ..\..\..\libs\libsd1.a(sd_read_start.o)
 .debug_frame   0x000096b0       0x34 ..\..\..\libs\libsd1.a(sd_write_start.o)
 .debug_frame   0x000096e4       0x38 ..\..\..\libs\libsd1.a(sd_host_identification.o)
 .debug_frame   0x0000971c       0x20 ..\..\..\libs\libsd1.a(mmc_host_send_op_cond.o)
 .debug_frame   0x0000973c       0x20 ..\..\..\libs\libsd1.a(sd_host_app_cmd.o)
 .debug_frame   0x0000975c       0x38 ..\..\..\libs\libsd1.a(sd_host_send_op_cond.o)
 .debug_frame   0x00009794      0x364 ..\..\..\libs\lib_imb.a(imb_module.o)
 .debug_frame   0x00009af8       0x88 ..\..\..\libs\lib_imb.a(cve_cfg.o)
 .debug_frame   0x00009b80       0x9c ..\..\..\libs\lib_imb.a(imb_isr.o)
 .debug_frame   0x00009c1c      0x240 ..\..\..\libs\lib_vm.a(vm.o)
 .debug_frame   0x00009e5c      0x148 ..\..\..\libs\lib_font.a(font_other_language.o)
 .debug_frame   0x00009fa4       0xf8 ..\..\..\libs\lib_font.a(font_out.o)
 .debug_frame   0x0000a09c      0x104 ..\..\..\libs\lib_font.a(font_sjis.o)
 .debug_frame   0x0000a1a0       0x60 ..\..\..\libs\lib_font.a(font_area_ctl.o)
 .debug_frame   0x0000a200       0x3c ..\..\..\libs\lib_font.a(font_ascii.o)
 .debug_frame   0x0000a23c       0xe0 ..\..\..\libs\lib_font.a(font_big5.o)
 .debug_frame   0x0000a31c      0x124 ..\..\..\libs\lib_font.a(font_gbk.o)
 .debug_frame   0x0000a440       0xe0 ..\..\..\libs\lib_font.a(font_ksc.o)
 .debug_frame   0x0000a520      0x224 ..\..\..\libs\lib_uicon.a(dc_showres.o)
 .debug_frame   0x0000a744       0x5c ..\..\..\libs\lib_uicon.a(ui_get_info.o)
 .debug_frame   0x0000a7a0       0x34 ..\..\..\libs\lib_uicon.a(ui_init.o)
 .debug_frame   0x0000a7d4      0x128 ..\..\..\libs\lib_uicon.a(ui_layer.o)
 .debug_frame   0x0000a8fc       0xc0 ..\..\..\libs\lib_uicon.a(ui_menu.o)
 .debug_frame   0x0000a9bc       0x40 ..\..\..\libs\lib_uicon.a(ui_menub.o)
 .debug_frame   0x0000a9fc       0x54 ..\..\..\libs\lib_uicon.a(ui_number.o)
 .debug_frame   0x0000aa50       0xa0 ..\..\..\libs\lib_uicon.a(ui_pic.o)
 .debug_frame   0x0000aaf0       0x40 ..\..\..\libs\lib_uicon.a(ui_sdfs.o)
 .debug_frame   0x0000ab30      0x128 ..\..\..\libs\lib_uicon.a(ui_text.o)
 .debug_frame   0x0000ac58       0x68 ..\..\..\libs\lib_uicon.a(ui_time.o)
 .debug_frame   0x0000acc0       0x3c ..\..\..\libs\lib_uicon.a(ui_time1.o)
 .debug_frame   0x0000acfc      0x35c ..\..\..\libs\lib_drv_lib.a(drv_manage.o)
 .debug_frame   0x0000b058      0x118 ..\..\..\libs\lib_dsc_ram.a(dsc_ram.o)
 .debug_frame   0x0000b170      0x140 ..\..\..\libs\lib_vedio_ram.a(yuv_ram.o)
 .debug_frame   0x0000b2b0      0x67c ..\..\..\libs\lib_vfs.a(vfs.o)
 .debug_frame   0x0000b92c       0x34 ..\..\..\libs\lib_vfs.a(vfs_init.o)
 .debug_frame   0x0000b960      0x2ec ..\..\..\libs\lib_vfs.a(GenfsInc.o)
 .debug_frame   0x0000bc4c      0x798 ..\..\..\libs\lib_vfs.a(ff.o)
 .debug_frame   0x0000c3e4       0x90 ..\..\..\libs\lib_vfs.a(dev_Mount.o)
 .debug_frame   0x0000c474       0x40 ..\..\..\libs\lib_vfs.a(dev_cache_alloc.o)
 .debug_frame   0x0000c4b4       0x38 ..\..\..\libs\lib_vfs.a(dev_cache_flush.o)
 .debug_frame   0x0000c4ec       0x5c ..\..\..\libs\lib_vfs.a(dev_cache_read_only.o)
 .debug_frame   0x0000c548       0x3c ..\..\..\libs\lib_vfs.a(dev_cache_write_dev.o)
 .debug_frame   0x0000c584       0x20 ..\..\..\libs\lib_vfs.a(fs_api.o)
 .debug_frame   0x0000c5a4       0x20 ..\..\..\libs\lib_vfs.a(dev_Cache.o)
 .debug_frame   0x0000c5c4       0x60 ..\..\..\libs\libhwi.a(cache.o)
 .debug_frame   0x0000c624      0x11c ..\..\..\libs\libhwi.a(HWI.o)
 .debug_frame   0x0000c740       0x54 ..\..\..\libs\libspi0flash.a(mango_dev_spi0flash.o)
 .debug_frame   0x0000c794      0x1e8 ..\..\..\libs\libspi0flash.a(spi0flash.o)
 .debug_frame   0x0000c97c      0x170 ..\..\..\libs\libspi0.a(spi0.o)
 .debug_frame   0x0000caec      0x114 ..\..\..\libs\lib_audio.a(ladc.o)
 .debug_frame   0x0000cc00       0x84 ..\..\..\libs\lib_audio.a(audio.o)
 .debug_frame   0x0000cc84       0x94 ..\..\..\libs\lib_audio.a(dac.o)
 .debug_frame   0x0000cd18      0x100 ..\..\..\libs\lib_usb_slave.a(usb_slave_main.o)
 .debug_frame   0x0000ce18       0xe8 ..\..\..\libs\lib_usb_slave.a(msd2video_ctrl.o)
 .debug_frame   0x0000cf00       0x60 ..\..\..\libs\lib_usb_slave.a(msd_dev_update.o)
 .debug_frame   0x0000cf60      0x130 ..\..\..\libs\lib_usb_slave.a(msd_main.o)
 .debug_frame   0x0000d090      0x240 ..\..\..\libs\lib_usb_slave.a(video_main.o)
 .debug_frame   0x0000d2d0       0xa0 ..\..\..\libs\lib_usb_slave.a(audio_main.o)
 .debug_frame   0x0000d370       0x40 ..\..\..\libs\lib_usb_slave.a(core_descriptor.o)
 .debug_frame   0x0000d3b0       0x90 ..\..\..\libs\lib_usb_slave.a(usb_phy.o)
 .debug_frame   0x0000d440       0x40 ..\..\..\libs\lib_usb_slave.a(usb_setup.o)
 .debug_frame   0x0000d480       0x20 ..\..\..\libs\lib_usb_slave.a(video_descriptor.o)
 .debug_frame   0x0000d4a0       0x30 ..\..\..\libs\lib_usb_slave.a(audio_descriptor.o)
 .debug_frame   0x0000d4d0      0x1f8 ..\..\..\libs\librtos.a(os_core.o)
 .debug_frame   0x0000d6c8       0xb0 ..\..\..\libs\librtos.a(os_mutex.o)
 .debug_frame   0x0000d778       0xb4 ..\..\..\libs\librtos.a(os_sem.o)
 .debug_frame   0x0000d82c      0x320 ..\..\..\libs\librtos.a(os_task.o)
 .debug_frame   0x0000db4c       0x7c ..\..\..\libs\librtos.a(os_time.o)
 .debug_frame   0x0000dbc8      0x104 ..\..\..\libs\librtos.a(os_api.o)
 .debug_frame   0x0000dccc       0x88 ..\..\..\libs\librtos.a(os_cpu_c.o)
 .debug_frame   0x0000dd54      0x14c ..\..\..\libs\lib_common.a(time.o)
 .debug_frame   0x0000dea0       0xac ..\..\..\libs\lib_common.a(Vsnprintf.o)
 .debug_frame   0x0000df4c       0x28 C:\JL\dv12\lib\libc.a(lib_a-isalnum.o)
 .debug_frame   0x0000df74       0x30 C:\JL\dv12\lib\libc.a(lib_a-memcmp.o)
 .debug_frame   0x0000dfa4       0x34 C:\JL\dv12\lib\libc.a(lib_a-memcpy.o)
 .debug_frame   0x0000dfd8       0x34 C:\JL\dv12\lib\libc.a(lib_a-memmove.o)
 .debug_frame   0x0000e00c       0x34 C:\JL\dv12\lib\libc.a(lib_a-memset.o)
 .debug_frame   0x0000e040       0x38 C:\JL\dv12\lib\libc.a(lib_a-strcat.o)
 .debug_frame   0x0000e078       0x34 C:\JL\dv12\lib\libc.a(lib_a-strcmp.o)
 .debug_frame   0x0000e0ac       0x34 C:\JL\dv12\lib\libc.a(lib_a-strcpy.o)
 .debug_frame   0x0000e0e0       0x34 C:\JL\dv12\lib\libc.a(lib_a-strlen.o)
 .debug_frame   0x0000e114       0x3c C:\JL\dv12\lib\libc.a(lib_a-strncmp.o)
 .debug_frame   0x0000e150       0x40 C:\JL\dv12\lib\libc.a(lib_a-strncpy.o)
 .debug_frame   0x0000e190       0x28 C:\JL\dv12\lib\libc.a(lib_a-strnlen.o)
 .debug_frame   0x0000e1b8       0x30 C:\JL\dv12\lib\libgcc.a(_lshrdi3.o)
 .debug_frame   0x0000e1e8       0x40 C:\JL\dv12\lib\libgcc.a(_divdi3.o)
 .debug_frame   0x0000e228       0x40 C:\JL\dv12\lib\libgcc.a(divsf3.o)
 .debug_frame   0x0000e268       0x38 C:\JL\dv12\lib\libgcc.a(fixunssfsi.o)
 .debug_frame   0x0000e2a0       0x30 C:\JL\dv12\lib\libgcc.a(floatunsisf.o)
 .debug_frame   0x0000e2d0       0x28 C:\JL\dv12\lib\libgcc.a(_clzsi2.o)

.debug_loc      0x00000000    0x42f06
 .debug_loc     0x00000000     0x101e obj\Debug\\code\FileSelecter\FileSelecter.o
 .debug_loc     0x0000101e      0xa10 obj\Debug\\code\FileSelecter\pb_fctrl.o
 .debug_loc     0x00001a2e      0x530 obj\Debug\\code\Peripherals\G_Sensor\GMA301.o
 .debug_loc     0x00001f5e      0x3ec obj\Debug\\code\Peripherals\G_Sensor\da380.o
 .debug_loc     0x0000234a      0x204 obj\Debug\\code\Peripherals\G_Sensor\gravity_sensor_api.o
 .debug_loc     0x0000254e      0x2bf obj\Debug\\code\Peripherals\G_Sensor\gravity_sensor_manage.o
 .debug_loc     0x0000280d      0x280 obj\Debug\\code\Peripherals\G_Sensor\i2c.o
 .debug_loc     0x00002a8d       0x3f obj\Debug\\code\Peripherals\G_Sensor\parking_guard.o
 .debug_loc     0x00002acc      0x59c obj\Debug\\code\Peripherals\G_Sensor\stk8312.o
 .debug_loc     0x00003068      0xd7c obj\Debug\\code\Peripherals\clock.o
 .debug_loc     0x00003de4      0x2f6 obj\Debug\\code\Peripherals\timer.o
 .debug_loc     0x000040da       0x96 obj\Debug\\code\Peripherals\uart.o
 .debug_loc     0x00004170      0x126 obj\Debug\\code\Peripherals\user_isp_cfg.o
 .debug_loc     0x00004296       0xb2 obj\Debug\\code\Peripherals\wdt.o
 .debug_loc     0x00004348      0x214 obj\Debug\\code\StorDev\dev_ctrl.o
 .debug_loc     0x0000455c      0x6ea obj\Debug\\code\common\audio_api.o
 .debug_loc     0x00004c46      0x3f0 obj\Debug\\code\common\common.o
 .debug_loc     0x00005036      0x8fa obj\Debug\\code\common\printf-stdarg.o
 .debug_loc     0x00005930      0x20d obj\Debug\\code\common\vm_api.o
 .debug_loc     0x00005b3d      0x1a5 obj\Debug\\code\disp_ctrl\lcd.o
 .debug_loc     0x00005ce2     0x18de obj\Debug\\code\disp_ctrl\my_ui1.o
 .debug_loc     0x000075c0     0x1036 obj\Debug\\code\disp_ctrl\ui_task.o
 .debug_loc     0x000085f6      0x106 obj\Debug\\code\infoNES\infoNES_PORT\nes_port.o
 .debug_loc     0x000086fc      0x847 obj\Debug\\code\infoNES\infoNES_SRC\src\InfoNES.o
 .debug_loc     0x00008f43     0xa9fe obj\Debug\\code\infoNES\infoNES_SRC\src\InfoNES_Mapper.o
 .debug_loc     0x00013941      0x99b obj\Debug\\code\infoNES\infoNES_SRC\src\InfoNES_pAPU.o
 .debug_loc     0x000142dc     0x1a45 obj\Debug\\code\infoNES\infoNES_SRC\src\K6502.o
 .debug_loc     0x00015d21      0x433 obj\Debug\\code\infoNES\infoNES_System\InfoNES_System.o
 .debug_loc     0x00016154       0x13 obj\Debug\\code\key\adc_scan.o
 .debug_loc     0x00016167       0x93 obj\Debug\\code\key\key_drv_ad.o
 .debug_loc     0x000161fa      0x1ae obj\Debug\\code\key\key_drv_manager.o
 .debug_loc     0x000163a8       0xc2 obj\Debug\\code\key\powercheck.o
 .debug_loc     0x0001646a      0xc3c obj\Debug\\code\start\car_fs_api.o
 .debug_loc     0x000170a6      0xacc obj\Debug\\code\start\dec_mode.o
 .debug_loc     0x00017b72      0x90b obj\Debug\\code\start\enc_mode.o
 .debug_loc     0x0001847d      0x485 obj\Debug\\code\start\main.o
 .debug_loc     0x00018902      0x27a obj\Debug\\code\start\mode_switch.o
 .debug_loc     0x00018b7c      0x3ec obj\Debug\\code\start\pwr_onoff.o
 .debug_loc     0x00018f68      0x70c obj\Debug\\code\start\usb_mode.o
 .debug_loc     0x00019674      0x738 obj\Debug\\code\tft_panel\ILI9325.o
 .debug_loc     0x00019dac       0x53 obj\Debug\\code\tft_panel\avout.o
 .debug_loc     0x00019dff       0x6a obj\Debug\\code\tft_panel\pap.o
 .debug_loc     0x00019e69      0x9e4 obj\Debug\\code\upgrade\upgrade.o
 .debug_loc     0x0001a84d      0x94e ..\..\..\libs\lib_vds.a(vds.o)
 .debug_loc     0x0001b19b      0x68f ..\..\..\libs\lib_vds.a(jpeg_dec_ctl.o)
 .debug_loc     0x0001b82a      0xde6 ..\..\..\libs\lib_vds.a(jpeg_dec_unpkg.o)
 .debug_loc     0x0001c610     0x10bf ..\..\..\libs\lib_ves.a(ves.o)
 .debug_loc     0x0001d6cf      0x8ea ..\..\..\libs\lib_ves.a(avi_pkg_ctrl.o)
 .debug_loc     0x0001dfb9      0x20d ..\..\..\libs\lib_ves.a(jpeg_enc_ctrl.o)
 .debug_loc     0x0001e1c6      0x742 ..\..\..\libs\lib_ves.a(jpeg_pkg_ctrl.o)
 .debug_loc     0x0001e908      0x1a9 ..\..\..\libs\lib_jpeg_dec.a(jpeg_dec_if.o)
 .debug_loc     0x0001eab1      0x1e3 ..\..\..\libs\lib_jpeg_dec.a(jpeg_dec_isr.o)
 .debug_loc     0x0001ec94      0xb40 ..\..\..\libs\lib_jpeg_dec.a(jpeg_decode.o)
 .debug_loc     0x0001f7d4      0x958 ..\..\..\libs\lib_jpeg_dec.a(jpeg_dec_head.o)
 .debug_loc     0x0002012c      0x6c0 ..\..\..\libs\lib_jpeg_enc.a(jpeg_enc_if.o)
 .debug_loc     0x000207ec      0x269 ..\..\..\libs\lib_jpeg_enc.a(jpeg_encode.o)
 .debug_loc     0x00020a55      0x31c ..\..\..\libs\lib_jpeg_enc.a(jpeg_encode_init.o)
 .debug_loc     0x00020d71      0x78b ..\..\..\libs\lib_jpeg_enc.a(jpeg_encode_isr.o)
 .debug_loc     0x000214fc     0x103e ..\..\..\libs\lib_jpeg_enc.a(Build_dynamic_huffman.o)
 .debug_loc     0x0002253a      0x134 ..\..\..\libs\lib_jpeg_enc.a(jpeg_abr.o)
 .debug_loc     0x0002266e       0xb0 ..\..\..\libs\lib_avi_pkg.a(avi_pkg_if.o)
 .debug_loc     0x0002271e      0x268 ..\..\..\libs\lib_avi_pkg.a(avi_pkg_dev.o)
 .debug_loc     0x00022986      0x178 ..\..\..\libs\lib_avi_pkg.a(avi_pkg.o)
 .debug_loc     0x00022afe      0x125 ..\..\..\libs\lib_avi_pkg.a(avi_pkg_idx.o)
 .debug_loc     0x00022c23      0x120 ..\..\..\libs\lib_malloc.a(mem_heap.o)
 .debug_loc     0x00022d43      0x684 ..\..\..\libs\libsd1.a(mango_dev_sd1.o)
 .debug_loc     0x000233c7      0x110 ..\..\..\libs\libsd1.a(sd_host_init.o)
 .debug_loc     0x000234d7      0x13a ..\..\..\libs\libsd1.a(sd_host_read_end.o)
 .debug_loc     0x00023611       0x2c ..\..\..\libs\libsd1.a(sd_host_unmount.o)
 .debug_loc     0x0002363d      0x13a ..\..\..\libs\libsd1.a(sd_host_write_end.o)
 .debug_loc     0x00023777       0xf5 ..\..\..\libs\libsd1.a(sdmmc_init.o)
 .debug_loc     0x0002386c       0x2c ..\..\..\libs\libsd1.a(suspend_sdmmc.o)
 .debug_loc     0x00023898       0xa0 ..\..\..\libs\libsd1.a(sd_host_send_csd.o)
 .debug_loc     0x00023938       0x75 ..\..\..\libs\libsd1.a(sd_host_stop_trans.o)
 .debug_loc     0x000239ad      0x16d ..\..\..\libs\libsd1.a(sd_host_hw.o)
 .debug_loc     0x00023b1a       0x62 ..\..\..\libs\libsd1.a(sd_wait_idle.o)
 .debug_loc     0x00023b7c      0x158 ..\..\..\libs\libsd1.a(sdmmc_det.o)
 .debug_loc     0x00023cd4      0x39e ..\..\..\libs\libsd1.a(sd_host_reg.o)
 .debug_loc     0x00024072       0x82 ..\..\..\libs\libsd1.a(sd_send_command.o)
 .debug_loc     0x000240f4       0x62 ..\..\..\libs\libsd1.a(sd_host_status.o)
 .debug_loc     0x00024156       0x77 ..\..\..\libs\libsd1.a(sd_host_mount.o)
 .debug_loc     0x000241cd       0xd2 ..\..\..\libs\libsd1.a(sd_host_read.o)
 .debug_loc     0x0002429f       0x57 ..\..\..\libs\libsd1.a(sd_host_timeout.o)
 .debug_loc     0x000242f6       0xdd ..\..\..\libs\libsd1.a(sd_host_write.o)
 .debug_loc     0x000243d3       0xc7 ..\..\..\libs\libsd1.a(sd_init.o)
 .debug_loc     0x0002449a       0xae ..\..\..\libs\libsd1.a(sdmmc_host_set_bus_width.o)
 .debug_loc     0x00024548       0x78 ..\..\..\libs\libsd1.a(sdmmc_host_set_hispeed.o)
 .debug_loc     0x000245c0       0x44 ..\..\..\libs\libsd1.a(mmc_host_set_bus_width.o)
 .debug_loc     0x00024604       0x44 ..\..\..\libs\libsd1.a(mmc_host_set_hispeed.o)
 .debug_loc     0x00024648       0xde ..\..\..\libs\libsd1.a(sd_host_sd_status.o)
 .debug_loc     0x00024726       0x2c ..\..\..\libs\libsd1.a(sd_host_send_rca.o)
 .debug_loc     0x00024752       0xc4 ..\..\..\libs\libsd1.a(sd_host_set_bus_width.o)
 .debug_loc     0x00024816       0x85 ..\..\..\libs\libsd1.a(sd_host_set_hispeed.o)
 .debug_loc     0x0002489b       0xe8 ..\..\..\libs\libsd1.a(sd_host_switch_func.o)
 .debug_loc     0x00024983       0x1e ..\..\..\libs\libsd1.a(sd_select_card.o)
 .debug_loc     0x000249a1       0xd1 ..\..\..\libs\libsd1.a(sd_send_scr.o)
 .debug_loc     0x00024a72       0xdf ..\..\..\libs\libsd1.a(sd_chk_ctl.o)
 .debug_loc     0x00024b51       0x9e ..\..\..\libs\libsd1.a(sd_read_start.o)
 .debug_loc     0x00024bef       0x9e ..\..\..\libs\libsd1.a(sd_write_start.o)
 .debug_loc     0x00024c8d      0x15a ..\..\..\libs\libsd1.a(sd_host_identification.o)
 .debug_loc     0x00024de7       0xe9 ..\..\..\libs\libsd1.a(sd_host_send_op_cond.o)
 .debug_loc     0x00024ed0      0xa08 ..\..\..\libs\lib_imb.a(imb_module.o)
 .debug_loc     0x000258d8      0x109 ..\..\..\libs\lib_imb.a(cve_cfg.o)
 .debug_loc     0x000259e1      0x1e8 ..\..\..\libs\lib_imb.a(imb_isr.o)
 .debug_loc     0x00025bc9      0xd78 ..\..\..\libs\lib_vm.a(vm.o)
 .debug_loc     0x00026941      0x6f9 ..\..\..\libs\lib_font.a(font_other_language.o)
 .debug_loc     0x0002703a      0x4b1 ..\..\..\libs\lib_font.a(font_out.o)
 .debug_loc     0x000274eb      0x6f9 ..\..\..\libs\lib_font.a(font_sjis.o)
 .debug_loc     0x00027be4       0x75 ..\..\..\libs\lib_font.a(font_area_ctl.o)
 .debug_loc     0x00027c59      0x1f5 ..\..\..\libs\lib_font.a(font_ascii.o)
 .debug_loc     0x00027e4e      0x657 ..\..\..\libs\lib_font.a(font_big5.o)
 .debug_loc     0x000284a5      0x7b2 ..\..\..\libs\lib_font.a(font_gbk.o)
 .debug_loc     0x00028c57      0x6dd ..\..\..\libs\lib_font.a(font_ksc.o)
 .debug_loc     0x00029334     0x19cb ..\..\..\libs\lib_uicon.a(dc_showres.o)
 .debug_loc     0x0002acff      0x14c ..\..\..\libs\lib_uicon.a(ui_get_info.o)
 .debug_loc     0x0002ae4b       0x93 ..\..\..\libs\lib_uicon.a(ui_init.o)
 .debug_loc     0x0002aede      0xb70 ..\..\..\libs\lib_uicon.a(ui_layer.o)
 .debug_loc     0x0002ba4e       0x49 ..\..\..\libs\lib_uicon.a(ui_menu.o)
 .debug_loc     0x0002ba97      0x3a6 ..\..\..\libs\lib_uicon.a(ui_menub.o)
 .debug_loc     0x0002be3d      0x1a7 ..\..\..\libs\lib_uicon.a(ui_number.o)
 .debug_loc     0x0002bfe4      0x2cd ..\..\..\libs\lib_uicon.a(ui_pic.o)
 .debug_loc     0x0002c2b1      0x953 ..\..\..\libs\lib_uicon.a(ui_text.o)
 .debug_loc     0x0002cc04      0x1f3 ..\..\..\libs\lib_uicon.a(ui_time.o)
 .debug_loc     0x0002cdf7      0x13e ..\..\..\libs\lib_uicon.a(ui_time1.o)
 .debug_loc     0x0002cf35     0x17e3 ..\..\..\libs\lib_drv_lib.a(drv_manage.o)
 .debug_loc     0x0002e718      0x3cf ..\..\..\libs\lib_dsc_ram.a(dsc_ram.o)
 .debug_loc     0x0002eae7      0x532 ..\..\..\libs\lib_vedio_ram.a(yuv_ram.o)
 .debug_loc     0x0002f019     0x2ad8 ..\..\..\libs\lib_vfs.a(vfs.o)
 .debug_loc     0x00031af1       0x80 ..\..\..\libs\lib_vfs.a(vfs_init.o)
 .debug_loc     0x00031b71      0xe30 ..\..\..\libs\lib_vfs.a(GenfsInc.o)
 .debug_loc     0x000329a1     0x4038 ..\..\..\libs\lib_vfs.a(ff.o)
 .debug_loc     0x000369d9      0x349 ..\..\..\libs\lib_vfs.a(dev_Mount.o)
 .debug_loc     0x00036d22      0x1b2 ..\..\..\libs\lib_vfs.a(dev_cache_alloc.o)
 .debug_loc     0x00036ed4       0xea ..\..\..\libs\lib_vfs.a(dev_cache_flush.o)
 .debug_loc     0x00036fbe      0x1a7 ..\..\..\libs\lib_vfs.a(dev_cache_read_only.o)
 .debug_loc     0x00037165      0x109 ..\..\..\libs\lib_vfs.a(dev_cache_write_dev.o)
 .debug_loc     0x0003726e      0x16c ..\..\..\libs\libhwi.a(cache.o)
 .debug_loc     0x000373da      0x2a6 ..\..\..\libs\libhwi.a(HWI.o)
 .debug_loc     0x00037680       0xdd ..\..\..\libs\libspi0flash.a(mango_dev_spi0flash.o)
 .debug_loc     0x0003775d      0x76f ..\..\..\libs\libspi0flash.a(spi0flash.o)
 .debug_loc     0x00037ecc      0x327 ..\..\..\libs\libspi0.a(spi0.o)
 .debug_loc     0x000381f3      0x280 ..\..\..\libs\lib_audio.a(ladc.o)
 .debug_loc     0x00038473      0x215 ..\..\..\libs\lib_audio.a(audio.o)
 .debug_loc     0x00038688      0x1fb ..\..\..\libs\lib_audio.a(dac.o)
 .debug_loc     0x00038883      0x5ef ..\..\..\libs\lib_usb_slave.a(usb_slave_main.o)
 .debug_loc     0x00038e72      0xc65 ..\..\..\libs\lib_usb_slave.a(msd2video_ctrl.o)
 .debug_loc     0x00039ad7      0x4ce ..\..\..\libs\lib_usb_slave.a(msd_dev_update.o)
 .debug_loc     0x00039fa5      0xa68 ..\..\..\libs\lib_usb_slave.a(msd_main.o)
 .debug_loc     0x0003aa0d     0x11c8 ..\..\..\libs\lib_usb_slave.a(video_main.o)
 .debug_loc     0x0003bbd5      0x2cb ..\..\..\libs\lib_usb_slave.a(audio_main.o)
 .debug_loc     0x0003bea0      0x45c ..\..\..\libs\lib_usb_slave.a(core_descriptor.o)
 .debug_loc     0x0003c2fc      0x21c ..\..\..\libs\lib_usb_slave.a(usb_phy.o)
 .debug_loc     0x0003c518      0x9a5 ..\..\..\libs\lib_usb_slave.a(usb_setup.o)
 .debug_loc     0x0003cebd      0x76f ..\..\..\libs\librtos.a(os_core.o)
 .debug_loc     0x0003d62c      0x375 ..\..\..\libs\librtos.a(os_mutex.o)
 .debug_loc     0x0003d9a1      0x289 ..\..\..\libs\librtos.a(os_sem.o)
 .debug_loc     0x0003dc2a     0x131f ..\..\..\libs\librtos.a(os_task.o)
 .debug_loc     0x0003ef49       0xf6 ..\..\..\libs\librtos.a(os_time.o)
 .debug_loc     0x0003f03f      0x29e ..\..\..\libs\librtos.a(os_api.o)
 .debug_loc     0x0003f2dd       0xd3 ..\..\..\libs\librtos.a(os_cpu_c.o)
 .debug_loc     0x0003f3b0      0x3e6 ..\..\..\libs\lib_common.a(time.o)
 .debug_loc     0x0003f796      0xed3 ..\..\..\libs\lib_common.a(Vsnprintf.o)
 .debug_loc     0x00040669       0x3e C:\JL\dv12\lib\libc.a(lib_a-isalnum.o)
 .debug_loc     0x000406a7      0x167 C:\JL\dv12\lib\libc.a(lib_a-memcmp.o)
 .debug_loc     0x0004080e      0x17d C:\JL\dv12\lib\libc.a(lib_a-memcpy.o)
 .debug_loc     0x0004098b      0x1dc C:\JL\dv12\lib\libc.a(lib_a-memmove.o)
 .debug_loc     0x00040b67      0x1a1 C:\JL\dv12\lib\libc.a(lib_a-memset.o)
 .debug_loc     0x00040d08       0xfc C:\JL\dv12\lib\libc.a(lib_a-strcat.o)
 .debug_loc     0x00040e04      0x112 C:\JL\dv12\lib\libc.a(lib_a-strcmp.o)
 .debug_loc     0x00040f16      0x117 C:\JL\dv12\lib\libc.a(lib_a-strcpy.o)
 .debug_loc     0x0004102d      0x115 C:\JL\dv12\lib\libc.a(lib_a-strlen.o)
 .debug_loc     0x00041142      0x229 C:\JL\dv12\lib\libc.a(lib_a-strncmp.o)
 .debug_loc     0x0004136b      0x12e C:\JL\dv12\lib\libc.a(lib_a-strncpy.o)
 .debug_loc     0x00041499       0x9f C:\JL\dv12\lib\libc.a(lib_a-strnlen.o)
 .debug_loc     0x00041538       0xa5 C:\JL\dv12\lib\libgcc.a(_lshrdi3.o)
 .debug_loc     0x000415dd      0xeff C:\JL\dv12\lib\libgcc.a(_divdi3.o)
 .debug_loc     0x000424dc      0x698 C:\JL\dv12\lib\libgcc.a(divsf3.o)
 .debug_loc     0x00042b74      0x14f C:\JL\dv12\lib\libgcc.a(fixunssfsi.o)
 .debug_loc     0x00042cc3      0x1e7 C:\JL\dv12\lib\libgcc.a(floatunsisf.o)
 .debug_loc     0x00042eaa       0x5c C:\JL\dv12\lib\libgcc.a(_clzsi2.o)

.debug_pubnames
                0x00000000     0xdb57
 .debug_pubnames
                0x00000000      0x44f obj\Debug\\code\FileSelecter\FileSelecter.o
 .debug_pubnames
                0x0000044f      0x2a8 obj\Debug\\code\FileSelecter\pb_fctrl.o
 .debug_pubnames
                0x000006f7      0x13b obj\Debug\\code\Peripherals\G_Sensor\GMA301.o
 .debug_pubnames
                0x00000832      0x14a obj\Debug\\code\Peripherals\G_Sensor\da380.o
 .debug_pubnames
                0x0000097c       0xae obj\Debug\\code\Peripherals\G_Sensor\gravity_sensor_api.o
 .debug_pubnames
                0x00000a2a      0x158 obj\Debug\\code\Peripherals\G_Sensor\gravity_sensor_manage.o
 .debug_pubnames
                0x00000b82       0x8e obj\Debug\\code\Peripherals\G_Sensor\i2c.o
 .debug_pubnames
                0x00000c10       0x48 obj\Debug\\code\Peripherals\G_Sensor\parking_guard.o
 .debug_pubnames
                0x00000c58      0x17b obj\Debug\\code\Peripherals\G_Sensor\stk8312.o
 .debug_pubnames
                0x00000dd3      0x13e obj\Debug\\code\Peripherals\clock.o
 .debug_pubnames
                0x00000f11       0xdd obj\Debug\\code\Peripherals\timer.o
 .debug_pubnames
                0x00000fee      0x171 obj\Debug\\code\Peripherals\uart.o
 .debug_pubnames
                0x0000115f       0x54 obj\Debug\\code\Peripherals\user_isp_cfg.o
 .debug_pubnames
                0x000011b3       0x36 obj\Debug\\code\Peripherals\wdt.o
 .debug_pubnames
                0x000011e9      0x13f obj\Debug\\code\StorDev\dev_ctrl.o
 .debug_pubnames
                0x00001328      0x29e obj\Debug\\code\common\audio_api.o
 .debug_pubnames
                0x000015c6       0xc9 obj\Debug\\code\common\common.o
 .debug_pubnames
                0x0000168f       0x66 obj\Debug\\code\common\printf-stdarg.o
 .debug_pubnames
                0x000016f5       0x62 obj\Debug\\code\common\vm_api.o
 .debug_pubnames
                0x00001757      0x117 obj\Debug\\code\disp_ctrl\lcd.o
 .debug_pubnames
                0x0000186e      0x963 obj\Debug\\code\disp_ctrl\my_ui1.o
 .debug_pubnames
                0x000021d1      0x5e7 obj\Debug\\code\disp_ctrl\ui_task.o
 .debug_pubnames
                0x000027b8       0x2f obj\Debug\\code\infoNES\NES_GAME\ddl.o
 .debug_pubnames
                0x000027e7       0x31 obj\Debug\\code\infoNES\NES_GAME\fj.o
 .debug_pubnames
                0x00002818       0x2f obj\Debug\\code\infoNES\NES_GAME\gef.o
 .debug_pubnames
                0x00002847       0x1f obj\Debug\\code\infoNES\infoNES_PORT\nes_port.o
 .debug_pubnames
                0x00002866      0x558 obj\Debug\\code\infoNES\infoNES_SRC\src\InfoNES.o
 .debug_pubnames
                0x00002dbe     0x35e4 obj\Debug\\code\infoNES\infoNES_SRC\src\InfoNES_Mapper.o
 .debug_pubnames
                0x000063a2      0x744 obj\Debug\\code\infoNES\infoNES_SRC\src\InfoNES_pAPU.o
 .debug_pubnames
                0x00006ae6      0x11b obj\Debug\\code\infoNES\infoNES_SRC\src\K6502.o
 .debug_pubnames
                0x00006c01      0x195 obj\Debug\\code\infoNES\infoNES_System\InfoNES_System.o
 .debug_pubnames
                0x00006d96       0x4f obj\Debug\\code\key\adc_scan.o
 .debug_pubnames
                0x00006de5       0x54 obj\Debug\\code\key\key_drv_ad.o
 .debug_pubnames
                0x00006e39       0x75 obj\Debug\\code\key\key_drv_manager.o
 .debug_pubnames
                0x00006eae       0x6b obj\Debug\\code\key\powercheck.o
 .debug_pubnames
                0x00006f19      0x235 obj\Debug\\code\start\car_fs_api.o
 .debug_pubnames
                0x0000714e      0x1cb obj\Debug\\code\start\dec_mode.o
 .debug_pubnames
                0x00007319      0x3c0 obj\Debug\\code\start\enc_mode.o
 .debug_pubnames
                0x000076d9      0x423 obj\Debug\\code\start\main.o
 .debug_pubnames
                0x00007afc      0x187 obj\Debug\\code\start\mode_switch.o
 .debug_pubnames
                0x00007c83      0x14f obj\Debug\\code\start\pwr_onoff.o
 .debug_pubnames
                0x00007dd2      0x236 obj\Debug\\code\start\usb_mode.o
 .debug_pubnames
                0x00008008      0x16e obj\Debug\\code\tft_panel\ILI9325.o
 .debug_pubnames
                0x00008176       0x92 obj\Debug\\code\tft_panel\avout.o
 .debug_pubnames
                0x00008208       0x6d obj\Debug\\code\tft_panel\pap.o
 .debug_pubnames
                0x00008275      0x1bc obj\Debug\\code\upgrade\upgrade.o
 .debug_pubnames
                0x00008431       0xdf ..\..\..\libs\lib_vds.a(vds.o)
 .debug_pubnames
                0x00008510       0xb1 ..\..\..\libs\lib_vds.a(jpeg_dec_ctl.o)
 .debug_pubnames
                0x000085c1      0x1e6 ..\..\..\libs\lib_vds.a(jpeg_dec_unpkg.o)
 .debug_pubnames
                0x000087a7      0x1dd ..\..\..\libs\lib_ves.a(ves.o)
 .debug_pubnames
                0x00008984       0xe1 ..\..\..\libs\lib_ves.a(avi_pkg_ctrl.o)
 .debug_pubnames
                0x00008a65       0xd0 ..\..\..\libs\lib_ves.a(jpeg_enc_ctrl.o)
 .debug_pubnames
                0x00008b35      0x101 ..\..\..\libs\lib_ves.a(jpeg_pkg_ctrl.o)
 .debug_pubnames
                0x00008c36       0x3e ..\..\..\libs\lib_jpeg_dec.a(jpeg_dec_if.o)
 .debug_pubnames
                0x00008c74      0x118 ..\..\..\libs\lib_jpeg_dec.a(jpeg_dec_isr.o)
 .debug_pubnames
                0x00008d8c       0xc4 ..\..\..\libs\lib_jpeg_dec.a(jpeg_decode.o)
 .debug_pubnames
                0x00008e50      0x132 ..\..\..\libs\lib_jpeg_dec.a(jpeg_dec_head.o)
 .debug_pubnames
                0x00008f82      0x1c0 ..\..\..\libs\lib_jpeg_enc.a(jpeg_enc_if.o)
 .debug_pubnames
                0x00009142       0x70 ..\..\..\libs\lib_jpeg_enc.a(jpeg_encode.o)
 .debug_pubnames
                0x000091b2       0xb7 ..\..\..\libs\lib_jpeg_enc.a(jpeg_encode_init.o)
 .debug_pubnames
                0x00009269      0x127 ..\..\..\libs\lib_jpeg_enc.a(jpeg_encode_isr.o)
 .debug_pubnames
                0x00009390      0x387 ..\..\..\libs\lib_jpeg_enc.a(Build_dynamic_huffman.o)
 .debug_pubnames
                0x00009717       0x4c ..\..\..\libs\lib_jpeg_enc.a(jpeg_abr.o)
 .debug_pubnames
                0x00009763       0x7f ..\..\..\libs\lib_avi_pkg.a(avi_pkg_if.o)
 .debug_pubnames
                0x000097e2      0x13f ..\..\..\libs\lib_avi_pkg.a(avi_pkg_dev.o)
 .debug_pubnames
                0x00009921      0x120 ..\..\..\libs\lib_avi_pkg.a(avi_pkg.o)
 .debug_pubnames
                0x00009a41       0x26 ..\..\..\libs\lib_avi_pkg.a(avi_pkg_head.o)
 .debug_pubnames
                0x00009a67       0x9d ..\..\..\libs\lib_avi_pkg.a(avi_pkg_idx.o)
 .debug_pubnames
                0x00009b04       0x6e ..\..\..\libs\lib_malloc.a(mem_heap.o)
 .debug_pubnames
                0x00009b72       0x9a ..\..\..\libs\libsd1.a(mango_dev_sd1.o)
 .debug_pubnames
                0x00009c0c       0x34 ..\..\..\libs\libsd1.a(sd_host_init.o)
 .debug_pubnames
                0x00009c40       0x23 ..\..\..\libs\libsd1.a(sd_host_read_end.o)
 .debug_pubnames
                0x00009c63       0x22 ..\..\..\libs\libsd1.a(sd_host_unmount.o)
 .debug_pubnames
                0x00009c85       0x24 ..\..\..\libs\libsd1.a(sd_host_write_end.o)
 .debug_pubnames
                0x00009ca9       0x6d ..\..\..\libs\libsd1.a(sdmmc_init.o)
 .debug_pubnames
                0x00009d16       0x22 ..\..\..\libs\libsd1.a(suspend_sdmmc.o)
 .debug_pubnames
                0x00009d38       0x3d ..\..\..\libs\libsd1.a(sd_host_send_csd.o)
 .debug_pubnames
                0x00009d75       0x2a ..\..\..\libs\libsd1.a(sd_host_stop_trans.o)
 .debug_pubnames
                0x00009d9f       0x53 ..\..\..\libs\libsd1.a(sd_host_hw.o)
 .debug_pubnames
                0x00009df2       0x24 ..\..\..\libs\libsd1.a(sd_wait_idle.o)
 .debug_pubnames
                0x00009e16       0x68 ..\..\..\libs\libsd1.a(sdmmc_det.o)
 .debug_pubnames
                0x00009e7e      0x2fe ..\..\..\libs\libsd1.a(sd_host_reg.o)
 .debug_pubnames
                0x0000a17c       0x27 ..\..\..\libs\libsd1.a(sd_send_command.o)
 .debug_pubnames
                0x0000a1a3       0x37 ..\..\..\libs\libsd1.a(sd_host_status.o)
 .debug_pubnames
                0x0000a1da       0x25 ..\..\..\libs\libsd1.a(sd_host_args.o)
 .debug_pubnames
                0x0000a1ff       0x20 ..\..\..\libs\libsd1.a(sd_host_mount.o)
 .debug_pubnames
                0x0000a21f       0x1f ..\..\..\libs\libsd1.a(sd_host_read.o)
 .debug_pubnames
                0x0000a23e       0x40 ..\..\..\libs\libsd1.a(sd_host_timeout.o)
 .debug_pubnames
                0x0000a27e       0x20 ..\..\..\libs\libsd1.a(sd_host_write.o)
 .debug_pubnames
                0x0000a29e       0x24 ..\..\..\libs\libsd1.a(sd_init.o)
 .debug_pubnames
                0x0000a2c2       0x28 ..\..\..\libs\libsd1.a(sdmmc_host_set_bus_width.o)
 .debug_pubnames
                0x0000a2ea       0x26 ..\..\..\libs\libsd1.a(sdmmc_host_set_hispeed.o)
 .debug_pubnames
                0x0000a310       0x29 ..\..\..\libs\libsd1.a(mmc_host_send_rca.o)
 .debug_pubnames
                0x0000a339       0x2e ..\..\..\libs\libsd1.a(mmc_host_set_bus_width.o)
 .debug_pubnames
                0x0000a367       0x2c ..\..\..\libs\libsd1.a(mmc_host_set_hispeed.o)
 .debug_pubnames
                0x0000a393       0x2c ..\..\..\libs\libsd1.a(sd_host_all_send_cid.o)
 .debug_pubnames
                0x0000a3bf       0x25 ..\..\..\libs\libsd1.a(sd_host_reset.o)
 .debug_pubnames
                0x0000a3e4       0x29 ..\..\..\libs\libsd1.a(sd_host_sd_status.o)
 .debug_pubnames
                0x0000a40d       0x2c ..\..\..\libs\libsd1.a(sd_host_send_if_cond.o)
 .debug_pubnames
                0x0000a439       0x28 ..\..\..\libs\libsd1.a(sd_host_send_rca.o)
 .debug_pubnames
                0x0000a461       0x2d ..\..\..\libs\libsd1.a(sd_host_set_bus_width.o)
 .debug_pubnames
                0x0000a48e       0x2b ..\..\..\libs\libsd1.a(sd_host_set_hispeed.o)
 .debug_pubnames
                0x0000a4b9       0x2b ..\..\..\libs\libsd1.a(sd_host_switch_func.o)
 .debug_pubnames
                0x0000a4e4       0x26 ..\..\..\libs\libsd1.a(sd_select_card.o)
 .debug_pubnames
                0x0000a50a       0x23 ..\..\..\libs\libsd1.a(sd_send_scr.o)
 .debug_pubnames
                0x0000a52d       0x22 ..\..\..\libs\libsd1.a(sd_chk_ctl.o)
 .debug_pubnames
                0x0000a54f       0x25 ..\..\..\libs\libsd1.a(sd_read_start.o)
 .debug_pubnames
                0x0000a574       0x26 ..\..\..\libs\libsd1.a(sd_write_start.o)
 .debug_pubnames
                0x0000a59a       0x2e ..\..\..\libs\libsd1.a(sd_host_identification.o)
 .debug_pubnames
                0x0000a5c8       0x2d ..\..\..\libs\libsd1.a(mmc_host_send_op_cond.o)
 .debug_pubnames
                0x0000a5f5       0x27 ..\..\..\libs\libsd1.a(sd_host_app_cmd.o)
 .debug_pubnames
                0x0000a61c       0x2c ..\..\..\libs\libsd1.a(sd_host_send_op_cond.o)
 .debug_pubnames
                0x0000a648      0x3cf ..\..\..\libs\lib_imb.a(imb_module.o)
 .debug_pubnames
                0x0000aa17       0x5d ..\..\..\libs\lib_imb.a(cve_cfg.o)
 .debug_pubnames
                0x0000aa74       0x5c ..\..\..\libs\lib_imb.a(imb_isr.o)
 .debug_pubnames
                0x0000aad0       0x88 ..\..\..\libs\lib_vm.a(vm.o)
 .debug_pubnames
                0x0000ab58      0x12d ..\..\..\libs\lib_font.a(font_other_language.o)
 .debug_pubnames
                0x0000ac85      0x115 ..\..\..\libs\lib_font.a(font_out.o)
 .debug_pubnames
                0x0000ad9a       0xa1 ..\..\..\libs\lib_font.a(font_sjis.o)
 .debug_pubnames
                0x0000ae3b       0x8f ..\..\..\libs\lib_font.a(font_area_ctl.o)
 .debug_pubnames
                0x0000aeca       0x31 ..\..\..\libs\lib_font.a(font_ascii.o)
 .debug_pubnames
                0x0000aefb       0x85 ..\..\..\libs\lib_font.a(font_big5.o)
 .debug_pubnames
                0x0000af80       0xe9 ..\..\..\libs\lib_font.a(font_gbk.o)
 .debug_pubnames
                0x0000b069       0x80 ..\..\..\libs\lib_font.a(font_ksc.o)
 .debug_pubnames
                0x0000b0e9      0x193 ..\..\..\libs\lib_uicon.a(dc_showres.o)
 .debug_pubnames
                0x0000b27c       0x46 ..\..\..\libs\lib_uicon.a(ui_get_info.o)
 .debug_pubnames
                0x0000b2c2       0x44 ..\..\..\libs\lib_uicon.a(ui_init.o)
 .debug_pubnames
                0x0000b306       0x9d ..\..\..\libs\lib_uicon.a(ui_layer.o)
 .debug_pubnames
                0x0000b3a3      0x12a ..\..\..\libs\lib_uicon.a(ui_menu.o)
 .debug_pubnames
                0x0000b4cd       0x2c ..\..\..\libs\lib_uicon.a(ui_menub.o)
 .debug_pubnames
                0x0000b4f9       0x40 ..\..\..\libs\lib_uicon.a(ui_number.o)
 .debug_pubnames
                0x0000b539       0x60 ..\..\..\libs\lib_uicon.a(ui_pic.o)
 .debug_pubnames
                0x0000b599       0x50 ..\..\..\libs\lib_uicon.a(ui_sdfs.o)
 .debug_pubnames
                0x0000b5e9       0xe6 ..\..\..\libs\lib_uicon.a(ui_text.o)
 .debug_pubnames
                0x0000b6cf       0x2c ..\..\..\libs\lib_uicon.a(ui_time.o)
 .debug_pubnames
                0x0000b6fb       0x3c ..\..\..\libs\lib_uicon.a(ui_time1.o)
 .debug_pubnames
                0x0000b737       0xf8 ..\..\..\libs\lib_drv_lib.a(drv_manage.o)
 .debug_pubnames
                0x0000b82f       0xd1 ..\..\..\libs\lib_dsc_ram.a(dsc_ram.o)
 .debug_pubnames
                0x0000b900      0x133 ..\..\..\libs\lib_vedio_ram.a(yuv_ram.o)
 .debug_pubnames
                0x0000ba33      0x36a ..\..\..\libs\lib_vfs.a(vfs.o)
 .debug_pubnames
                0x0000bd9d       0xb5 ..\..\..\libs\lib_vfs.a(vfs_init.o)
 .debug_pubnames
                0x0000be52      0x274 ..\..\..\libs\lib_vfs.a(GenfsInc.o)
 .debug_pubnames
                0x0000c0c6      0x1b8 ..\..\..\libs\lib_vfs.a(ff.o)
 .debug_pubnames
                0x0000c27e       0x61 ..\..\..\libs\lib_vfs.a(dev_Mount.o)
 .debug_pubnames
                0x0000c2df       0x25 ..\..\..\libs\lib_vfs.a(dev_cache_alloc.o)
 .debug_pubnames
                0x0000c304       0x25 ..\..\..\libs\lib_vfs.a(dev_cache_flush.o)
 .debug_pubnames
                0x0000c329       0x3a ..\..\..\libs\lib_vfs.a(dev_cache_read_only.o)
 .debug_pubnames
                0x0000c363       0x24 ..\..\..\libs\lib_vfs.a(dev_cache_write_dev.o)
 .debug_pubnames
                0x0000c387       0x33 ..\..\..\libs\lib_vfs.a(fs_api.o)
 .debug_pubnames
                0x0000c3ba       0x47 ..\..\..\libs\lib_vfs.a(dev_Cache.o)
 .debug_pubnames
                0x0000c401       0x72 ..\..\..\libs\libhwi.a(cache.o)
 .debug_pubnames
                0x0000c473      0x115 ..\..\..\libs\libhwi.a(HWI.o)
 .debug_pubnames
                0x0000c588       0x38 ..\..\..\libs\libspi0flash.a(mango_dev_spi0flash.o)
 .debug_pubnames
                0x0000c5c0       0xea ..\..\..\libs\libspi0flash.a(spi0flash.o)
 .debug_pubnames
                0x0000c6aa       0xe5 ..\..\..\libs\libspi0.a(spi0.o)
 .debug_pubnames
                0x0000c78f      0x118 ..\..\..\libs\lib_audio.a(ladc.o)
 .debug_pubnames
                0x0000c8a7       0x63 ..\..\..\libs\lib_audio.a(audio.o)
 .debug_pubnames
                0x0000c90a       0x60 ..\..\..\libs\lib_audio.a(dac.o)
 .debug_pubnames
                0x0000c96a       0x3b ..\..\..\libs\lib_usb_slave.a(usb_slave_main.o)
 .debug_pubnames
                0x0000c9a5       0xd0 ..\..\..\libs\lib_usb_slave.a(msd2video_ctrl.o)
 .debug_pubnames
                0x0000ca75       0x4e ..\..\..\libs\lib_usb_slave.a(msd_dev_update.o)
 .debug_pubnames
                0x0000cac3       0xcb ..\..\..\libs\lib_usb_slave.a(msd_main.o)
 .debug_pubnames
                0x0000cb8e      0x2dc ..\..\..\libs\lib_usb_slave.a(video_main.o)
 .debug_pubnames
                0x0000ce6a       0x7f ..\..\..\libs\lib_usb_slave.a(audio_main.o)
 .debug_pubnames
                0x0000cee9       0xaa ..\..\..\libs\lib_usb_slave.a(core_descriptor.o)
 .debug_pubnames
                0x0000cf93       0x76 ..\..\..\libs\lib_usb_slave.a(usb_phy.o)
 .debug_pubnames
                0x0000d009       0x62 ..\..\..\libs\lib_usb_slave.a(usb_setup.o)
 .debug_pubnames
                0x0000d06b       0x26 ..\..\..\libs\lib_usb_slave.a(msd_descriptor.o)
 .debug_pubnames
                0x0000d091       0x9a ..\..\..\libs\lib_usb_slave.a(video_descriptor.o)
 .debug_pubnames
                0x0000d12b       0xbb ..\..\..\libs\lib_usb_slave.a(audio_descriptor.o)
 .debug_pubnames
                0x0000d1e6      0x229 ..\..\..\libs\librtos.a(os_core.o)
 .debug_pubnames
                0x0000d40f       0x65 ..\..\..\libs\librtos.a(os_mutex.o)
 .debug_pubnames
                0x0000d474       0x68 ..\..\..\libs\librtos.a(os_sem.o)
 .debug_pubnames
                0x0000d4dc      0x183 ..\..\..\libs\librtos.a(os_task.o)
 .debug_pubnames
                0x0000d65f       0x50 ..\..\..\libs\librtos.a(os_time.o)
 .debug_pubnames
                0x0000d6af       0xba ..\..\..\libs\librtos.a(os_api.o)
 .debug_pubnames
                0x0000d769       0x96 ..\..\..\libs\librtos.a(os_cpu_c.o)
 .debug_pubnames
                0x0000d7ff       0xb6 ..\..\..\libs\lib_common.a(time.o)
 .debug_pubnames
                0x0000d8b5       0x2d ..\..\..\libs\lib_common.a(Vsnprintf.o)
 .debug_pubnames
                0x0000d8e2       0x1e C:\JL\dv12\lib\libc.a(lib_a-isalnum.o)
 .debug_pubnames
                0x0000d900       0x1d C:\JL\dv12\lib\libc.a(lib_a-memcmp.o)
 .debug_pubnames
                0x0000d91d       0x1d C:\JL\dv12\lib\libc.a(lib_a-memcpy.o)
 .debug_pubnames
                0x0000d93a       0x1e C:\JL\dv12\lib\libc.a(lib_a-memmove.o)
 .debug_pubnames
                0x0000d958       0x1d C:\JL\dv12\lib\libc.a(lib_a-memset.o)
 .debug_pubnames
                0x0000d975       0x1d C:\JL\dv12\lib\libc.a(lib_a-strcat.o)
 .debug_pubnames
                0x0000d992       0x1d C:\JL\dv12\lib\libc.a(lib_a-strcmp.o)
 .debug_pubnames
                0x0000d9af       0x1d C:\JL\dv12\lib\libc.a(lib_a-strcpy.o)
 .debug_pubnames
                0x0000d9cc       0x1d C:\JL\dv12\lib\libc.a(lib_a-strlen.o)
 .debug_pubnames
                0x0000d9e9       0x1e C:\JL\dv12\lib\libc.a(lib_a-strncmp.o)
 .debug_pubnames
                0x0000da07       0x1e C:\JL\dv12\lib\libc.a(lib_a-strncpy.o)
 .debug_pubnames
                0x0000da25       0x1e C:\JL\dv12\lib\libc.a(lib_a-strnlen.o)
 .debug_pubnames
                0x0000da43       0x30 C:\JL\dv12\lib\libc.a(lib_a-ctype_.o)
 .debug_pubnames
                0x0000da73       0x20 C:\JL\dv12\lib\libgcc.a(_lshrdi3.o)
 .debug_pubnames
                0x0000da93       0x1f C:\JL\dv12\lib\libgcc.a(_divdi3.o)
 .debug_pubnames
                0x0000dab2       0x1f C:\JL\dv12\lib\libgcc.a(divsf3.o)
 .debug_pubnames
                0x0000dad1       0x23 C:\JL\dv12\lib\libgcc.a(fixunssfsi.o)
 .debug_pubnames
                0x0000daf4       0x24 C:\JL\dv12\lib\libgcc.a(floatunsisf.o)
 .debug_pubnames
                0x0000db18       0x20 C:\JL\dv12\lib\libgcc.a(_clz.o)
 .debug_pubnames
                0x0000db38       0x1f C:\JL\dv12\lib\libgcc.a(_clzsi2.o)

.debug_pubtypes
                0x00000000     0xb1a5
 .debug_pubtypes
                0x00000000      0x223 obj\Debug\\code\FileSelecter\FileSelecter.o
 .debug_pubtypes
                0x00000223      0x134 obj\Debug\\code\FileSelecter\pb_fctrl.o
 .debug_pubtypes
                0x00000357       0xe4 obj\Debug\\code\Peripherals\G_Sensor\GMA301.o
 .debug_pubtypes
                0x0000043b       0xea obj\Debug\\code\Peripherals\G_Sensor\da380.o
 .debug_pubtypes
                0x00000525       0x99 obj\Debug\\code\Peripherals\G_Sensor\gravity_sensor_api.o
 .debug_pubtypes
                0x000005be      0x149 obj\Debug\\code\Peripherals\G_Sensor\gravity_sensor_manage.o
 .debug_pubtypes
                0x00000707       0x21 obj\Debug\\code\Peripherals\G_Sensor\i2c.o
 .debug_pubtypes
                0x00000728       0x99 obj\Debug\\code\Peripherals\G_Sensor\parking_guard.o
 .debug_pubtypes
                0x000007c1       0xea obj\Debug\\code\Peripherals\G_Sensor\stk8312.o
 .debug_pubtypes
                0x000008ab       0x63 obj\Debug\\code\Peripherals\clock.o
 .debug_pubtypes
                0x0000090e       0x61 obj\Debug\\code\Peripherals\timer.o
 .debug_pubtypes
                0x0000096f       0xa6 obj\Debug\\code\Peripherals\uart.o
 .debug_pubtypes
                0x00000a15      0x145 obj\Debug\\code\Peripherals\user_isp_cfg.o
 .debug_pubtypes
                0x00000b5a       0x21 obj\Debug\\code\Peripherals\wdt.o
 .debug_pubtypes
                0x00000b7b      0x1e5 obj\Debug\\code\StorDev\dev_ctrl.o
 .debug_pubtypes
                0x00000d60      0x2c6 obj\Debug\\code\common\audio_api.o
 .debug_pubtypes
                0x00001026       0x32 obj\Debug\\code\common\common.o
 .debug_pubtypes
                0x00001058       0x12 obj\Debug\\code\common\fcvt.o
 .debug_pubtypes
                0x0000106a       0x31 obj\Debug\\code\common\printf-stdarg.o
 .debug_pubtypes
                0x0000109b      0x185 obj\Debug\\code\common\vm_api.o
 .debug_pubtypes
                0x00001220       0x70 obj\Debug\\code\disp_ctrl\lcd.o
 .debug_pubtypes
                0x00001290      0x2ed obj\Debug\\code\disp_ctrl\my_ui1.o
 .debug_pubtypes
                0x0000157d      0x454 obj\Debug\\code\disp_ctrl\ui_task.o
 .debug_pubtypes
                0x000019d1       0x12 obj\Debug\\code\infoNES\infoNES_PORT\nes_port.o
 .debug_pubtypes
                0x000019e3       0x54 obj\Debug\\code\infoNES\infoNES_SRC\src\InfoNES.o
 .debug_pubtypes
                0x00001a37       0x83 obj\Debug\\code\infoNES\infoNES_SRC\src\InfoNES_Mapper.o
 .debug_pubtypes
                0x00001aba       0x63 obj\Debug\\code\infoNES\infoNES_SRC\src\InfoNES_pAPU.o
 .debug_pubtypes
                0x00001b1d       0x53 obj\Debug\\code\infoNES\infoNES_SRC\src\K6502.o
 .debug_pubtypes
                0x00001b70       0x77 obj\Debug\\code\infoNES\infoNES_System\InfoNES_System.o
 .debug_pubtypes
                0x00001be7       0x21 obj\Debug\\code\key\adc_scan.o
 .debug_pubtypes
                0x00001c08       0x2d obj\Debug\\code\key\key_drv_ad.o
 .debug_pubtypes
                0x00001c35       0x67 obj\Debug\\code\key\key_drv_manager.o
 .debug_pubtypes
                0x00001c9c       0x29 obj\Debug\\code\key\powercheck.o
 .debug_pubtypes
                0x00001cc5      0x123 obj\Debug\\code\start\car_fs_api.o
 .debug_pubtypes
                0x00001de8      0x457 obj\Debug\\code\start\dec_mode.o
 .debug_pubtypes
                0x0000223f      0x42c obj\Debug\\code\start\enc_mode.o
 .debug_pubtypes
                0x0000266b      0x320 obj\Debug\\code\start\main.o
 .debug_pubtypes
                0x0000298b      0x31e obj\Debug\\code\start\mode_switch.o
 .debug_pubtypes
                0x00002ca9      0x1e6 obj\Debug\\code\start\pwr_onoff.o
 .debug_pubtypes
                0x00002e8f      0x4d6 obj\Debug\\code\start\usb_mode.o
 .debug_pubtypes
                0x00003365       0x12 obj\Debug\\code\tft_panel\ILI8960.o
 .debug_pubtypes
                0x00003377       0x12 obj\Debug\\code\tft_panel\ILI8961.o
 .debug_pubtypes
                0x00003389       0x12 obj\Debug\\code\tft_panel\ILI9163.o
 .debug_pubtypes
                0x0000339b       0x7d obj\Debug\\code\tft_panel\ILI9325.o
 .debug_pubtypes
                0x00003418       0x12 obj\Debug\\code\tft_panel\LCD_RM68116.o
 .debug_pubtypes
                0x0000342a       0x12 obj\Debug\\code\tft_panel\LQ026B3UX01.o
 .debug_pubtypes
                0x0000343c       0x12 obj\Debug\\code\tft_panel\SSD1963.o
 .debug_pubtypes
                0x0000344e       0x12 obj\Debug\\code\tft_panel\ST7735S.o
 .debug_pubtypes
                0x00003460       0x12 obj\Debug\\code\tft_panel\T15P00.o
 .debug_pubtypes
                0x00003472       0xcb obj\Debug\\code\tft_panel\avout.o
 .debug_pubtypes
                0x0000353d       0x12 obj\Debug\\code\tft_panel\disp_43inch.o
 .debug_pubtypes
                0x0000354f       0x12 obj\Debug\\code\tft_panel\disp_8inch.o
 .debug_pubtypes
                0x00003561       0x12 obj\Debug\\code\tft_panel\disp_JC4301.o
 .debug_pubtypes
                0x00003573       0x22 obj\Debug\\code\tft_panel\pap.o
 .debug_pubtypes
                0x00003595      0x22a obj\Debug\\code\upgrade\upgrade.o
 .debug_pubtypes
                0x000037bf      0x43f ..\..\..\libs\lib_vds.a(vds.o)
 .debug_pubtypes
                0x00003bfe      0x365 ..\..\..\libs\lib_vds.a(jpeg_dec_ctl.o)
 .debug_pubtypes
                0x00003f63      0x495 ..\..\..\libs\lib_vds.a(jpeg_dec_unpkg.o)
 .debug_pubtypes
                0x000043f8      0x64b ..\..\..\libs\lib_ves.a(ves.o)
 .debug_pubtypes
                0x00004a43      0x2c4 ..\..\..\libs\lib_ves.a(avi_pkg_ctrl.o)
 .debug_pubtypes
                0x00004d07      0x1be ..\..\..\libs\lib_ves.a(jpeg_enc_ctrl.o)
 .debug_pubtypes
                0x00004ec5      0x1ef ..\..\..\libs\lib_ves.a(jpeg_pkg_ctrl.o)
 .debug_pubtypes
                0x000050b4       0xbb ..\..\..\libs\lib_jpeg_dec.a(jpeg_dec_if.o)
 .debug_pubtypes
                0x0000516f      0x1c8 ..\..\..\libs\lib_jpeg_dec.a(jpeg_dec_isr.o)
 .debug_pubtypes
                0x00005337      0x157 ..\..\..\libs\lib_jpeg_dec.a(jpeg_decode.o)
 .debug_pubtypes
                0x0000548e      0x160 ..\..\..\libs\lib_jpeg_dec.a(jpeg_dec_head.o)
 .debug_pubtypes
                0x000055ee      0x178 ..\..\..\libs\lib_jpeg_enc.a(jpeg_enc_if.o)
 .debug_pubtypes
                0x00005766      0x16f ..\..\..\libs\lib_jpeg_enc.a(jpeg_encode.o)
 .debug_pubtypes
                0x000058d5      0x16f ..\..\..\libs\lib_jpeg_enc.a(jpeg_encode_init.o)
 .debug_pubtypes
                0x00005a44      0x151 ..\..\..\libs\lib_jpeg_enc.a(jpeg_encode_isr.o)
 .debug_pubtypes
                0x00005b95      0x190 ..\..\..\libs\lib_jpeg_enc.a(Build_dynamic_huffman.o)
 .debug_pubtypes
                0x00005d25       0x3f ..\..\..\libs\lib_jpeg_enc.a(jpeg_abr.o)
 .debug_pubtypes
                0x00005d64      0x219 ..\..\..\libs\lib_avi_pkg.a(avi_pkg_if.o)
 .debug_pubtypes
                0x00005f7d      0x1f6 ..\..\..\libs\lib_avi_pkg.a(avi_pkg_dev.o)
 .debug_pubtypes
                0x00006173      0x2c9 ..\..\..\libs\lib_avi_pkg.a(avi_pkg.o)
 .debug_pubtypes
                0x0000643c       0xfc ..\..\..\libs\lib_avi_pkg.a(avi_pkg_head.o)
 .debug_pubtypes
                0x00006538      0x304 ..\..\..\libs\lib_avi_pkg.a(avi_pkg_idx.o)
 .debug_pubtypes
                0x0000683c      0x11b ..\..\..\libs\lib_malloc.a(mem_heap.o)
 .debug_pubtypes
                0x00006957      0x171 ..\..\..\libs\libsd1.a(mango_dev_sd1.o)
 .debug_pubtypes
                0x00006ac8       0x88 ..\..\..\libs\libsd1.a(sd_host_init.o)
 .debug_pubtypes
                0x00006b50       0x53 ..\..\..\libs\libsd1.a(sd_host_read_end.o)
 .debug_pubtypes
                0x00006ba3       0x53 ..\..\..\libs\libsd1.a(sd_host_unmount.o)
 .debug_pubtypes
                0x00006bf6       0x53 ..\..\..\libs\libsd1.a(sd_host_write_end.o)
 .debug_pubtypes
                0x00006c49       0xa0 ..\..\..\libs\libsd1.a(sdmmc_init.o)
 .debug_pubtypes
                0x00006ce9       0x53 ..\..\..\libs\libsd1.a(suspend_sdmmc.o)
 .debug_pubtypes
                0x00006d3c       0x4b ..\..\..\libs\libsd1.a(sd_host_send_csd.o)
 .debug_pubtypes
                0x00006d87       0x53 ..\..\..\libs\libsd1.a(sd_host_stop_trans.o)
 .debug_pubtypes
                0x00006dda       0x71 ..\..\..\libs\libsd1.a(sd_host_hw.o)
 .debug_pubtypes
                0x00006e4b       0x71 ..\..\..\libs\libsd1.a(sd_wait_idle.o)
 .debug_pubtypes
                0x00006ebc       0x97 ..\..\..\libs\libsd1.a(sdmmc_det.o)
 .debug_pubtypes
                0x00006f53       0x71 ..\..\..\libs\libsd1.a(sd_host_reg.o)
 .debug_pubtypes
                0x00006fc4       0x4b ..\..\..\libs\libsd1.a(sd_send_command.o)
 .debug_pubtypes
                0x0000700f       0x4b ..\..\..\libs\libsd1.a(sd_host_status.o)
 .debug_pubtypes
                0x0000705a       0x3f ..\..\..\libs\libsd1.a(sd_host_args.o)
 .debug_pubtypes
                0x00007099       0x71 ..\..\..\libs\libsd1.a(sd_host_mount.o)
 .debug_pubtypes
                0x0000710a       0x79 ..\..\..\libs\libsd1.a(sd_host_read.o)
 .debug_pubtypes
                0x00007183       0x53 ..\..\..\libs\libsd1.a(sd_host_timeout.o)
 .debug_pubtypes
                0x000071d6       0x79 ..\..\..\libs\libsd1.a(sd_host_write.o)
 .debug_pubtypes
                0x0000724f       0x4b ..\..\..\libs\libsd1.a(sd_init.o)
 .debug_pubtypes
                0x0000729a       0x8a ..\..\..\libs\libsd1.a(sdmmc_host_set_bus_width.o)
 .debug_pubtypes
                0x00007324       0x79 ..\..\..\libs\libsd1.a(sdmmc_host_set_hispeed.o)
 .debug_pubtypes
                0x0000739d       0x4b ..\..\..\libs\libsd1.a(mmc_host_send_rca.o)
 .debug_pubtypes
                0x000073e8       0x4b ..\..\..\libs\libsd1.a(mmc_host_set_bus_width.o)
 .debug_pubtypes
                0x00007433       0x4b ..\..\..\libs\libsd1.a(mmc_host_set_hispeed.o)
 .debug_pubtypes
                0x0000747e       0x19 ..\..\..\libs\libsd1.a(sd_host_all_send_cid.o)
 .debug_pubtypes
                0x00007497       0x19 ..\..\..\libs\libsd1.a(sd_host_reset.o)
 .debug_pubtypes
                0x000074b0       0x4b ..\..\..\libs\libsd1.a(sd_host_sd_status.o)
 .debug_pubtypes
                0x000074fb       0x19 ..\..\..\libs\libsd1.a(sd_host_send_if_cond.o)
 .debug_pubtypes
                0x00007514       0x4b ..\..\..\libs\libsd1.a(sd_host_send_rca.o)
 .debug_pubtypes
                0x0000755f       0x19 ..\..\..\libs\libsd1.a(sd_host_set_bus_width.o)
 .debug_pubtypes
                0x00007578       0x4b ..\..\..\libs\libsd1.a(sd_host_set_hispeed.o)
 .debug_pubtypes
                0x000075c3       0x21 ..\..\..\libs\libsd1.a(sd_host_switch_func.o)
 .debug_pubtypes
                0x000075e4       0x4b ..\..\..\libs\libsd1.a(sd_select_card.o)
 .debug_pubtypes
                0x0000762f       0x4b ..\..\..\libs\libsd1.a(sd_send_scr.o)
 .debug_pubtypes
                0x0000767a       0x71 ..\..\..\libs\libsd1.a(sd_chk_ctl.o)
 .debug_pubtypes
                0x000076eb       0x4b ..\..\..\libs\libsd1.a(sd_read_start.o)
 .debug_pubtypes
                0x00007736       0x4b ..\..\..\libs\libsd1.a(sd_write_start.o)
 .debug_pubtypes
                0x00007781       0x4b ..\..\..\libs\libsd1.a(sd_host_identification.o)
 .debug_pubtypes
                0x000077cc       0x19 ..\..\..\libs\libsd1.a(mmc_host_send_op_cond.o)
 .debug_pubtypes
                0x000077e5       0x4b ..\..\..\libs\libsd1.a(sd_host_app_cmd.o)
 .debug_pubtypes
                0x00007830       0x21 ..\..\..\libs\libsd1.a(sd_host_send_op_cond.o)
 .debug_pubtypes
                0x00007851      0x11c ..\..\..\libs\lib_imb.a(imb_module.o)
 .debug_pubtypes
                0x0000796d       0x29 ..\..\..\libs\lib_imb.a(cve_cfg.o)
 .debug_pubtypes
                0x00007996       0xb9 ..\..\..\libs\lib_imb.a(imb_isr.o)
 .debug_pubtypes
                0x00007a4f      0x1a3 ..\..\..\libs\lib_vm.a(vm.o)
 .debug_pubtypes
                0x00007bf2       0x88 ..\..\..\libs\lib_font.a(font_other_language.o)
 .debug_pubtypes
                0x00007c7a       0x67 ..\..\..\libs\lib_font.a(font_out.o)
 .debug_pubtypes
                0x00007ce1       0x7f ..\..\..\libs\lib_font.a(font_sjis.o)
 .debug_pubtypes
                0x00007d60       0x40 ..\..\..\libs\lib_font.a(font_area_ctl.o)
 .debug_pubtypes
                0x00007da0       0x5e ..\..\..\libs\lib_font.a(font_ascii.o)
 .debug_pubtypes
                0x00007dfe       0x71 ..\..\..\libs\lib_font.a(font_big5.o)
 .debug_pubtypes
                0x00007e6f       0x71 ..\..\..\libs\lib_font.a(font_gbk.o)
 .debug_pubtypes
                0x00007ee0       0x71 ..\..\..\libs\lib_font.a(font_ksc.o)
 .debug_pubtypes
                0x00007f51      0x1b9 ..\..\..\libs\lib_uicon.a(dc_showres.o)
 .debug_pubtypes
                0x0000810a       0xf6 ..\..\..\libs\lib_uicon.a(ui_get_info.o)
 .debug_pubtypes
                0x00008200       0x5d ..\..\..\libs\lib_uicon.a(ui_init.o)
 .debug_pubtypes
                0x0000825d      0x108 ..\..\..\libs\lib_uicon.a(ui_layer.o)
 .debug_pubtypes
                0x00008365       0x6f ..\..\..\libs\lib_uicon.a(ui_menu.o)
 .debug_pubtypes
                0x000083d4       0xd8 ..\..\..\libs\lib_uicon.a(ui_menub.o)
 .debug_pubtypes
                0x000084ac       0x78 ..\..\..\libs\lib_uicon.a(ui_number.o)
 .debug_pubtypes
                0x00008524       0x75 ..\..\..\libs\lib_uicon.a(ui_pic.o)
 .debug_pubtypes
                0x00008599       0x4c ..\..\..\libs\lib_uicon.a(ui_sdfs.o)
 .debug_pubtypes
                0x000085e5       0xd9 ..\..\..\libs\lib_uicon.a(ui_text.o)
 .debug_pubtypes
                0x000086be       0x7f ..\..\..\libs\lib_uicon.a(ui_time.o)
 .debug_pubtypes
                0x0000873d       0x88 ..\..\..\libs\lib_uicon.a(ui_time1.o)
 .debug_pubtypes
                0x000087c5      0x1d7 ..\..\..\libs\lib_drv_lib.a(drv_manage.o)
 .debug_pubtypes
                0x0000899c       0x6b ..\..\..\libs\lib_dsc_ram.a(dsc_ram.o)
 .debug_pubtypes
                0x00008a07       0x54 ..\..\..\libs\lib_vedio_ram.a(yuv_ram.o)
 .debug_pubtypes
                0x00008a5b      0x1f8 ..\..\..\libs\lib_vfs.a(vfs.o)
 .debug_pubtypes
                0x00008c53       0x85 ..\..\..\libs\lib_vfs.a(vfs_init.o)
 .debug_pubtypes
                0x00008cd8      0x117 ..\..\..\libs\lib_vfs.a(GenfsInc.o)
 .debug_pubtypes
                0x00008def       0xbe ..\..\..\libs\lib_vfs.a(ff.o)
 .debug_pubtypes
                0x00008ead       0x69 ..\..\..\libs\lib_vfs.a(dev_Mount.o)
 .debug_pubtypes
                0x00008f16       0x8d ..\..\..\libs\lib_vfs.a(dev_cache_alloc.o)
 .debug_pubtypes
                0x00008fa3       0x58 ..\..\..\libs\lib_vfs.a(dev_cache_flush.o)
 .debug_pubtypes
                0x00008ffb       0x80 ..\..\..\libs\lib_vfs.a(dev_cache_read_only.o)
 .debug_pubtypes
                0x0000907b       0x80 ..\..\..\libs\lib_vfs.a(dev_cache_write_dev.o)
 .debug_pubtypes
                0x000090fb       0x21 ..\..\..\libs\lib_vfs.a(fs_api.o)
 .debug_pubtypes
                0x0000911c       0x42 ..\..\..\libs\lib_vfs.a(dev_Cache.o)
 .debug_pubtypes
                0x0000915e       0x29 ..\..\..\libs\libhwi.a(cache.o)
 .debug_pubtypes
                0x00009187       0x26 ..\..\..\libs\libhwi.a(HWI.o)
 .debug_pubtypes
                0x000091ad      0x10f ..\..\..\libs\libspi0flash.a(mango_dev_spi0flash.o)
 .debug_pubtypes
                0x000092bc      0x147 ..\..\..\libs\libspi0flash.a(spi0flash.o)
 .debug_pubtypes
                0x00009403       0xf1 ..\..\..\libs\libspi0.a(spi0.o)
 .debug_pubtypes
                0x000094f4       0x87 ..\..\..\libs\lib_audio.a(ladc.o)
 .debug_pubtypes
                0x0000957b       0xc7 ..\..\..\libs\lib_audio.a(audio.o)
 .debug_pubtypes
                0x00009642       0x68 ..\..\..\libs\lib_audio.a(dac.o)
 .debug_pubtypes
                0x000096aa      0x259 ..\..\..\libs\lib_usb_slave.a(usb_slave_main.o)
 .debug_pubtypes
                0x00009903      0x120 ..\..\..\libs\lib_usb_slave.a(msd2video_ctrl.o)
 .debug_pubtypes
                0x00009a23      0x1f0 ..\..\..\libs\lib_usb_slave.a(msd_dev_update.o)
 .debug_pubtypes
                0x00009c13      0x2b5 ..\..\..\libs\lib_usb_slave.a(msd_main.o)
 .debug_pubtypes
                0x00009ec8      0x1b5 ..\..\..\libs\lib_usb_slave.a(video_main.o)
 .debug_pubtypes
                0x0000a07d      0x16a ..\..\..\libs\lib_usb_slave.a(audio_main.o)
 .debug_pubtypes
                0x0000a1e7      0x24f ..\..\..\libs\lib_usb_slave.a(core_descriptor.o)
 .debug_pubtypes
                0x0000a436      0x218 ..\..\..\libs\lib_usb_slave.a(usb_phy.o)
 .debug_pubtypes
                0x0000a64e      0x2c4 ..\..\..\libs\lib_usb_slave.a(usb_setup.o)
 .debug_pubtypes
                0x0000a912       0x21 ..\..\..\libs\lib_usb_slave.a(msd_descriptor.o)
 .debug_pubtypes
                0x0000a933       0x29 ..\..\..\libs\lib_usb_slave.a(video_descriptor.o)
 .debug_pubtypes
                0x0000a95c       0x21 ..\..\..\libs\lib_usb_slave.a(audio_descriptor.o)
 .debug_pubtypes
                0x0000a97d       0xd4 ..\..\..\libs\librtos.a(os_core.o)
 .debug_pubtypes
                0x0000aa51       0x9c ..\..\..\libs\librtos.a(os_mutex.o)
 .debug_pubtypes
                0x0000aaed       0x9c ..\..\..\libs\librtos.a(os_sem.o)
 .debug_pubtypes
                0x0000ab89      0x103 ..\..\..\libs\librtos.a(os_task.o)
 .debug_pubtypes
                0x0000ac8c       0xa4 ..\..\..\libs\librtos.a(os_time.o)
 .debug_pubtypes
                0x0000ad30       0xab ..\..\..\libs\librtos.a(os_api.o)
 .debug_pubtypes
                0x0000addb       0x2d ..\..\..\libs\librtos.a(os_cpu_c.o)
 .debug_pubtypes
                0x0000ae08       0x58 ..\..\..\libs\lib_common.a(time.o)
 .debug_pubtypes
                0x0000ae60       0x6e ..\..\..\libs\lib_common.a(Vsnprintf.o)
 .debug_pubtypes
                0x0000aece       0x1d C:\JL\dv12\lib\libc.a(lib_a-memcmp.o)
 .debug_pubtypes
                0x0000aeeb       0x1d C:\JL\dv12\lib\libc.a(lib_a-memcpy.o)
 .debug_pubtypes
                0x0000af08       0x1d C:\JL\dv12\lib\libc.a(lib_a-memmove.o)
 .debug_pubtypes
                0x0000af25       0x1d C:\JL\dv12\lib\libc.a(lib_a-memset.o)
 .debug_pubtypes
                0x0000af42       0x12 C:\JL\dv12\lib\libc.a(lib_a-strcat.o)
 .debug_pubtypes
                0x0000af54       0x12 C:\JL\dv12\lib\libc.a(lib_a-strcmp.o)
 .debug_pubtypes
                0x0000af66       0x12 C:\JL\dv12\lib\libc.a(lib_a-strcpy.o)
 .debug_pubtypes
                0x0000af78       0x1d C:\JL\dv12\lib\libc.a(lib_a-strlen.o)
 .debug_pubtypes
                0x0000af95       0x1d C:\JL\dv12\lib\libc.a(lib_a-strncmp.o)
 .debug_pubtypes
                0x0000afb2       0x1d C:\JL\dv12\lib\libc.a(lib_a-strncpy.o)
 .debug_pubtypes
                0x0000afcf       0x1d C:\JL\dv12\lib\libc.a(lib_a-strnlen.o)
 .debug_pubtypes
                0x0000afec       0x62 C:\JL\dv12\lib\libgcc.a(_lshrdi3.o)
 .debug_pubtypes
                0x0000b04e       0x65 C:\JL\dv12\lib\libgcc.a(_divdi3.o)
 .debug_pubtypes
                0x0000b0b3       0x2d C:\JL\dv12\lib\libgcc.a(divsf3.o)
 .debug_pubtypes
                0x0000b0e0       0x39 C:\JL\dv12\lib\libgcc.a(fixunssfsi.o)
 .debug_pubtypes
                0x0000b119       0x39 C:\JL\dv12\lib\libgcc.a(floatunsisf.o)
 .debug_pubtypes
                0x0000b152       0x1e C:\JL\dv12\lib\libgcc.a(_clz.o)
 .debug_pubtypes
                0x0000b170       0x35 C:\JL\dv12\lib\libgcc.a(_clzsi2.o)

.debug_aranges  0x00000000     0x18f8
 .debug_aranges
                0x00000000       0x20 obj\Debug\\code\FileSelecter\FileSelecter.o
 .debug_aranges
                0x00000020       0x20 obj\Debug\\code\FileSelecter\pb_fctrl.o
 .debug_aranges
                0x00000040       0x20 obj\Debug\\code\Peripherals\G_Sensor\GMA301.o
 .debug_aranges
                0x00000060       0x20 obj\Debug\\code\Peripherals\G_Sensor\da380.o
 .debug_aranges
                0x00000080       0x20 obj\Debug\\code\Peripherals\G_Sensor\gravity_sensor_api.o
 .debug_aranges
                0x000000a0       0x20 obj\Debug\\code\Peripherals\G_Sensor\gravity_sensor_manage.o
 .debug_aranges
                0x000000c0       0x20 obj\Debug\\code\Peripherals\G_Sensor\i2c.o
 .debug_aranges
                0x000000e0       0x20 obj\Debug\\code\Peripherals\G_Sensor\parking_guard.o
 .debug_aranges
                0x00000100       0x20 obj\Debug\\code\Peripherals\G_Sensor\stk8312.o
 .debug_aranges
                0x00000120       0x20 obj\Debug\\code\Peripherals\clock.o
 .debug_aranges
                0x00000140       0x20 obj\Debug\\code\Peripherals\timer.o
 .debug_aranges
                0x00000160       0x20 obj\Debug\\code\Peripherals\uart.o
 .debug_aranges
                0x00000180       0x20 obj\Debug\\code\Peripherals\user_isp_cfg.o
 .debug_aranges
                0x000001a0       0x20 obj\Debug\\code\Peripherals\wdt.o
 .debug_aranges
                0x000001c0       0x20 obj\Debug\\code\StorDev\dev_ctrl.o
 .debug_aranges
                0x000001e0       0x20 obj\Debug\\code\common\audio_api.o
 .debug_aranges
                0x00000200       0x20 obj\Debug\\code\common\common.o
 .debug_aranges
                0x00000220       0x20 obj\Debug\\code\common\printf-stdarg.o
 .debug_aranges
                0x00000240       0x20 obj\Debug\\code\common\vm_api.o
 .debug_aranges
                0x00000260       0x20 obj\Debug\\code\disp_ctrl\lcd.o
 .debug_aranges
                0x00000280       0x20 obj\Debug\\code\disp_ctrl\my_ui1.o
 .debug_aranges
                0x000002a0       0x20 obj\Debug\\code\disp_ctrl\ui_task.o
 .debug_aranges
                0x000002c0       0x20 obj\Debug\\code\infoNES\infoNES_PORT\nes_port.o
 .debug_aranges
                0x000002e0       0x20 obj\Debug\\code\infoNES\infoNES_SRC\src\InfoNES.o
 .debug_aranges
                0x00000300       0x20 obj\Debug\\code\infoNES\infoNES_SRC\src\InfoNES_Mapper.o
 .debug_aranges
                0x00000320       0x20 obj\Debug\\code\infoNES\infoNES_SRC\src\InfoNES_pAPU.o
 .debug_aranges
                0x00000340       0x20 obj\Debug\\code\infoNES\infoNES_SRC\src\K6502.o
 .debug_aranges
                0x00000360       0x20 obj\Debug\\code\infoNES\infoNES_System\InfoNES_System.o
 .debug_aranges
                0x00000380       0x20 obj\Debug\\code\key\adc_scan.o
 .debug_aranges
                0x000003a0       0x20 obj\Debug\\code\key\key_drv_ad.o
 .debug_aranges
                0x000003c0       0x20 obj\Debug\\code\key\key_drv_manager.o
 .debug_aranges
                0x000003e0       0x20 obj\Debug\\code\key\powercheck.o
 .debug_aranges
                0x00000400       0x20 obj\Debug\\code\start\car_fs_api.o
 .debug_aranges
                0x00000420       0x20 obj\Debug\\code\start\dec_mode.o
 .debug_aranges
                0x00000440       0x20 obj\Debug\\code\start\enc_mode.o
 .debug_aranges
                0x00000460       0x20 obj\Debug\\code\start\main.o
 .debug_aranges
                0x00000480       0x20 obj\Debug\\code\start\mode_switch.o
 .debug_aranges
                0x000004a0       0x20 obj\Debug\\code\start\pwr_onoff.o
 .debug_aranges
                0x000004c0       0x20 obj\Debug\\code\start\reg.o
 .debug_aranges
                0x000004e0       0x20 obj\Debug\\code\start\startup.o
 .debug_aranges
                0x00000500       0x20 obj\Debug\\code\start\usb_mode.o
 .debug_aranges
                0x00000520       0x20 obj\Debug\\code\tft_panel\ILI9325.o
 .debug_aranges
                0x00000540       0x20 obj\Debug\\code\tft_panel\avout.o
 .debug_aranges
                0x00000560       0x20 obj\Debug\\code\tft_panel\pap.o
 .debug_aranges
                0x00000580       0x20 obj\Debug\\code\upgrade\upgrade.o
 .debug_aranges
                0x000005a0       0x20 ..\..\..\libs\lib_vds.a(vds.o)
 .debug_aranges
                0x000005c0       0x20 ..\..\..\libs\lib_vds.a(jpeg_dec_ctl.o)
 .debug_aranges
                0x000005e0       0x20 ..\..\..\libs\lib_vds.a(jpeg_dec_unpkg.o)
 .debug_aranges
                0x00000600       0x20 ..\..\..\libs\lib_ves.a(ves.o)
 .debug_aranges
                0x00000620       0x20 ..\..\..\libs\lib_ves.a(avi_pkg_ctrl.o)
 .debug_aranges
                0x00000640       0x20 ..\..\..\libs\lib_ves.a(jpeg_enc_ctrl.o)
 .debug_aranges
                0x00000660       0x20 ..\..\..\libs\lib_ves.a(jpeg_pkg_ctrl.o)
 .debug_aranges
                0x00000680       0x20 ..\..\..\libs\lib_jpeg_dec.a(jpeg_dec_if.o)
 .debug_aranges
                0x000006a0       0x20 ..\..\..\libs\lib_jpeg_dec.a(jpeg_dec_isr.o)
 .debug_aranges
                0x000006c0       0x20 ..\..\..\libs\lib_jpeg_dec.a(jpeg_decode.o)
 .debug_aranges
                0x000006e0       0x20 ..\..\..\libs\lib_jpeg_dec.a(jpeg_dec_head.o)
 .debug_aranges
                0x00000700       0x20 ..\..\..\libs\lib_jpeg_enc.a(jpeg_enc_if.o)
 .debug_aranges
                0x00000720       0x20 ..\..\..\libs\lib_jpeg_enc.a(jpeg_encode.o)
 .debug_aranges
                0x00000740       0x20 ..\..\..\libs\lib_jpeg_enc.a(jpeg_encode_init.o)
 .debug_aranges
                0x00000760       0x20 ..\..\..\libs\lib_jpeg_enc.a(jpeg_encode_isr.o)
 .debug_aranges
                0x00000780       0x20 ..\..\..\libs\lib_jpeg_enc.a(Build_dynamic_huffman.o)
 .debug_aranges
                0x000007a0       0x20 ..\..\..\libs\lib_jpeg_enc.a(jpeg_abr.o)
 .debug_aranges
                0x000007c0       0x20 ..\..\..\libs\lib_avi_pkg.a(avi_pkg_if.o)
 .debug_aranges
                0x000007e0       0x20 ..\..\..\libs\lib_avi_pkg.a(avi_pkg_dev.o)
 .debug_aranges
                0x00000800       0x20 ..\..\..\libs\lib_avi_pkg.a(avi_pkg.o)
 .debug_aranges
                0x00000820       0x20 ..\..\..\libs\lib_avi_pkg.a(avi_pkg_head.o)
 .debug_aranges
                0x00000840       0x20 ..\..\..\libs\lib_avi_pkg.a(avi_pkg_idx.o)
 .debug_aranges
                0x00000860       0x20 ..\..\..\libs\lib_malloc.a(mem_heap.o)
 .debug_aranges
                0x00000880       0x20 ..\..\..\libs\libsd1.a(mango_dev_sd1.o)
 .debug_aranges
                0x000008a0       0x20 ..\..\..\libs\libsd1.a(sd_host_init.o)
 .debug_aranges
                0x000008c0       0x20 ..\..\..\libs\libsd1.a(sd_host_read_end.o)
 .debug_aranges
                0x000008e0       0x20 ..\..\..\libs\libsd1.a(sd_host_unmount.o)
 .debug_aranges
                0x00000900       0x20 ..\..\..\libs\libsd1.a(sd_host_write_end.o)
 .debug_aranges
                0x00000920       0x20 ..\..\..\libs\libsd1.a(sdmmc_init.o)
 .debug_aranges
                0x00000940       0x20 ..\..\..\libs\libsd1.a(suspend_sdmmc.o)
 .debug_aranges
                0x00000960       0x20 ..\..\..\libs\libsd1.a(sd_host_send_csd.o)
 .debug_aranges
                0x00000980       0x20 ..\..\..\libs\libsd1.a(sd_host_stop_trans.o)
 .debug_aranges
                0x000009a0       0x20 ..\..\..\libs\libsd1.a(sd_host_hw.o)
 .debug_aranges
                0x000009c0       0x20 ..\..\..\libs\libsd1.a(sd_wait_idle.o)
 .debug_aranges
                0x000009e0       0x20 ..\..\..\libs\libsd1.a(sdmmc_det.o)
 .debug_aranges
                0x00000a00       0x20 ..\..\..\libs\libsd1.a(sd_host_reg.o)
 .debug_aranges
                0x00000a20       0x20 ..\..\..\libs\libsd1.a(sd_send_command.o)
 .debug_aranges
                0x00000a40       0x20 ..\..\..\libs\libsd1.a(sd_host_status.o)
 .debug_aranges
                0x00000a60       0x20 ..\..\..\libs\libsd1.a(sd_host_mount.o)
 .debug_aranges
                0x00000a80       0x20 ..\..\..\libs\libsd1.a(sd_host_read.o)
 .debug_aranges
                0x00000aa0       0x20 ..\..\..\libs\libsd1.a(sd_host_timeout.o)
 .debug_aranges
                0x00000ac0       0x20 ..\..\..\libs\libsd1.a(sd_host_write.o)
 .debug_aranges
                0x00000ae0       0x20 ..\..\..\libs\libsd1.a(sd_init.o)
 .debug_aranges
                0x00000b00       0x20 ..\..\..\libs\libsd1.a(sdmmc_host_set_bus_width.o)
 .debug_aranges
                0x00000b20       0x20 ..\..\..\libs\libsd1.a(sdmmc_host_set_hispeed.o)
 .debug_aranges
                0x00000b40       0x20 ..\..\..\libs\libsd1.a(mmc_host_send_rca.o)
 .debug_aranges
                0x00000b60       0x20 ..\..\..\libs\libsd1.a(mmc_host_set_bus_width.o)
 .debug_aranges
                0x00000b80       0x20 ..\..\..\libs\libsd1.a(mmc_host_set_hispeed.o)
 .debug_aranges
                0x00000ba0       0x20 ..\..\..\libs\libsd1.a(sd_host_all_send_cid.o)
 .debug_aranges
                0x00000bc0       0x20 ..\..\..\libs\libsd1.a(sd_host_reset.o)
 .debug_aranges
                0x00000be0       0x20 ..\..\..\libs\libsd1.a(sd_host_sd_status.o)
 .debug_aranges
                0x00000c00       0x20 ..\..\..\libs\libsd1.a(sd_host_send_if_cond.o)
 .debug_aranges
                0x00000c20       0x20 ..\..\..\libs\libsd1.a(sd_host_send_rca.o)
 .debug_aranges
                0x00000c40       0x20 ..\..\..\libs\libsd1.a(sd_host_set_bus_width.o)
 .debug_aranges
                0x00000c60       0x20 ..\..\..\libs\libsd1.a(sd_host_set_hispeed.o)
 .debug_aranges
                0x00000c80       0x20 ..\..\..\libs\libsd1.a(sd_host_switch_func.o)
 .debug_aranges
                0x00000ca0       0x20 ..\..\..\libs\libsd1.a(sd_select_card.o)
 .debug_aranges
                0x00000cc0       0x20 ..\..\..\libs\libsd1.a(sd_send_scr.o)
 .debug_aranges
                0x00000ce0       0x20 ..\..\..\libs\libsd1.a(sd_chk_ctl.o)
 .debug_aranges
                0x00000d00       0x20 ..\..\..\libs\libsd1.a(sd_read_start.o)
 .debug_aranges
                0x00000d20       0x20 ..\..\..\libs\libsd1.a(sd_write_start.o)
 .debug_aranges
                0x00000d40       0x20 ..\..\..\libs\libsd1.a(sd_host_identification.o)
 .debug_aranges
                0x00000d60       0x20 ..\..\..\libs\libsd1.a(mmc_host_send_op_cond.o)
 .debug_aranges
                0x00000d80       0x20 ..\..\..\libs\libsd1.a(sd_host_app_cmd.o)
 .debug_aranges
                0x00000da0       0x20 ..\..\..\libs\libsd1.a(sd_host_send_op_cond.o)
 .debug_aranges
                0x00000dc0       0x20 ..\..\..\libs\lib_imb.a(imb_module.o)
 .debug_aranges
                0x00000de0       0x20 ..\..\..\libs\lib_imb.a(cve_cfg.o)
 .debug_aranges
                0x00000e00       0x20 ..\..\..\libs\lib_imb.a(imb_isr.o)
 .debug_aranges
                0x00000e20       0x20 ..\..\..\libs\lib_vm.a(vm.o)
 .debug_aranges
                0x00000e40       0x20 ..\..\..\libs\lib_font.a(font_other_language.o)
 .debug_aranges
                0x00000e60       0x20 ..\..\..\libs\lib_font.a(font_out.o)
 .debug_aranges
                0x00000e80       0x20 ..\..\..\libs\lib_font.a(font_sjis.o)
 .debug_aranges
                0x00000ea0       0x20 ..\..\..\libs\lib_font.a(font_area_ctl.o)
 .debug_aranges
                0x00000ec0       0x20 ..\..\..\libs\lib_font.a(font_ascii.o)
 .debug_aranges
                0x00000ee0       0x20 ..\..\..\libs\lib_font.a(font_big5.o)
 .debug_aranges
                0x00000f00       0x20 ..\..\..\libs\lib_font.a(font_gbk.o)
 .debug_aranges
                0x00000f20       0x20 ..\..\..\libs\lib_font.a(font_ksc.o)
 .debug_aranges
                0x00000f40       0x20 ..\..\..\libs\lib_uicon.a(dc_showres.o)
 .debug_aranges
                0x00000f60       0x20 ..\..\..\libs\lib_uicon.a(ui_get_info.o)
 .debug_aranges
                0x00000f80       0x20 ..\..\..\libs\lib_uicon.a(ui_init.o)
 .debug_aranges
                0x00000fa0       0x20 ..\..\..\libs\lib_uicon.a(ui_layer.o)
 .debug_aranges
                0x00000fc0       0x20 ..\..\..\libs\lib_uicon.a(ui_menu.o)
 .debug_aranges
                0x00000fe0       0x20 ..\..\..\libs\lib_uicon.a(ui_menub.o)
 .debug_aranges
                0x00001000       0x20 ..\..\..\libs\lib_uicon.a(ui_number.o)
 .debug_aranges
                0x00001020       0x20 ..\..\..\libs\lib_uicon.a(ui_pic.o)
 .debug_aranges
                0x00001040       0x20 ..\..\..\libs\lib_uicon.a(ui_sdfs.o)
 .debug_aranges
                0x00001060       0x20 ..\..\..\libs\lib_uicon.a(ui_text.o)
 .debug_aranges
                0x00001080       0x20 ..\..\..\libs\lib_uicon.a(ui_time.o)
 .debug_aranges
                0x000010a0       0x20 ..\..\..\libs\lib_uicon.a(ui_time1.o)
 .debug_aranges
                0x000010c0       0x20 ..\..\..\libs\lib_drv_lib.a(drv_manage.o)
 .debug_aranges
                0x000010e0       0x20 ..\..\..\libs\lib_dsc_ram.a(dsc_ram.o)
 .debug_aranges
                0x00001100       0x20 ..\..\..\libs\lib_vedio_ram.a(yuv_ram.o)
 .debug_aranges
                0x00001120       0x20 ..\..\..\libs\lib_vfs.a(vfs.o)
 .debug_aranges
                0x00001140       0x20 ..\..\..\libs\lib_vfs.a(vfs_init.o)
 .debug_aranges
                0x00001160       0x20 ..\..\..\libs\lib_vfs.a(GenfsInc.o)
 .debug_aranges
                0x00001180       0x20 ..\..\..\libs\lib_vfs.a(ff.o)
 .debug_aranges
                0x000011a0       0x20 ..\..\..\libs\lib_vfs.a(dev_Mount.o)
 .debug_aranges
                0x000011c0       0x20 ..\..\..\libs\lib_vfs.a(dev_cache_alloc.o)
 .debug_aranges
                0x000011e0       0x20 ..\..\..\libs\lib_vfs.a(dev_cache_flush.o)
 .debug_aranges
                0x00001200       0x20 ..\..\..\libs\lib_vfs.a(dev_cache_read_only.o)
 .debug_aranges
                0x00001220       0x20 ..\..\..\libs\lib_vfs.a(dev_cache_write_dev.o)
 .debug_aranges
                0x00001240       0x20 ..\..\..\libs\lib_vfs.a(fs_api.o)
 .debug_aranges
                0x00001260       0x20 ..\..\..\libs\lib_vfs.a(dev_Cache.o)
 .debug_aranges
                0x00001280       0x28 ..\..\..\libs\libhwi.a(cache.o)
 .debug_aranges
                0x000012a8       0x20 ..\..\..\libs\libhwi.a(HWI.o)
 .debug_aranges
                0x000012c8       0x20 ..\..\..\libs\libspi0flash.a(mango_dev_spi0flash.o)
 .debug_aranges
                0x000012e8       0x20 ..\..\..\libs\libspi0flash.a(spi0flash.o)
 .debug_aranges
                0x00001308       0x20 ..\..\..\libs\libspi0.a(spi0.o)
 .debug_aranges
                0x00001328       0x20 ..\..\..\libs\lib_audio.a(ladc.o)
 .debug_aranges
                0x00001348       0x20 ..\..\..\libs\lib_audio.a(audio.o)
 .debug_aranges
                0x00001368       0x20 ..\..\..\libs\lib_audio.a(dac.o)
 .debug_aranges
                0x00001388       0x20 ..\..\..\libs\lib_usb_slave.a(usb_slave_main.o)
 .debug_aranges
                0x000013a8       0x20 ..\..\..\libs\lib_usb_slave.a(msd2video_ctrl.o)
 .debug_aranges
                0x000013c8       0x20 ..\..\..\libs\lib_usb_slave.a(msd_dev_update.o)
 .debug_aranges
                0x000013e8       0x20 ..\..\..\libs\lib_usb_slave.a(msd_main.o)
 .debug_aranges
                0x00001408       0x20 ..\..\..\libs\lib_usb_slave.a(video_main.o)
 .debug_aranges
                0x00001428       0x20 ..\..\..\libs\lib_usb_slave.a(audio_main.o)
 .debug_aranges
                0x00001448       0x20 ..\..\..\libs\lib_usb_slave.a(core_descriptor.o)
 .debug_aranges
                0x00001468       0x20 ..\..\..\libs\lib_usb_slave.a(usb_phy.o)
 .debug_aranges
                0x00001488       0x20 ..\..\..\libs\lib_usb_slave.a(usb_setup.o)
 .debug_aranges
                0x000014a8       0x20 ..\..\..\libs\lib_usb_slave.a(video_descriptor.o)
 .debug_aranges
                0x000014c8       0x20 ..\..\..\libs\lib_usb_slave.a(audio_descriptor.o)
 .debug_aranges
                0x000014e8       0x30 ..\..\..\libs\librtos.a(os_core.o)
 .debug_aranges
                0x00001518       0x20 ..\..\..\libs\librtos.a(os_mutex.o)
 .debug_aranges
                0x00001538       0x20 ..\..\..\libs\librtos.a(os_sem.o)
 .debug_aranges
                0x00001558       0x20 ..\..\..\libs\librtos.a(os_task.o)
 .debug_aranges
                0x00001578       0x20 ..\..\..\libs\librtos.a(os_time.o)
 .debug_aranges
                0x00001598       0x20 ..\..\..\libs\librtos.a(os_api.o)
 .debug_aranges
                0x000015b8       0x20 ..\..\..\libs\librtos.a(os_cpu.o)
 .debug_aranges
                0x000015d8       0x20 ..\..\..\libs\librtos.a(os_cpu_c.o)
 .debug_aranges
                0x000015f8       0x20 ..\..\..\libs\lib_common.a(time.o)
 .debug_aranges
                0x00001618       0x20 ..\..\..\libs\lib_common.a(Vsnprintf.o)
 .debug_aranges
                0x00001638       0x20 C:\JL\dv12\lib\libc.a(lib_a-isalnum.o)
 .debug_aranges
                0x00001658       0x20 C:\JL\dv12\lib\libc.a(lib_a-memcmp.o)
 .debug_aranges
                0x00001678       0x20 C:\JL\dv12\lib\libc.a(lib_a-memcpy.o)
 .debug_aranges
                0x00001698       0x20 C:\JL\dv12\lib\libc.a(lib_a-memmove.o)
 .debug_aranges
                0x000016b8       0x20 C:\JL\dv12\lib\libc.a(lib_a-memset.o)
 .debug_aranges
                0x000016d8       0x20 C:\JL\dv12\lib\libc.a(lib_a-strcat.o)
 .debug_aranges
                0x000016f8       0x20 C:\JL\dv12\lib\libc.a(lib_a-strcmp.o)
 .debug_aranges
                0x00001718       0x20 C:\JL\dv12\lib\libc.a(lib_a-strcpy.o)
 .debug_aranges
                0x00001738       0x20 C:\JL\dv12\lib\libc.a(lib_a-strlen.o)
 .debug_aranges
                0x00001758       0x20 C:\JL\dv12\lib\libc.a(lib_a-strncmp.o)
 .debug_aranges
                0x00001778       0x20 C:\JL\dv12\lib\libc.a(lib_a-strncpy.o)
 .debug_aranges
                0x00001798       0x20 C:\JL\dv12\lib\libc.a(lib_a-strnlen.o)
 .debug_aranges
                0x000017b8       0x20 C:\JL\dv12\lib\libgcc.a(_umodsi3.o)
 .debug_aranges
                0x000017d8       0x20 C:\JL\dv12\lib\libgcc.a(_modsi3.o)
 .debug_aranges
                0x000017f8       0x20 C:\JL\dv12\lib\libgcc.a(_muldi3.o)
 .debug_aranges
                0x00001818       0x20 C:\JL\dv12\lib\libgcc.a(_umulsi3_highpart.o)
 .debug_aranges
                0x00001838       0x20 C:\JL\dv12\lib\libgcc.a(_lshrdi3.o)
 .debug_aranges
                0x00001858       0x20 C:\JL\dv12\lib\libgcc.a(_divdi3.o)
 .debug_aranges
                0x00001878       0x20 C:\JL\dv12\lib\libgcc.a(divsf3.o)
 .debug_aranges
                0x00001898       0x20 C:\JL\dv12\lib\libgcc.a(fixunssfsi.o)
 .debug_aranges
                0x000018b8       0x20 C:\JL\dv12\lib\libgcc.a(floatunsisf.o)
 .debug_aranges
                0x000018d8       0x20 C:\JL\dv12\lib\libgcc.a(_clzsi2.o)

.debug_ranges   0x00000000     0x2ef0
 .debug_ranges  0x00000000       0xe0 obj\Debug\\code\FileSelecter\FileSelecter.o
 .debug_ranges  0x000000e0       0x18 obj\Debug\\code\FileSelecter\pb_fctrl.o
 .debug_ranges  0x000000f8       0x58 obj\Debug\\code\Peripherals\G_Sensor\GMA301.o
 .debug_ranges  0x00000150       0x20 obj\Debug\\code\Peripherals\G_Sensor\da380.o
 .debug_ranges  0x00000170       0xa8 obj\Debug\\code\Peripherals\G_Sensor\gravity_sensor_manage.o
 .debug_ranges  0x00000218       0x18 obj\Debug\\code\Peripherals\G_Sensor\parking_guard.o
 .debug_ranges  0x00000230       0x20 obj\Debug\\code\Peripherals\G_Sensor\stk8312.o
 .debug_ranges  0x00000250       0x18 obj\Debug\\code\Peripherals\timer.o
 .debug_ranges  0x00000268       0x18 obj\Debug\\code\Peripherals\user_isp_cfg.o
 .debug_ranges  0x00000280       0x20 obj\Debug\\code\common\audio_api.o
 .debug_ranges  0x000002a0       0x18 obj\Debug\\code\disp_ctrl\lcd.o
 .debug_ranges  0x000002b8      0x140 obj\Debug\\code\disp_ctrl\my_ui1.o
 .debug_ranges  0x000003f8      0x138 obj\Debug\\code\disp_ctrl\ui_task.o
 .debug_ranges  0x00000530       0xe8 obj\Debug\\code\infoNES\infoNES_SRC\src\InfoNES_Mapper.o
 .debug_ranges  0x00000618       0x40 obj\Debug\\code\infoNES\infoNES_SRC\src\InfoNES_pAPU.o
 .debug_ranges  0x00000658      0x248 obj\Debug\\code\infoNES\infoNES_SRC\src\K6502.o
 .debug_ranges  0x000008a0       0x18 obj\Debug\\code\infoNES\infoNES_System\InfoNES_System.o
 .debug_ranges  0x000008b8       0x28 obj\Debug\\code\key\key_drv_manager.o
 .debug_ranges  0x000008e0       0x60 obj\Debug\\code\start\dec_mode.o
 .debug_ranges  0x00000940       0xd0 obj\Debug\\code\start\enc_mode.o
 .debug_ranges  0x00000a10       0xc8 obj\Debug\\code\start\main.o
 .debug_ranges  0x00000ad8       0x50 obj\Debug\\code\start\mode_switch.o
 .debug_ranges  0x00000b28       0xc0 obj\Debug\\code\start\pwr_onoff.o
 .debug_ranges  0x00000be8       0xb0 obj\Debug\\code\start\usb_mode.o
 .debug_ranges  0x00000c98       0x80 obj\Debug\\code\upgrade\upgrade.o
 .debug_ranges  0x00000d18       0x88 ..\..\..\libs\lib_vds.a(jpeg_dec_ctl.o)
 .debug_ranges  0x00000da0       0xa8 ..\..\..\libs\lib_vds.a(jpeg_dec_unpkg.o)
 .debug_ranges  0x00000e48       0x18 ..\..\..\libs\lib_ves.a(ves.o)
 .debug_ranges  0x00000e60       0x30 ..\..\..\libs\lib_ves.a(avi_pkg_ctrl.o)
 .debug_ranges  0x00000e90       0x18 ..\..\..\libs\lib_ves.a(jpeg_enc_ctrl.o)
 .debug_ranges  0x00000ea8       0x48 ..\..\..\libs\lib_ves.a(jpeg_pkg_ctrl.o)
 .debug_ranges  0x00000ef0       0xb0 ..\..\..\libs\lib_jpeg_dec.a(jpeg_decode.o)
 .debug_ranges  0x00000fa0       0x20 ..\..\..\libs\lib_jpeg_dec.a(jpeg_dec_head.o)
 .debug_ranges  0x00000fc0       0x18 ..\..\..\libs\lib_jpeg_enc.a(jpeg_encode_init.o)
 .debug_ranges  0x00000fd8       0xa0 ..\..\..\libs\lib_jpeg_enc.a(jpeg_encode_isr.o)
 .debug_ranges  0x00001078       0x30 ..\..\..\libs\lib_jpeg_enc.a(Build_dynamic_huffman.o)
 .debug_ranges  0x000010a8       0x18 ..\..\..\libs\libsd1.a(mango_dev_sd1.o)
 .debug_ranges  0x000010c0       0x20 ..\..\..\libs\libsd1.a(sd_host_init.o)
 .debug_ranges  0x000010e0       0x28 ..\..\..\libs\libsd1.a(sd_host_read_end.o)
 .debug_ranges  0x00001108       0x28 ..\..\..\libs\libsd1.a(sd_host_write_end.o)
 .debug_ranges  0x00001130       0x20 ..\..\..\libs\libsd1.a(sdmmc_det.o)
 .debug_ranges  0x00001150       0x20 ..\..\..\libs\libsd1.a(sd_host_reg.o)
 .debug_ranges  0x00001170       0x70 ..\..\..\libs\libsd1.a(sdmmc_host_set_bus_width.o)
 .debug_ranges  0x000011e0       0x18 ..\..\..\libs\libsd1.a(sd_host_set_hispeed.o)
 .debug_ranges  0x000011f8       0x18 ..\..\..\libs\lib_imb.a(imb_module.o)
 .debug_ranges  0x00001210       0x58 ..\..\..\libs\lib_imb.a(imb_isr.o)
 .debug_ranges  0x00001268       0xb0 ..\..\..\libs\lib_vm.a(vm.o)
 .debug_ranges  0x00001318       0x98 ..\..\..\libs\lib_font.a(font_other_language.o)
 .debug_ranges  0x000013b0       0x98 ..\..\..\libs\lib_font.a(font_sjis.o)
 .debug_ranges  0x00001448       0x90 ..\..\..\libs\lib_font.a(font_big5.o)
 .debug_ranges  0x000014d8       0xe0 ..\..\..\libs\lib_font.a(font_gbk.o)
 .debug_ranges  0x000015b8       0x68 ..\..\..\libs\lib_font.a(font_ksc.o)
 .debug_ranges  0x00001620      0x150 ..\..\..\libs\lib_uicon.a(dc_showres.o)
 .debug_ranges  0x00001770       0x18 ..\..\..\libs\lib_uicon.a(ui_init.o)
 .debug_ranges  0x00001788      0x1c0 ..\..\..\libs\lib_uicon.a(ui_layer.o)
 .debug_ranges  0x00001948       0xa8 ..\..\..\libs\lib_uicon.a(ui_menub.o)
 .debug_ranges  0x000019f0       0x30 ..\..\..\libs\lib_uicon.a(ui_number.o)
 .debug_ranges  0x00001a20      0x140 ..\..\..\libs\lib_uicon.a(ui_text.o)
 .debug_ranges  0x00001b60      0x180 ..\..\..\libs\lib_drv_lib.a(drv_manage.o)
 .debug_ranges  0x00001ce0      0x130 ..\..\..\libs\lib_vfs.a(vfs.o)
 .debug_ranges  0x00001e10       0x18 ..\..\..\libs\lib_vfs.a(GenfsInc.o)
 .debug_ranges  0x00001e28      0x180 ..\..\..\libs\lib_vfs.a(ff.o)
 .debug_ranges  0x00001fa8       0x18 ..\..\..\libs\libhwi.a(cache.o)
 .debug_ranges  0x00001fc0       0x18 ..\..\..\libs\libhwi.a(HWI.o)
 .debug_ranges  0x00001fd8      0x238 ..\..\..\libs\lib_usb_slave.a(usb_slave_main.o)
 .debug_ranges  0x00002210      0x108 ..\..\..\libs\lib_usb_slave.a(msd2video_ctrl.o)
 .debug_ranges  0x00002318      0x130 ..\..\..\libs\lib_usb_slave.a(msd_dev_update.o)
 .debug_ranges  0x00002448      0x3a8 ..\..\..\libs\lib_usb_slave.a(msd_main.o)
 .debug_ranges  0x000027f0       0x60 ..\..\..\libs\lib_usb_slave.a(video_main.o)
 .debug_ranges  0x00002850       0x38 ..\..\..\libs\lib_usb_slave.a(core_descriptor.o)
 .debug_ranges  0x00002888      0x2e0 ..\..\..\libs\lib_usb_slave.a(usb_setup.o)
 .debug_ranges  0x00002b68       0x50 ..\..\..\libs\librtos.a(os_core.o)
 .debug_ranges  0x00002bb8       0x30 ..\..\..\libs\librtos.a(os_task.o)
 .debug_ranges  0x00002be8       0x18 ..\..\..\libs\librtos.a(os_time.o)
 .debug_ranges  0x00002c00       0x18 ..\..\..\libs\librtos.a(os_api.o)
 .debug_ranges  0x00002c18       0xc0 ..\..\..\libs\lib_common.a(Vsnprintf.o)
 .debug_ranges  0x00002cd8      0x158 C:\JL\dv12\lib\libgcc.a(_divdi3.o)
 .debug_ranges  0x00002e30       0x50 C:\JL\dv12\lib\libgcc.a(divsf3.o)
 .debug_ranges  0x00002e80       0x28 C:\JL\dv12\lib\libgcc.a(fixunssfsi.o)
 .debug_ranges  0x00002ea8       0x20 C:\JL\dv12\lib\libgcc.a(floatunsisf.o)
 .debug_ranges  0x00002ec8       0x28 C:\JL\dv12\lib\libgcc.a(_clzsi2.o)

.debug_str      0x00000000    0x14b1e
 .debug_str     0x00000000      0xbf6 obj\Debug\\code\FileSelecter\FileSelecter.o
                                0xe6b (size before relaxing)
 .debug_str     0x00000bf6      0x321 obj\Debug\\code\FileSelecter\pb_fctrl.o
                                0x875 (size before relaxing)
 .debug_str     0x00000f17      0x3d5 obj\Debug\\code\Peripherals\G_Sensor\GMA301.o
                                0x5d3 (size before relaxing)
 .debug_str     0x000012ec      0x180 obj\Debug\\code\Peripherals\G_Sensor\da380.o
                                0x5c7 (size before relaxing)
 .debug_str     0x0000146c       0xd1 obj\Debug\\code\Peripherals\G_Sensor\gravity_sensor_api.o
                                0x223 (size before relaxing)
 .debug_str     0x0000153d      0x85a obj\Debug\\code\Peripherals\G_Sensor\gravity_sensor_manage.o
                                0xac5 (size before relaxing)
 .debug_str     0x00001d97       0x83 obj\Debug\\code\Peripherals\G_Sensor\i2c.o
                                0x122 (size before relaxing)
 .debug_str     0x00001e1a       0x5b obj\Debug\\code\Peripherals\G_Sensor\parking_guard.o
                                0x190 (size before relaxing)
 .debug_str     0x00001e75      0x149 obj\Debug\\code\Peripherals\G_Sensor\stk8312.o
                                0x63b (size before relaxing)
 .debug_str     0x00001fbe      0x56a obj\Debug\\code\Peripherals\clock.o
                                0x661 (size before relaxing)
 .debug_str     0x00002528       0xfa obj\Debug\\code\Peripherals\timer.o
                                0x23d (size before relaxing)
 .debug_str     0x00002622      0x591 obj\Debug\\code\Peripherals\uart.o
                                0x6e3 (size before relaxing)
 .debug_str     0x00002bb3      0x229 obj\Debug\\code\Peripherals\user_isp_cfg.o
                                0x4cf (size before relaxing)
 .debug_str     0x00002ddc       0x36 obj\Debug\\code\Peripherals\wdt.o
                                 0xd3 (size before relaxing)
 .debug_str     0x00002e12      0x34f obj\Debug\\code\StorDev\dev_ctrl.o
                                0x8a4 (size before relaxing)
 .debug_str     0x00003161      0x66d obj\Debug\\code\common\audio_api.o
                                0xfd7 (size before relaxing)
 .debug_str     0x000037ce       0x89 obj\Debug\\code\common\common.o
                                0x13e (size before relaxing)
 .debug_str     0x00003857       0x47 obj\Debug\\code\common\fcvt.o
                                 0xfc (size before relaxing)
 .debug_str     0x0000389e       0xca obj\Debug\\code\common\printf-stdarg.o
                                0x1aa (size before relaxing)
 .debug_str     0x00003968      0x122 obj\Debug\\code\common\vm_api.o
                                0x44b (size before relaxing)
 .debug_str     0x00003a8a      0x304 obj\Debug\\code\disp_ctrl\lcd.o
                                0x9c1 (size before relaxing)
 .debug_str     0x00003d8e      0xa6c obj\Debug\\code\disp_ctrl\my_ui1.o
                               0x1c50 (size before relaxing)
 .debug_str     0x000047fa      0xb5e obj\Debug\\code\disp_ctrl\ui_task.o
                               0x23cc (size before relaxing)
 .debug_str     0x00005358       0x34 obj\Debug\\code\infoNES\NES_GAME\ddl.o
                                 0xa1 (size before relaxing)
 .debug_str     0x0000538c       0x35 obj\Debug\\code\infoNES\NES_GAME\fj.o
                                 0xa2 (size before relaxing)
 .debug_str     0x000053c1       0x34 obj\Debug\\code\infoNES\NES_GAME\gef.o
                                 0xa1 (size before relaxing)
 .debug_str     0x000053f5       0x42 obj\Debug\\code\infoNES\infoNES_PORT\nes_port.o
                                0x10f (size before relaxing)
 .debug_str     0x00005437      0x559 obj\Debug\\code\infoNES\infoNES_SRC\src\InfoNES.o
                                0x629 (size before relaxing)
 .debug_str     0x00005990     0x2afd obj\Debug\\code\infoNES\infoNES_SRC\src\InfoNES_Mapper.o
                               0x2d26 (size before relaxing)
 .debug_str     0x0000848d      0x64e obj\Debug\\code\infoNES\infoNES_SRC\src\InfoNES_pAPU.o
                                0x925 (size before relaxing)
 .debug_str     0x00008adb      0x15a obj\Debug\\code\infoNES\infoNES_SRC\src\K6502.o
                                0x4ca (size before relaxing)
 .debug_str     0x00008c35      0x203 obj\Debug\\code\infoNES\infoNES_System\InfoNES_System.o
                                0x998 (size before relaxing)
 .debug_str     0x00008e38       0x8f obj\Debug\\code\key\adc_scan.o
                                0x127 (size before relaxing)
 .debug_str     0x00008ec7       0x80 obj\Debug\\code\key\key_drv_ad.o
                                0x72c (size before relaxing)
 .debug_str     0x00008f47      0x14c obj\Debug\\code\key\key_drv_manager.o
                                0x8be (size before relaxing)
 .debug_str     0x00009093       0xa9 obj\Debug\\code\key\powercheck.o
                                0x188 (size before relaxing)
 .debug_str     0x0000913c      0x165 obj\Debug\\code\start\car_fs_api.o
                                0x6ce (size before relaxing)
 .debug_str     0x000092a1      0x1ec obj\Debug\\code\start\dec_mode.o
                               0x16fa (size before relaxing)
 .debug_str     0x0000948d      0x460 obj\Debug\\code\start\enc_mode.o
                               0x1a19 (size before relaxing)
 .debug_str     0x000098ed      0x355 obj\Debug\\code\start\main.o
                               0x171a (size before relaxing)
 .debug_str     0x00009c42      0x37d obj\Debug\\code\start\mode_switch.o
                               0x1834 (size before relaxing)
 .debug_str     0x00009fbf      0x103 obj\Debug\\code\start\pwr_onoff.o
                               0x109c (size before relaxing)
 .debug_str     0x0000a0c2      0x4c8 obj\Debug\\code\start\usb_mode.o
                               0x193a (size before relaxing)
 .debug_str     0x0000a58a       0x1c obj\Debug\\code\tft_panel\ILI8960.o
                                 0xaf (size before relaxing)
 .debug_str     0x0000a5a6       0x1c obj\Debug\\code\tft_panel\ILI8961.o
                                 0xaf (size before relaxing)
 .debug_str     0x0000a5c2       0x1c obj\Debug\\code\tft_panel\ILI9163.o
                                 0xaf (size before relaxing)
 .debug_str     0x0000a5de      0x14c obj\Debug\\code\tft_panel\ILI9325.o
                                0x448 (size before relaxing)
 .debug_str     0x0000a72a       0x20 obj\Debug\\code\tft_panel\LCD_RM68116.o
                                 0xa1 (size before relaxing)
 .debug_str     0x0000a74a       0x20 obj\Debug\\code\tft_panel\LQ026B3UX01.o
                                 0xb3 (size before relaxing)
 .debug_str     0x0000a76a       0x1c obj\Debug\\code\tft_panel\SSD1963.o
                                 0xaf (size before relaxing)
 .debug_str     0x0000a786       0x1c obj\Debug\\code\tft_panel\ST7735S.o
                                 0xaf (size before relaxing)
 .debug_str     0x0000a7a2       0x1b obj\Debug\\code\tft_panel\T15P00.o
                                 0xae (size before relaxing)
 .debug_str     0x0000a7bd       0x5c obj\Debug\\code\tft_panel\avout.o
                                0x38f (size before relaxing)
 .debug_str     0x0000a819       0x20 obj\Debug\\code\tft_panel\disp_43inch.o
                                 0xb3 (size before relaxing)
 .debug_str     0x0000a839       0x1f obj\Debug\\code\tft_panel\disp_8inch.o
                                 0xb2 (size before relaxing)
 .debug_str     0x0000a858       0x20 obj\Debug\\code\tft_panel\disp_JC4301.o
                                 0xb3 (size before relaxing)
 .debug_str     0x0000a878       0x4f obj\Debug\\code\tft_panel\pap.o
                                 0xe7 (size before relaxing)
 .debug_str     0x0000a8c7      0x411 obj\Debug\\code\upgrade\upgrade.o
                                0xc7a (size before relaxing)
 .debug_str     0x0000acd8      0x47e ..\..\..\libs\lib_vds.a(vds.o)
                                0xf6b (size before relaxing)
 .debug_str     0x0000b156      0x186 ..\..\..\libs\lib_vds.a(jpeg_dec_ctl.o)
                               0x1561 (size before relaxing)
 .debug_str     0x0000b2dc      0x37e ..\..\..\libs\lib_vds.a(jpeg_dec_unpkg.o)
                               0x1b5c (size before relaxing)
 .debug_str     0x0000b65a      0xa6b ..\..\..\libs\lib_ves.a(ves.o)
                               0x1e91 (size before relaxing)
 .debug_str     0x0000c0c5      0x14f ..\..\..\libs\lib_ves.a(avi_pkg_ctrl.o)
                               0x13fa (size before relaxing)
 .debug_str     0x0000c214       0x4f ..\..\..\libs\lib_ves.a(jpeg_enc_ctrl.o)
                                0x826 (size before relaxing)
 .debug_str     0x0000c263       0xb3 ..\..\..\libs\lib_ves.a(jpeg_pkg_ctrl.o)
                                0xa06 (size before relaxing)
 .debug_str     0x0000c316       0xb1 ..\..\..\libs\lib_jpeg_dec.a(jpeg_dec_if.o)
                                0x335 (size before relaxing)
 .debug_str     0x0000c3c7      0x394 ..\..\..\libs\lib_jpeg_dec.a(jpeg_dec_isr.o)
                                0x661 (size before relaxing)
 .debug_str     0x0000c75b      0x116 ..\..\..\libs\lib_jpeg_dec.a(jpeg_decode.o)
                                0x748 (size before relaxing)
 .debug_str     0x0000c871      0x171 ..\..\..\libs\lib_jpeg_dec.a(jpeg_dec_head.o)
                                0x637 (size before relaxing)
 .debug_str     0x0000c9e2      0x379 ..\..\..\libs\lib_jpeg_enc.a(jpeg_enc_if.o)
                                0x8a3 (size before relaxing)
 .debug_str     0x0000cd5b       0x9b ..\..\..\libs\lib_jpeg_enc.a(jpeg_encode.o)
                                0x5ff (size before relaxing)
 .debug_str     0x0000cdf6       0xe7 ..\..\..\libs\lib_jpeg_enc.a(jpeg_encode_init.o)
                                0x698 (size before relaxing)
 .debug_str     0x0000cedd       0xe8 ..\..\..\libs\lib_jpeg_enc.a(jpeg_encode_isr.o)
                                0xb97 (size before relaxing)
 .debug_str     0x0000cfc5      0x3c3 ..\..\..\libs\lib_jpeg_enc.a(Build_dynamic_huffman.o)
                                0x943 (size before relaxing)
 .debug_str     0x0000d388       0x52 ..\..\..\libs\lib_jpeg_enc.a(jpeg_abr.o)
                                0x14e (size before relaxing)
 .debug_str     0x0000d3da       0xd4 ..\..\..\libs\lib_avi_pkg.a(avi_pkg_if.o)
                                0x6f2 (size before relaxing)
 .debug_str     0x0000d4ae      0x141 ..\..\..\libs\lib_avi_pkg.a(avi_pkg_dev.o)
                                0x607 (size before relaxing)
 .debug_str     0x0000d5ef      0x41d ..\..\..\libs\lib_avi_pkg.a(avi_pkg.o)
                                0xb6c (size before relaxing)
 .debug_str     0x0000da0c       0x3e ..\..\..\libs\lib_avi_pkg.a(avi_pkg_head.o)
                                0x438 (size before relaxing)
 .debug_str     0x0000da4a      0x12a ..\..\..\libs\lib_avi_pkg.a(avi_pkg_idx.o)
                                0xa7a (size before relaxing)
 .debug_str     0x0000db74      0x14f ..\..\..\libs\lib_malloc.a(mem_heap.o)
                                0x735 (size before relaxing)
 .debug_str     0x0000dcc3      0x2c9 ..\..\..\libs\libsd1.a(mango_dev_sd1.o)
                                0xbd8 (size before relaxing)
 .debug_str     0x0000df8c       0xd7 ..\..\..\libs\libsd1.a(sd_host_init.o)
                                0x349 (size before relaxing)
 .debug_str     0x0000e063      0x233 ..\..\..\libs\libsd1.a(sd_host_read_end.o)
                                0x3d1 (size before relaxing)
 .debug_str     0x0000e296       0x53 ..\..\..\libs\libsd1.a(sd_host_unmount.o)
                                0x3c8 (size before relaxing)
 .debug_str     0x0000e2e9       0x35 ..\..\..\libs\libsd1.a(sd_host_write_end.o)
                                0x3d3 (size before relaxing)
 .debug_str     0x0000e31e       0x74 ..\..\..\libs\libsd1.a(sdmmc_init.o)
                                0x5aa (size before relaxing)
 .debug_str     0x0000e392       0x2f ..\..\..\libs\libsd1.a(suspend_sdmmc.o)
                                0x3ad (size before relaxing)
 .debug_str     0x0000e3c1       0x8b ..\..\..\libs\libsd1.a(sd_host_send_csd.o)
                                0x20a (size before relaxing)
 .debug_str     0x0000e44c       0x51 ..\..\..\libs\libsd1.a(sd_host_stop_trans.o)
                                0x3b5 (size before relaxing)
 .debug_str     0x0000e49d       0xce ..\..\..\libs\libsd1.a(sd_host_hw.o)
                                0x351 (size before relaxing)
 .debug_str     0x0000e56b       0x2f ..\..\..\libs\libsd1.a(sd_wait_idle.o)
                                0x40c (size before relaxing)
 .debug_str     0x0000e59a       0x82 ..\..\..\libs\libsd1.a(sdmmc_det.o)
                                0x405 (size before relaxing)
 .debug_str     0x0000e61c      0x215 ..\..\..\libs\libsd1.a(sd_host_reg.o)
                                0x519 (size before relaxing)
 .debug_str     0x0000e831       0x36 ..\..\..\libs\libsd1.a(sd_send_command.o)
                                0x3a1 (size before relaxing)
 .debug_str     0x0000e867       0x37 ..\..\..\libs\libsd1.a(sd_host_status.o)
                                0x204 (size before relaxing)
 .debug_str     0x0000e89e       0x22 ..\..\..\libs\libsd1.a(sd_host_args.o)
                                0x12e (size before relaxing)
 .debug_str     0x0000e8c0       0x36 ..\..\..\libs\libsd1.a(sd_host_mount.o)
                                0x432 (size before relaxing)
 .debug_str     0x0000e8f6       0x2b ..\..\..\libs\libsd1.a(sd_host_read.o)
                                0x45c (size before relaxing)
 .debug_str     0x0000e921       0x36 ..\..\..\libs\libsd1.a(sd_host_timeout.o)
                                0x3be (size before relaxing)
 .debug_str     0x0000e957       0x2d ..\..\..\libs\libsd1.a(sd_host_write.o)
                                0x45e (size before relaxing)
 .debug_str     0x0000e984       0x4c ..\..\..\libs\libsd1.a(sd_init.o)
                                0x3d7 (size before relaxing)
 .debug_str     0x0000e9d0       0x53 ..\..\..\libs\libsd1.a(sdmmc_host_set_bus_width.o)
                                0x503 (size before relaxing)
 .debug_str     0x0000ea23       0x3c ..\..\..\libs\libsd1.a(sdmmc_host_set_hispeed.o)
                                0x457 (size before relaxing)
 .debug_str     0x0000ea5f       0x3a ..\..\..\libs\libsd1.a(mmc_host_send_rca.o)
                                0x1b2 (size before relaxing)
 .debug_str     0x0000ea99       0x44 ..\..\..\libs\libsd1.a(mmc_host_set_bus_width.o)
                                0x1bc (size before relaxing)
 .debug_str     0x0000eadd       0x40 ..\..\..\libs\libsd1.a(mmc_host_set_hispeed.o)
                                0x1b8 (size before relaxing)
 .debug_str     0x0000eb1d       0x40 ..\..\..\libs\libsd1.a(sd_host_all_send_cid.o)
                                 0xd0 (size before relaxing)
 .debug_str     0x0000eb5d       0x32 ..\..\..\libs\libsd1.a(sd_host_reset.o)
                                 0xc2 (size before relaxing)
 .debug_str     0x0000eb8f       0x4d ..\..\..\libs\libsd1.a(sd_host_sd_status.o)
                                0x3e5 (size before relaxing)
 .debug_str     0x0000ebdc       0x40 ..\..\..\libs\libsd1.a(sd_host_send_if_cond.o)
                                 0xd0 (size before relaxing)
 .debug_str     0x0000ec1c       0x38 ..\..\..\libs\libsd1.a(sd_host_send_rca.o)
                                0x1b0 (size before relaxing)
 .debug_str     0x0000ec54       0x42 ..\..\..\libs\libsd1.a(sd_host_set_bus_width.o)
                                 0xd8 (size before relaxing)
 .debug_str     0x0000ec96       0x81 ..\..\..\libs\libsd1.a(sd_host_set_hispeed.o)
                                0x209 (size before relaxing)
 .debug_str     0x0000ed17       0x29 ..\..\..\libs\libsd1.a(sd_host_switch_func.o)
                                 0xf2 (size before relaxing)
 .debug_str     0x0000ed40       0x34 ..\..\..\libs\libsd1.a(sd_select_card.o)
                                0x1b3 (size before relaxing)
 .debug_str     0x0000ed74       0x40 ..\..\..\libs\libsd1.a(sd_send_scr.o)
                                0x1dc (size before relaxing)
 .debug_str     0x0000edb4       0x2b ..\..\..\libs\libsd1.a(sd_chk_ctl.o)
                                0x269 (size before relaxing)
 .debug_str     0x0000eddf       0x38 ..\..\..\libs\libsd1.a(sd_read_start.o)
                                0x1ef (size before relaxing)
 .debug_str     0x0000ee17       0x34 ..\..\..\libs\libsd1.a(sd_write_start.o)
                                0x1f1 (size before relaxing)
 .debug_str     0x0000ee4b       0x3a ..\..\..\libs\libsd1.a(sd_host_identification.o)
                                0x3dd (size before relaxing)
 .debug_str     0x0000ee85       0x42 ..\..\..\libs\libsd1.a(mmc_host_send_op_cond.o)
                                 0xd2 (size before relaxing)
 .debug_str     0x0000eec7       0x36 ..\..\..\libs\libsd1.a(sd_host_app_cmd.o)
                                0x1ae (size before relaxing)
 .debug_str     0x0000eefd       0x47 ..\..\..\libs\libsd1.a(sd_host_send_op_cond.o)
                                 0xd7 (size before relaxing)
 .debug_str     0x0000ef44      0x420 ..\..\..\libs\lib_imb.a(imb_module.o)
                                0x8f0 (size before relaxing)
 .debug_str     0x0000f364       0x48 ..\..\..\libs\lib_imb.a(cve_cfg.o)
                                 0xf9 (size before relaxing)
 .debug_str     0x0000f3ac       0x5f ..\..\..\libs\lib_imb.a(imb_isr.o)
                                0x569 (size before relaxing)
 .debug_str     0x0000f40b      0x2b2 ..\..\..\libs\lib_vm.a(vm.o)
                                0x6d1 (size before relaxing)
 .debug_str     0x0000f6bd      0x258 ..\..\..\libs\lib_font.a(font_other_language.o)
                                0x365 (size before relaxing)
 .debug_str     0x0000f915      0x1eb ..\..\..\libs\lib_font.a(font_out.o)
                                0x3bc (size before relaxing)
 .debug_str     0x0000fb00       0x85 ..\..\..\libs\lib_font.a(font_sjis.o)
                                0x291 (size before relaxing)
 .debug_str     0x0000fb85       0x9a ..\..\..\libs\lib_font.a(font_area_ctl.o)
                                0x146 (size before relaxing)
 .debug_str     0x0000fc1f       0x21 ..\..\..\libs\lib_font.a(font_ascii.o)
                                0x161 (size before relaxing)
 .debug_str     0x0000fc40       0x42 ..\..\..\libs\lib_font.a(font_big5.o)
                                0x270 (size before relaxing)
 .debug_str     0x0000fc82       0x73 ..\..\..\libs\lib_font.a(font_gbk.o)
                                0x2bb (size before relaxing)
 .debug_str     0x0000fcf5       0x3d ..\..\..\libs\lib_font.a(font_ksc.o)
                                0x267 (size before relaxing)
 .debug_str     0x0000fd32      0x355 ..\..\..\libs\lib_uicon.a(dc_showres.o)
                                0x7cd (size before relaxing)
 .debug_str     0x00010087      0x19c ..\..\..\libs\lib_uicon.a(ui_get_info.o)
                                0x40b (size before relaxing)
 .debug_str     0x00010223       0x54 ..\..\..\libs\lib_uicon.a(ui_init.o)
                                0x140 (size before relaxing)
 .debug_str     0x00010277       0xe5 ..\..\..\libs\lib_uicon.a(ui_layer.o)
                                0x4c9 (size before relaxing)
 .debug_str     0x0001035c       0xdd ..\..\..\libs\lib_uicon.a(ui_menu.o)
                                0x2c9 (size before relaxing)
 .debug_str     0x00010439       0xee ..\..\..\libs\lib_uicon.a(ui_menub.o)
                                0x6ea (size before relaxing)
 .debug_str     0x00010527       0x58 ..\..\..\libs\lib_uicon.a(ui_number.o)
                                0x21d (size before relaxing)
 .debug_str     0x0001057f       0x55 ..\..\..\libs\lib_uicon.a(ui_pic.o)
                                0x21e (size before relaxing)
 .debug_str     0x000105d4       0x11 ..\..\..\libs\lib_uicon.a(ui_sdfs.o)
                                0x118 (size before relaxing)
 .debug_str     0x000105e5      0x17f ..\..\..\libs\lib_uicon.a(ui_text.o)
                                0x567 (size before relaxing)
 .debug_str     0x00010764       0x2b ..\..\..\libs\lib_uicon.a(ui_time.o)
                                0x233 (size before relaxing)
 .debug_str     0x0001078f       0x1b ..\..\..\libs\lib_uicon.a(ui_time1.o)
                                0x23c (size before relaxing)
 .debug_str     0x000107aa      0x272 ..\..\..\libs\lib_drv_lib.a(drv_manage.o)
                               0x12a9 (size before relaxing)
 .debug_str     0x00010a1c      0x10e ..\..\..\libs\lib_dsc_ram.a(dsc_ram.o)
                                0x26a (size before relaxing)
 .debug_str     0x00010b2a      0x11b ..\..\..\libs\lib_vedio_ram.a(yuv_ram.o)
                                0x26d (size before relaxing)
 .debug_str     0x00010c45      0x3ef ..\..\..\libs\lib_vfs.a(vfs.o)
                                0xbe0 (size before relaxing)
 .debug_str     0x00011034       0x38 ..\..\..\libs\lib_vfs.a(vfs_init.o)
                                0x344 (size before relaxing)
 .debug_str     0x0001106c      0x1d7 ..\..\..\libs\lib_vfs.a(GenfsInc.o)
                                0x8de (size before relaxing)
 .debug_str     0x00011243      0x390 ..\..\..\libs\lib_vfs.a(ff.o)
                                0x8ae (size before relaxing)
 .debug_str     0x000115d3      0x1d9 ..\..\..\libs\lib_vfs.a(dev_Mount.o)
                                0x297 (size before relaxing)
 .debug_str     0x000117ac       0xb4 ..\..\..\libs\lib_vfs.a(dev_cache_alloc.o)
                                0x28d (size before relaxing)
 .debug_str     0x00011860       0x44 ..\..\..\libs\lib_vfs.a(dev_cache_flush.o)
                                0x169 (size before relaxing)
 .debug_str     0x000118a4       0x4c ..\..\..\libs\lib_vfs.a(dev_cache_read_only.o)
                                0x250 (size before relaxing)
 .debug_str     0x000118f0       0x3a ..\..\..\libs\lib_vfs.a(dev_cache_write_dev.o)
                                0x244 (size before relaxing)
 .debug_str     0x0001192a       0x2a ..\..\..\libs\lib_vfs.a(fs_api.o)
                                 0xc6 (size before relaxing)
 .debug_str     0x00011954       0x41 ..\..\..\libs\lib_vfs.a(dev_Cache.o)
                                0x10e (size before relaxing)
 .debug_str     0x00011995       0x84 ..\..\..\libs\libhwi.a(cache.o)
                                 0xda (size before relaxing)
 .debug_str     0x00011a19      0x109 ..\..\..\libs\libhwi.a(HWI.o)
                                0x1fc (size before relaxing)
 .debug_str     0x00011b22      0x224 ..\..\..\libs\libspi0flash.a(mango_dev_spi0flash.o)
                                0x49f (size before relaxing)
 .debug_str     0x00011d46      0x18c ..\..\..\libs\libspi0flash.a(spi0flash.o)
                                0x57f (size before relaxing)
 .debug_str     0x00011ed2      0x101 ..\..\..\libs\libspi0.a(spi0.o)
                                0x36e (size before relaxing)
 .debug_str     0x00011fd3      0x142 ..\..\..\libs\lib_audio.a(ladc.o)
                                0x28f (size before relaxing)
 .debug_str     0x00012115       0x5a ..\..\..\libs\lib_audio.a(audio.o)
                                0x212 (size before relaxing)
 .debug_str     0x0001216f       0x74 ..\..\..\libs\lib_audio.a(dac.o)
                                0x15e (size before relaxing)
 .debug_str     0x000121e3      0x59b ..\..\..\libs\lib_usb_slave.a(usb_slave_main.o)
                                0xc1f (size before relaxing)
 .debug_str     0x0001277e      0x44c ..\..\..\libs\lib_usb_slave.a(msd2video_ctrl.o)
                                0xaa5 (size before relaxing)
 .debug_str     0x00012bca      0x203 ..\..\..\libs\lib_usb_slave.a(msd_dev_update.o)
                                0xb4e (size before relaxing)
 .debug_str     0x00012dcd      0x301 ..\..\..\libs\lib_usb_slave.a(msd_main.o)
                                0xe64 (size before relaxing)
 .debug_str     0x000130ce      0x47b ..\..\..\libs\lib_usb_slave.a(video_main.o)
                                0x9bb (size before relaxing)
 .debug_str     0x00013549       0x69 ..\..\..\libs\lib_usb_slave.a(audio_main.o)
                                0x600 (size before relaxing)
 .debug_str     0x000135b2      0x105 ..\..\..\libs\lib_usb_slave.a(core_descriptor.o)
                                0x8db (size before relaxing)
 .debug_str     0x000136b7       0x55 ..\..\..\libs\lib_usb_slave.a(usb_phy.o)
                                0x839 (size before relaxing)
 .debug_str     0x0001370c      0x1bb ..\..\..\libs\lib_usb_slave.a(usb_setup.o)
                                0xb73 (size before relaxing)
 .debug_str     0x000138c7       0x20 ..\..\..\libs\lib_usb_slave.a(msd_descriptor.o)
                                 0xcb (size before relaxing)
 .debug_str     0x000138e7       0x36 ..\..\..\libs\lib_usb_slave.a(video_descriptor.o)
                                0x133 (size before relaxing)
 .debug_str     0x0001391d       0x48 ..\..\..\libs\lib_usb_slave.a(audio_descriptor.o)
                                0x148 (size before relaxing)
 .debug_str     0x00013965      0x364 ..\..\..\libs\librtos.a(os_core.o)
                                0x47a (size before relaxing)
 .debug_str     0x00013cc9       0x6f ..\..\..\libs\librtos.a(os_mutex.o)
                                0x731 (size before relaxing)
 .debug_str     0x00013d38       0x52 ..\..\..\libs\librtos.a(os_sem.o)
                                0x737 (size before relaxing)
 .debug_str     0x00013d8a      0x204 ..\..\..\libs\librtos.a(os_task.o)
                                0x998 (size before relaxing)
 .debug_str     0x00013f8e       0x49 ..\..\..\libs\librtos.a(os_time.o)
                                0x6fd (size before relaxing)
 .debug_str     0x00013fd7       0x59 ..\..\..\libs\librtos.a(os_api.o)
                                0x7a7 (size before relaxing)
 .debug_str     0x00014030       0x68 ..\..\..\libs\librtos.a(os_cpu_c.o)
                                0x13e (size before relaxing)
 .debug_str     0x00014098      0x17d ..\..\..\libs\lib_common.a(time.o)
                                0x275 (size before relaxing)
 .debug_str     0x00014215      0x2ab ..\..\..\libs\lib_common.a(Vsnprintf.o)
                                0x411 (size before relaxing)
 .debug_str     0x000144c0       0x4e C:\JL\dv12\lib\libc.a(lib_a-isalnum.o)
                                 0x67 (size before relaxing)
 .debug_str     0x0001450e       0x40 C:\JL\dv12\lib\libc.a(lib_a-memcmp.o)
                                 0xe3 (size before relaxing)
 .debug_str     0x0001454e       0x67 C:\JL\dv12\lib\libc.a(lib_a-memcpy.o)
                                0x10a (size before relaxing)
 .debug_str     0x000145b5       0x53 C:\JL\dv12\lib\libc.a(lib_a-memmove.o)
                                0x116 (size before relaxing)
 .debug_str     0x00014608       0x4d C:\JL\dv12\lib\libc.a(lib_a-memset.o)
                                 0xf7 (size before relaxing)
 .debug_str     0x00014655       0x4b C:\JL\dv12\lib\libc.a(lib_a-strcat.o)
                                 0xe7 (size before relaxing)
 .debug_str     0x000146a0       0x40 C:\JL\dv12\lib\libc.a(lib_a-strcmp.o)
                                 0xdc (size before relaxing)
 .debug_str     0x000146e0       0x40 C:\JL\dv12\lib\libc.a(lib_a-strcpy.o)
                                 0xfe (size before relaxing)
 .debug_str     0x00014720       0x40 C:\JL\dv12\lib\libc.a(lib_a-strlen.o)
                                 0xf6 (size before relaxing)
 .debug_str     0x00014760       0x41 C:\JL\dv12\lib\libc.a(lib_a-strncmp.o)
                                 0xe5 (size before relaxing)
 .debug_str     0x000147a1       0x41 C:\JL\dv12\lib\libc.a(lib_a-strncpy.o)
                                0x10d (size before relaxing)
 .debug_str     0x000147e2       0x41 C:\JL\dv12\lib\libc.a(lib_a-strnlen.o)
                                 0xeb (size before relaxing)
 .debug_str     0x00014823       0x50 C:\JL\dv12\lib\libc.a(lib_a-ctype_.o)
                                 0x81 (size before relaxing)
 .debug_str     0x00014873       0xde C:\JL\dv12\lib\libgcc.a(_lshrdi3.o)
                                0x18e (size before relaxing)
 .debug_str     0x00014951       0x7b C:\JL\dv12\lib\libgcc.a(_divdi3.o)
                                0x1e6 (size before relaxing)
 .debug_str     0x000149cc       0x7c C:\JL\dv12\lib\libgcc.a(divsf3.o)
                                0x118 (size before relaxing)
 .debug_str     0x00014a48       0x63 C:\JL\dv12\lib\libgcc.a(fixunssfsi.o)
                                0x123 (size before relaxing)
 .debug_str     0x00014aab       0x6a C:\JL\dv12\lib\libgcc.a(floatunsisf.o)
                                0x12a (size before relaxing)
 .debug_str     0x00000000      0x151 C:\JL\dv12\lib\libgcc.a(_clz.o)
 .debug_str     0x00014b15        0x9 C:\JL\dv12\lib\libgcc.a(_clzsi2.o)
                                0x16e (size before relaxing)

.comment        0x00000000       0x11
 .comment       0x00000000       0x11 obj\Debug\\code\FileSelecter\FileSelecter.o
                                 0x12 (size before relaxing)
 .comment       0x00000000       0x12 obj\Debug\\code\FileSelecter\pb_fctrl.o
 .comment       0x00000000       0x12 obj\Debug\\code\Peripherals\G_Sensor\GMA301.o
 .comment       0x00000000       0x12 obj\Debug\\code\Peripherals\G_Sensor\da380.o
 .comment       0x00000000       0x12 obj\Debug\\code\Peripherals\G_Sensor\gravity_sensor_api.o
 .comment       0x00000000       0x12 obj\Debug\\code\Peripherals\G_Sensor\gravity_sensor_manage.o
 .comment       0x00000000       0x12 obj\Debug\\code\Peripherals\G_Sensor\i2c.o
 .comment       0x00000000       0x12 obj\Debug\\code\Peripherals\G_Sensor\parking_guard.o
 .comment       0x00000000       0x12 obj\Debug\\code\Peripherals\G_Sensor\stk8312.o
 .comment       0x00000000       0x12 obj\Debug\\code\Peripherals\clock.o
 .comment       0x00000000       0x12 obj\Debug\\code\Peripherals\timer.o
 .comment       0x00000000       0x12 obj\Debug\\code\Peripherals\uart.o
 .comment       0x00000000       0x12 obj\Debug\\code\Peripherals\user_isp_cfg.o
 .comment       0x00000000       0x12 obj\Debug\\code\Peripherals\wdt.o
 .comment       0x00000000       0x12 obj\Debug\\code\StorDev\dev_ctrl.o
 .comment       0x00000000       0x12 obj\Debug\\code\common\audio_api.o
 .comment       0x00000000       0x12 obj\Debug\\code\common\common.o
 .comment       0x00000000       0x12 obj\Debug\\code\common\fcvt.o
 .comment       0x00000000       0x12 obj\Debug\\code\common\printf-stdarg.o
 .comment       0x00000000       0x12 obj\Debug\\code\common\vm_api.o
 .comment       0x00000000       0x12 obj\Debug\\code\disp_ctrl\lcd.o
 .comment       0x00000000       0x12 obj\Debug\\code\disp_ctrl\my_ui1.o
 .comment       0x00000000       0x12 obj\Debug\\code\disp_ctrl\ui_task.o
 .comment       0x00000000       0x12 obj\Debug\\code\infoNES\NES_GAME\ddl.o
 .comment       0x00000000       0x12 obj\Debug\\code\infoNES\NES_GAME\fj.o
 .comment       0x00000000       0x12 obj\Debug\\code\infoNES\NES_GAME\gef.o
 .comment       0x00000000       0x12 obj\Debug\\code\infoNES\infoNES_PORT\nes_port.o
 .comment       0x00000000       0x12 obj\Debug\\code\infoNES\infoNES_SRC\src\InfoNES.o
 .comment       0x00000000       0x12 obj\Debug\\code\infoNES\infoNES_SRC\src\InfoNES_Mapper.o
 .comment       0x00000000       0x12 obj\Debug\\code\infoNES\infoNES_SRC\src\InfoNES_pAPU.o
 .comment       0x00000000       0x12 obj\Debug\\code\infoNES\infoNES_SRC\src\K6502.o
 .comment       0x00000000       0x12 obj\Debug\\code\infoNES\infoNES_System\InfoNES_System.o
 .comment       0x00000000       0x12 obj\Debug\\code\key\adc_scan.o
 .comment       0x00000000       0x12 obj\Debug\\code\key\key_drv_ad.o
 .comment       0x00000000       0x12 obj\Debug\\code\key\key_drv_manager.o
 .comment       0x00000000       0x12 obj\Debug\\code\key\powercheck.o
 .comment       0x00000000       0x12 obj\Debug\\code\start\car_fs_api.o
 .comment       0x00000000       0x12 obj\Debug\\code\start\dec_mode.o
 .comment       0x00000000       0x12 obj\Debug\\code\start\enc_mode.o
 .comment       0x00000000       0x12 obj\Debug\\code\start\main.o
 .comment       0x00000000       0x12 obj\Debug\\code\start\mode_switch.o
 .comment       0x00000000       0x12 obj\Debug\\code\start\pwr_onoff.o
 .comment       0x00000000       0x12 obj\Debug\\code\start\usb_mode.o
 .comment       0x00000000       0x12 obj\Debug\\code\tft_panel\ILI8960.o
 .comment       0x00000000       0x12 obj\Debug\\code\tft_panel\ILI8961.o
 .comment       0x00000000       0x12 obj\Debug\\code\tft_panel\ILI9163.o
 .comment       0x00000000       0x12 obj\Debug\\code\tft_panel\ILI9325.o
 .comment       0x00000000       0x12 obj\Debug\\code\tft_panel\LCD_RM68116.o
 .comment       0x00000000       0x12 obj\Debug\\code\tft_panel\LQ026B3UX01.o
 .comment       0x00000000       0x12 obj\Debug\\code\tft_panel\SSD1963.o
 .comment       0x00000000       0x12 obj\Debug\\code\tft_panel\ST7735S.o
 .comment       0x00000000       0x12 obj\Debug\\code\tft_panel\T15P00.o
 .comment       0x00000000       0x12 obj\Debug\\code\tft_panel\avout.o
 .comment       0x00000000       0x12 obj\Debug\\code\tft_panel\disp_43inch.o
 .comment       0x00000000       0x12 obj\Debug\\code\tft_panel\disp_8inch.o
 .comment       0x00000000       0x12 obj\Debug\\code\tft_panel\disp_JC4301.o
 .comment       0x00000000       0x12 obj\Debug\\code\tft_panel\pap.o
 .comment       0x00000000       0x12 obj\Debug\\code\upgrade\upgrade.o
 .comment       0x00000000       0x12 ..\..\..\libs\lib_vds.a(vds.o)
 .comment       0x00000000       0x12 ..\..\..\libs\lib_vds.a(jpeg_dec_ctl.o)
 .comment       0x00000000       0x12 ..\..\..\libs\lib_vds.a(jpeg_dec_unpkg.o)
 .comment       0x00000000       0x12 ..\..\..\libs\lib_ves.a(ves.o)
 .comment       0x00000000       0x12 ..\..\..\libs\lib_ves.a(avi_pkg_ctrl.o)
 .comment       0x00000000       0x12 ..\..\..\libs\lib_ves.a(jpeg_enc_ctrl.o)
 .comment       0x00000000       0x12 ..\..\..\libs\lib_ves.a(jpeg_pkg_ctrl.o)
 .comment       0x00000000       0x12 ..\..\..\libs\lib_jpeg_dec.a(jpeg_dec_if.o)
 .comment       0x00000000       0x12 ..\..\..\libs\lib_jpeg_dec.a(jpeg_dec_isr.o)
 .comment       0x00000000       0x12 ..\..\..\libs\lib_jpeg_dec.a(jpeg_decode.o)
 .comment       0x00000000       0x12 ..\..\..\libs\lib_jpeg_dec.a(jpeg_dec_head.o)
 .comment       0x00000000       0x12 ..\..\..\libs\lib_jpeg_enc.a(jpeg_enc_if.o)
 .comment       0x00000000       0x12 ..\..\..\libs\lib_jpeg_enc.a(jpeg_encode.o)
 .comment       0x00000000       0x12 ..\..\..\libs\lib_jpeg_enc.a(jpeg_encode_init.o)
 .comment       0x00000000       0x12 ..\..\..\libs\lib_jpeg_enc.a(jpeg_encode_isr.o)
 .comment       0x00000000       0x12 ..\..\..\libs\lib_jpeg_enc.a(Build_dynamic_huffman.o)
 .comment       0x00000000       0x12 ..\..\..\libs\lib_jpeg_enc.a(jpeg_abr.o)
 .comment       0x00000000       0x12 ..\..\..\libs\lib_avi_unpkg.a(avi_unpkg_if.o)
 .comment       0x00000000       0x12 ..\..\..\libs\lib_avi_unpkg.a(avi_unpkg.o)
 .comment       0x00000000       0x12 ..\..\..\libs\lib_avi_unpkg.a(avi_unpkg_aud.o)
 .comment       0x00000000       0x12 ..\..\..\libs\lib_avi_unpkg.a(avi_unpkg_dev.o)
 .comment       0x00000000       0x12 ..\..\..\libs\lib_avi_unpkg.a(avi_unpkg_head.o)
 .comment       0x00000000       0x12 ..\..\..\libs\lib_avi_unpkg.a(avi_uppkg_vid.o)
 .comment       0x00000000       0x12 ..\..\..\libs\lib_avi_pkg.a(avi_pkg_if.o)
 .comment       0x00000000       0x12 ..\..\..\libs\lib_avi_pkg.a(avi_pkg_dev.o)
 .comment       0x00000000       0x12 ..\..\..\libs\lib_avi_pkg.a(avi_pkg.o)
 .comment       0x00000000       0x12 ..\..\..\libs\lib_avi_pkg.a(avi_pkg_head.o)
 .comment       0x00000000       0x12 ..\..\..\libs\lib_avi_pkg.a(avi_pkg_idx.o)
 .comment       0x00000000       0x12 ..\..\..\libs\lib_malloc.a(mem_heap.o)
 .comment       0x00000000       0x12 ..\..\..\libs\libsd1.a(mango_dev_sd1.o)
 .comment       0x00000000       0x12 ..\..\..\libs\libsd1.a(sd_host_init.o)
 .comment       0x00000000       0x12 ..\..\..\libs\libsd1.a(sd_host_read_end.o)
 .comment       0x00000000       0x12 ..\..\..\libs\libsd1.a(sd_host_unmount.o)
 .comment       0x00000000       0x12 ..\..\..\libs\libsd1.a(sd_host_write_end.o)
 .comment       0x00000000       0x12 ..\..\..\libs\libsd1.a(sdmmc_init.o)
 .comment       0x00000000       0x12 ..\..\..\libs\libsd1.a(suspend_sdmmc.o)
 .comment       0x00000000       0x12 ..\..\..\libs\libsd1.a(sd_host_send_csd.o)
 .comment       0x00000000       0x12 ..\..\..\libs\libsd1.a(sd_host_stop_trans.o)
 .comment       0x00000000       0x12 ..\..\..\libs\libsd1.a(sd_host_hw.o)
 .comment       0x00000000       0x12 ..\..\..\libs\libsd1.a(sd_wait_idle.o)
 .comment       0x00000000       0x12 ..\..\..\libs\libsd1.a(sdmmc_det.o)
 .comment       0x00000000       0x12 ..\..\..\libs\libsd1.a(sd_host_reg.o)
 .comment       0x00000000       0x12 ..\..\..\libs\libsd1.a(sd_send_command.o)
 .comment       0x00000000       0x12 ..\..\..\libs\libsd1.a(sd_host_status.o)
 .comment       0x00000000       0x12 ..\..\..\libs\libsd1.a(sd_host_args.o)
 .comment       0x00000000       0x12 ..\..\..\libs\libsd1.a(sd_host_mount.o)
 .comment       0x00000000       0x12 ..\..\..\libs\libsd1.a(sd_host_read.o)
 .comment       0x00000000       0x12 ..\..\..\libs\libsd1.a(sd_host_timeout.o)
 .comment       0x00000000       0x12 ..\..\..\libs\libsd1.a(sd_host_write.o)
 .comment       0x00000000       0x12 ..\..\..\libs\libsd1.a(sd_init.o)
 .comment       0x00000000       0x12 ..\..\..\libs\libsd1.a(sdmmc_host_set_bus_width.o)
 .comment       0x00000000       0x12 ..\..\..\libs\libsd1.a(sdmmc_host_set_hispeed.o)
 .comment       0x00000000       0x12 ..\..\..\libs\libsd1.a(mmc_host_send_rca.o)
 .comment       0x00000000       0x12 ..\..\..\libs\libsd1.a(mmc_host_set_bus_width.o)
 .comment       0x00000000       0x12 ..\..\..\libs\libsd1.a(mmc_host_set_hispeed.o)
 .comment       0x00000000       0x12 ..\..\..\libs\libsd1.a(sd_host_all_send_cid.o)
 .comment       0x00000000       0x12 ..\..\..\libs\libsd1.a(sd_host_reset.o)
 .comment       0x00000000       0x12 ..\..\..\libs\libsd1.a(sd_host_sd_status.o)
 .comment       0x00000000       0x12 ..\..\..\libs\libsd1.a(sd_host_send_if_cond.o)
 .comment       0x00000000       0x12 ..\..\..\libs\libsd1.a(sd_host_send_rca.o)
 .comment       0x00000000       0x12 ..\..\..\libs\libsd1.a(sd_host_set_bus_width.o)
 .comment       0x00000000       0x12 ..\..\..\libs\libsd1.a(sd_host_set_hispeed.o)
 .comment       0x00000000       0x12 ..\..\..\libs\libsd1.a(sd_host_switch_func.o)
 .comment       0x00000000       0x12 ..\..\..\libs\libsd1.a(sd_select_card.o)
 .comment       0x00000000       0x12 ..\..\..\libs\libsd1.a(sd_send_scr.o)
 .comment       0x00000000       0x12 ..\..\..\libs\libsd1.a(sd_chk_ctl.o)
 .comment       0x00000000       0x12 ..\..\..\libs\libsd1.a(sd_read_start.o)
 .comment       0x00000000       0x12 ..\..\..\libs\libsd1.a(sd_write_start.o)
 .comment       0x00000000       0x12 ..\..\..\libs\libsd1.a(sd_host_identification.o)
 .comment       0x00000000       0x12 ..\..\..\libs\libsd1.a(mmc_host_send_op_cond.o)
 .comment       0x00000000       0x12 ..\..\..\libs\libsd1.a(sd_host_app_cmd.o)
 .comment       0x00000000       0x12 ..\..\..\libs\libsd1.a(sd_host_send_op_cond.o)
 .comment       0x00000000       0x12 ..\..\..\libs\lib_imc_disp.a(dsc.o)
 .comment       0x00000000       0x12 ..\..\..\libs\lib_imb.a(imb_module.o)
 .comment       0x00000000       0x12 ..\..\..\libs\lib_imb.a(cve_cfg.o)
 .comment       0x00000000       0x12 ..\..\..\libs\lib_imb.a(imb_isr.o)
 .comment       0x00000000       0x12 ..\..\..\libs\lib_imc.a(imc_if.o)
 .comment       0x00000000       0x12 ..\..\..\libs\lib_imc.a(imc_rep.o)
 .comment       0x00000000       0x12 ..\..\..\libs\lib_imc.a(imc.o)
 .comment       0x00000000       0x12 ..\..\..\libs\lib_imc.a(imc_cut.o)
 .comment       0x00000000       0x12 ..\..\..\libs\lib_imc.a(imc_isr.o)
 .comment       0x00000000       0x12 ..\..\..\libs\lib_imc.a(lane_dect.o)
 .comment       0x00000000       0x12 ..\..\..\libs\lib_vm.a(vm.o)
 .comment       0x00000000       0x12 ..\..\..\libs\lib_font.a(font_other_language.o)
 .comment       0x00000000       0x12 ..\..\..\libs\lib_font.a(font_out.o)
 .comment       0x00000000       0x12 ..\..\..\libs\lib_font.a(font_sjis.o)
 .comment       0x00000000       0x12 ..\..\..\libs\lib_font.a(font_area_ctl.o)
 .comment       0x00000000       0x12 ..\..\..\libs\lib_font.a(font_ascii.o)
 .comment       0x00000000       0x12 ..\..\..\libs\lib_font.a(font_big5.o)
 .comment       0x00000000       0x12 ..\..\..\libs\lib_font.a(font_gbk.o)
 .comment       0x00000000       0x12 ..\..\..\libs\lib_font.a(font_ksc.o)
 .comment       0x00000000       0x12 ..\..\..\libs\lib_uicon.a(dc_showres.o)
 .comment       0x00000000       0x12 ..\..\..\libs\lib_uicon.a(ui_get_info.o)
 .comment       0x00000000       0x12 ..\..\..\libs\lib_uicon.a(ui_init.o)
 .comment       0x00000000       0x12 ..\..\..\libs\lib_uicon.a(ui_layer.o)
 .comment       0x00000000       0x12 ..\..\..\libs\lib_uicon.a(ui_menu.o)
 .comment       0x00000000       0x12 ..\..\..\libs\lib_uicon.a(ui_menub.o)
 .comment       0x00000000       0x12 ..\..\..\libs\lib_uicon.a(ui_number.o)
 .comment       0x00000000       0x12 ..\..\..\libs\lib_uicon.a(ui_pic.o)
 .comment       0x00000000       0x12 ..\..\..\libs\lib_uicon.a(ui_sdfs.o)
 .comment       0x00000000       0x12 ..\..\..\libs\lib_uicon.a(ui_text.o)
 .comment       0x00000000       0x12 ..\..\..\libs\lib_uicon.a(ui_time.o)
 .comment       0x00000000       0x12 ..\..\..\libs\lib_uicon.a(ui_time1.o)
 .comment       0x00000000       0x12 ..\..\..\libs\lib_drv_lib.a(drv_manage.o)
 .comment       0x00000000       0x12 ..\..\..\libs\lib_dsc_ram.a(dsc_ram.o)
 .comment       0x00000000       0x12 ..\..\..\libs\lib_vedio_ram.a(yuv_ram.o)
 .comment       0x00000000       0x12 ..\..\..\libs\lib_sdfile.a(sdfile.o)
 .comment       0x00000000       0x12 ..\..\..\libs\lib_vfs.a(vfs.o)
 .comment       0x00000000       0x12 ..\..\..\libs\lib_vfs.a(vfs_init.o)
 .comment       0x00000000       0x12 ..\..\..\libs\lib_vfs.a(GenfsInc.o)
 .comment       0x00000000       0x12 ..\..\..\libs\lib_vfs.a(ff.o)
 .comment       0x00000000       0x12 ..\..\..\libs\lib_vfs.a(dev_Mount.o)
 .comment       0x00000000       0x12 ..\..\..\libs\lib_vfs.a(dev_cache_alloc.o)
 .comment       0x00000000       0x12 ..\..\..\libs\lib_vfs.a(dev_cache_flush.o)
 .comment       0x00000000       0x12 ..\..\..\libs\lib_vfs.a(dev_cache_read_only.o)
 .comment       0x00000000       0x12 ..\..\..\libs\lib_vfs.a(dev_cache_write_dev.o)
 .comment       0x00000000       0x12 ..\..\..\libs\lib_vfs.a(fs_api.o)
 .comment       0x00000000       0x12 ..\..\..\libs\lib_vfs.a(dev_Cache.o)
 .comment       0x00000000       0x12 ..\..\..\libs\libhwi.a(cache.o)
 .comment       0x00000000       0x12 ..\..\..\libs\libhwi.a(HWI.o)
 .comment       0x00000000       0x12 ..\..\..\libs\libspi0flash.a(mango_dev_spi0flash.o)
 .comment       0x00000000       0x12 ..\..\..\libs\libspi0flash.a(spi0flash.o)
 .comment       0x00000000       0x12 ..\..\..\libs\libspi0.a(spi0.o)
 .comment       0x00000000       0x12 ..\..\..\libs\lib_wfile_serve.a(wfile_serve.o)
 .comment       0x00000000       0x12 ..\..\..\libs\lib_audio.a(ladc.o)
 .comment       0x00000000       0x12 ..\..\..\libs\lib_audio.a(audio.o)
 .comment       0x00000000       0x12 ..\..\..\libs\lib_audio.a(dac.o)
 .comment       0x00000000       0x12 ..\..\..\libs\lib_usb_slave.a(usb_slave_main.o)
 .comment       0x00000000       0x12 ..\..\..\libs\lib_usb_slave.a(msd2video_ctrl.o)
 .comment       0x00000000       0x12 ..\..\..\libs\lib_usb_slave.a(msd_dev_update.o)
 .comment       0x00000000       0x12 ..\..\..\libs\lib_usb_slave.a(msd_main.o)
 .comment       0x00000000       0x12 ..\..\..\libs\lib_usb_slave.a(video_main.o)
 .comment       0x00000000       0x12 ..\..\..\libs\lib_usb_slave.a(audio_main.o)
 .comment       0x00000000       0x12 ..\..\..\libs\lib_usb_slave.a(core_descriptor.o)
 .comment       0x00000000       0x12 ..\..\..\libs\lib_usb_slave.a(usb_phy.o)
 .comment       0x00000000       0x12 ..\..\..\libs\lib_usb_slave.a(usb_setup.o)
 .comment       0x00000000       0x12 ..\..\..\libs\lib_usb_slave.a(msd_descriptor.o)
 .comment       0x00000000       0x12 ..\..\..\libs\lib_usb_slave.a(video_descriptor.o)
 .comment       0x00000000       0x12 ..\..\..\libs\lib_usb_slave.a(audio_descriptor.o)
 .comment       0x00000000       0x12 ..\..\..\libs\lib_usb_phy.a(usb_hal.o)
 .comment       0x00000000       0x12 ..\..\..\libs\lib_isp.a(gamma.o)
 .comment       0x00000000       0x12 ..\..\..\libs\lib_isp.a(isp0_dev.o)
 .comment       0x00000000       0x12 ..\..\..\libs\lib_isp.a(isp_com.o)
 .comment       0x00000000       0x12 ..\..\..\libs\lib_isp.a(isp_customize.o)
 .comment       0x00000000       0x12 ..\..\..\libs\lib_isp.a(isp_tuning.o)
 .comment       0x00000000       0x12 ..\..\..\libs\lib_isp.a(isp_tuning_drc.o)
 .comment       0x00000000       0x12 ..\..\..\libs\lib_isp.a(lsc_coeff.o)
 .comment       0x00000000       0x12 ..\..\..\libs\lib_isp.a(median_filter.o)
 .comment       0x00000000       0x12 ..\..\..\libs\lib_isp.a(isp_if.o)
 .comment       0x00000000       0x12 ..\..\..\libs\lib_isp.a(average_filter.o)
 .comment       0x00000000       0x12 ..\..\..\libs\lib_isp.a(fixed_math.o)
 .comment       0x00000000       0x12 ..\..\..\libs\lib_isp.a(isp1_dev.o)
 .comment       0x00000000       0x12 ..\..\..\libs\lib_cbuf.a(circular_buf.o)
 .comment       0x00000000       0x12 ..\..\..\libs\lib_lane.a(lane_detect.o)
 .comment       0x00000000       0x12 ..\..\..\libs\lib_lane.a(canny.o)
 .comment       0x00000000       0x12 ..\..\..\libs\lib_lane.a(canny_edge.o)
 .comment       0x00000000       0x12 ..\..\..\libs\lib_lane.a(hough.o)
 .comment       0x00000000       0x12 ..\..\..\libs\lib_lane.a(LUT1024.o)
 .comment       0x00000000       0x12 ..\..\..\libs\librtos.a(os_core.o)
 .comment       0x00000000       0x12 ..\..\..\libs\librtos.a(os_mutex.o)
 .comment       0x00000000       0x12 ..\..\..\libs\librtos.a(os_sem.o)
 .comment       0x00000000       0x12 ..\..\..\libs\librtos.a(os_task.o)
 .comment       0x00000000       0x12 ..\..\..\libs\librtos.a(os_time.o)
 .comment       0x00000000       0x12 ..\..\..\libs\librtos.a(os_api.o)
 .comment       0x00000000       0x12 ..\..\..\libs\librtos.a(os_cpu_c.o)
 .comment       0x00000000       0x12 ..\..\..\libs\lib_irtc.a(irtc.o)
 .comment       0x00000000       0x12 ..\..\..\libs\lib_fbuf.a(frame_buf.o)
 .comment       0x00000000       0x12 ..\..\..\libs\lib_sensor.a(iic.o)
 .comment       0x00000000       0x12 ..\..\..\libs\lib_sensor.a(isp_sensor_manage.o)
 .comment       0x00000000       0x12 ..\..\..\libs\lib_sensor.a(GC0308.o)
 .comment       0x00000000       0x12 ..\..\..\libs\lib_sensor.a(GC1004.o)
 .comment       0x00000000       0x12 ..\..\..\libs\lib_sensor.a(GC1004_tbl.o)
 .comment       0x00000000       0x12 ..\..\..\libs\lib_sensor.a(H42.o)
 .comment       0x00000000       0x12 ..\..\..\libs\lib_sensor.a(NT99140.o)
 .comment       0x00000000       0x12 ..\..\..\libs\lib_sensor.a(NT99143.o)
 .comment       0x00000000       0x12 ..\..\..\libs\lib_sensor.a(NT99143_tbl.o)
 .comment       0x00000000       0x12 ..\..\..\libs\lib_sensor.a(OV9710.o)
 .comment       0x00000000       0x12 ..\..\..\libs\lib_sensor.a(SC1045.o)
 .comment       0x00000000       0x12 ..\..\..\libs\lib_sensor.a(SC1045_tbl.o)
 .comment       0x00000000       0x12 ..\..\..\libs\lib_sensor.a(gm7150.o)
 .comment       0x00000000       0x12 ..\..\..\libs\lib_sensor.a(ps4100.o)
 .comment       0x00000000       0x12 ..\..\..\libs\lib_sensor.a(ps4100_tbl.o)
 .comment       0x00000000       0x12 ..\..\..\libs\lib_common.a(time.o)
 .comment       0x00000000       0x12 ..\..\..\libs\lib_common.a(Vsnprintf.o)
 .comment       0x00000000       0x12 C:\JL\dv12\lib\libc.a(lib_a-isalnum.o)
 .comment       0x00000000       0x12 C:\JL\dv12\lib\libc.a(lib_a-memcmp.o)
 .comment       0x00000000       0x12 C:\JL\dv12\lib\libc.a(lib_a-memcpy.o)
 .comment       0x00000000       0x12 C:\JL\dv12\lib\libc.a(lib_a-memmove.o)
 .comment       0x00000000       0x12 C:\JL\dv12\lib\libc.a(lib_a-memset.o)
 .comment       0x00000000       0x12 C:\JL\dv12\lib\libc.a(lib_a-strcat.o)
 .comment       0x00000000       0x12 C:\JL\dv12\lib\libc.a(lib_a-strcmp.o)
 .comment       0x00000000       0x12 C:\JL\dv12\lib\libc.a(lib_a-strcpy.o)
 .comment       0x00000000       0x12 C:\JL\dv12\lib\libc.a(lib_a-strlen.o)
 .comment       0x00000000       0x12 C:\JL\dv12\lib\libc.a(lib_a-strncmp.o)
 .comment       0x00000000       0x12 C:\JL\dv12\lib\libc.a(lib_a-strncpy.o)
 .comment       0x00000000       0x12 C:\JL\dv12\lib\libc.a(lib_a-strnlen.o)
 .comment       0x00000000       0x12 C:\JL\dv12\lib\libc.a(lib_a-ctype_.o)
 .comment       0x00000000       0x12 C:\JL\dv12\lib\libgcc.a(_lshrdi3.o)
 .comment       0x00000000       0x12 C:\JL\dv12\lib\libgcc.a(_divdi3.o)
 .comment       0x00000000       0x12 C:\JL\dv12\lib\libgcc.a(divsf3.o)
 .comment       0x00000000       0x12 C:\JL\dv12\lib\libgcc.a(fixunssfsi.o)
 .comment       0x00000000       0x12 C:\JL\dv12\lib\libgcc.a(floatunsisf.o)
 .comment       0x00000000       0x12 C:\JL\dv12\lib\libgcc.a(_clz.o)
 .comment       0x00000000       0x12 C:\JL\dv12\lib\libgcc.a(_clzsi2.o)
